(dp1
S'model'
p2
VCommonData
p3
sS'entities'
p4
(lp5
(dp6
S'keyname'
p7
V2010-09-01
p8
sS'fields'
p9
(dp10
S'date'
p11
cdatetime
date
p12
(S'\x07\xda\t\x01'
tRp13
sS'solar_radio_flux'
p14
L77L
sS'mean_planetary_Kp_index'
p15
L1L
sS'mean_planetary_A_index'
p16
L6L
ssS'key'
p17
(lp18
VCommonData
p19
aV2010-09-01
p20
asS'parent'
p21
Nsa(dp22
g7
V2010-09-02
p23
sg9
(dp24
g11
g12
(S'\x07\xda\t\x02'
tRp25
sg14
L77L
sg15
L1L
sg16
L2L
ssg17
(lp26
VCommonData
p27
aV2010-09-02
p28
asg21
Nsa(dp29
g7
V2010-09-03
p30
sg9
(dp31
g11
g12
(S'\x07\xda\t\x03'
tRp32
sg14
L82L
sg15
L0L
sg16
L1L
ssg17
(lp33
VCommonData
p34
aV2010-09-03
p35
asg21
Nsa(dp36
g7
V2010-09-04
p37
sg9
(dp38
g11
g12
(S'\x07\xda\t\x04'
tRp39
sg14
L82L
sg15
L1L
sg16
L1L
ssg17
(lp40
VCommonData
p41
aV2010-09-04
p42
asg21
Nsa(dp43
g7
V2010-09-05
p44
sg9
(dp45
g11
g12
(S'\x07\xda\t\x05'
tRp46
sg14
L80L
sg15
L1L
sg16
L8L
ssg17
(lp47
VCommonData
p48
aV2010-09-05
p49
asg21
Nsa(dp50
g7
V2010-09-06
p51
sg9
(dp52
g11
g12
(S'\x07\xda\t\x06'
tRp53
sg14
L76L
sg15
L2L
sg16
L11L
ssg17
(lp54
VCommonData
p55
aV2010-09-06
p56
asg21
Nsa(dp57
g7
V2010-09-07
p58
sg9
(dp59
g11
g12
(S'\x07\xda\t\x07'
tRp60
sg14
L75L
sg15
L2L
sg16
L8L
ssg17
(lp61
VCommonData
p62
aV2010-09-07
p63
asg21
Nsa(dp64
g7
V2010-09-08
p65
sg9
(dp66
g11
g12
(S'\x07\xda\t\x08'
tRp67
sg14
L74L
sg15
L1L
sg16
L6L
ssg17
(lp68
VCommonData
p69
aV2010-09-08
p70
asg21
Nsa(dp71
g7
V2010-09-09
p72
sg9
(dp73
g11
g12
(S'\x07\xda\t\t'
tRp74
sg14
L74L
sg15
L0L
sg16
L6L
ssg17
(lp75
VCommonData
p76
aV2010-09-09
p77
asg21
Nsa(dp78
g7
V2010-09-10
p79
sg9
(dp80
g11
g12
(S'\x07\xda\t\n'
tRp81
sg14
L78L
sg15
L0L
sg16
L2L
ssg17
(lp82
VCommonData
p83
aV2010-09-10
p84
asg21
Nsa(dp85
g7
V2010-09-11
p86
sg9
(dp87
g11
g12
(S'\x07\xda\t\x0b'
tRp88
sg14
L78L
sg15
L0L
sg16
L0L
ssg17
(lp89
VCommonData
p90
aV2010-09-11
p91
asg21
Nsa(dp92
g7
V2010-09-12
p93
sg9
(dp94
g11
g12
(S'\x07\xda\t\x0c'
tRp95
sg14
L80L
sg15
L1L
sg16
L2L
ssg17
(lp96
VCommonData
p97
aV2010-09-12
p98
asg21
Nsa(dp99
g7
V2010-09-13
p100
sg9
(dp101
g11
g12
(S'\x07\xda\t\r'
tRp102
sg14
L81L
sg15
L3L
sg16
L11L
ssg17
(lp103
VCommonData
p104
aV2010-09-13
p105
asg21
Nsa(dp106
g7
V2010-09-14
p107
sg9
(dp108
g11
g12
(S'\x07\xda\t\x0e'
tRp109
sg14
L81L
sg15
L1L
sg16
L6L
ssg17
(lp110
VCommonData
p111
aV2010-09-14
p112
asg21
Nsa(dp113
g7
V2010-09-15
p114
sg9
(dp115
g11
g12
(S'\x07\xda\t\x0f'
tRp116
sg14
L83L
sg15
L3L
sg16
L7L
ssg17
(lp117
VCommonData
p118
aV2010-09-15
p119
asg21
Nsa(dp120
g7
V2010-09-16
p121
sg9
(dp122
g11
g12
(S'\x07\xda\t\x10'
tRp123
sg14
L82L
sg15
L1L
sg16
L9L
ssg17
(lp124
VCommonData
p125
aV2010-09-16
p126
asg21
Nsa(dp127
g7
V2010-09-17
p128
sg9
(dp129
g11
g12
(S'\x07\xda\t\x11'
tRp130
sg14
L82L
sg15
L0L
sg16
L4L
ssg17
(lp131
VCommonData
p132
aV2010-09-17
p133
asg21
Nsa(dp134
g7
V2010-09-18
p135
sg9
(dp136
g11
g12
(S'\x07\xda\t\x12'
tRp137
sg14
L81L
sg15
L1L
sg16
L3L
ssg17
(lp138
VCommonData
p139
aV2010-09-18
p140
asg21
Nsa(dp141
g7
V2010-09-19
p142
sg9
(dp143
g11
g12
(S'\x07\xda\t\x13'
tRp144
sg14
L83L
sg15
L2L
sg16
L3L
ssg17
(lp145
VCommonData
p146
aV2010-09-19
p147
asg21
Nsa(dp148
g7
V2010-09-20
p149
sg9
(dp150
g11
g12
(S'\x07\xda\t\x14'
tRp151
sg14
L85L
sg15
L0L
sg16
L4L
ssg17
(lp152
VCommonData
p153
aV2010-09-20
p154
asg21
Nsa(dp155
g7
V2010-09-21
p156
sg9
(dp157
g11
g12
(S'\x07\xda\t\x15'
tRp158
sg14
L85L
sg15
L0L
sg16
L1L
ssg17
(lp159
VCommonData
p160
aV2010-09-21
p161
asg21
Nsa(dp162
g7
V2010-09-22
p163
sg9
(dp164
g11
g12
(S'\x07\xda\t\x16'
tRp165
sg14
L84L
sg15
L2L
sg16
L5L
ssg17
(lp166
VCommonData
p167
aV2010-09-22
p168
asg21
Nsa(dp169
g7
V2010-09-23
p170
sg9
(dp171
g11
g12
(S'\x07\xda\t\x17'
tRp172
sg14
L83L
sg15
L2L
sg16
L12L
ssg17
(lp173
VCommonData
p174
aV2010-09-23
p175
asg21
Nsa(dp176
g7
V2010-09-24
p177
sg9
(dp178
g11
g12
(S'\x07\xda\t\x18'
tRp179
sg14
L83L
sg15
L1L
sg16
L7L
ssg17
(lp180
VCommonData
p181
aV2010-09-24
p182
asg21
Nsa(dp183
g7
V2010-09-25
p184
sg9
(dp185
g11
g12
(S'\x07\xda\t\x19'
tRp186
sg14
L84L
sg15
L2L
sg16
L5L
ssg17
(lp187
VCommonData
p188
aV2010-09-25
p189
asg21
Nsa(dp190
g7
V2010-09-26
p191
sg9
(dp192
g11
g12
(S'\x07\xda\t\x1a'
tRp193
sg14
L83L
sg15
L2L
sg16
L7L
ssg17
(lp194
VCommonData
p195
aV2010-09-26
p196
asg21
Nsa(dp197
g7
V2010-09-27
p198
sg9
(dp199
g11
g12
(S'\x07\xda\t\x1b'
tRp200
sg14
L83L
sg15
L1L
sg16
L9L
ssg17
(lp201
VCommonData
p202
aV2010-09-27
p203
asg21
Nsa(dp204
g7
V2010-09-28
p205
sg9
(dp206
g11
g12
(S'\x07\xda\t\x1c'
tRp207
sg14
L91L
sg15
L1L
sg16
L4L
ssg17
(lp208
VCommonData
p209
aV2010-09-28
p210
asg21
Nsa(dp211
g7
V2010-09-29
p212
sg9
(dp213
g11
g12
(S'\x07\xda\t\x1d'
tRp214
sg14
L90L
sg15
L1L
sg16
L1L
ssg17
(lp215
VCommonData
p216
aV2010-09-29
p217
asg21
Nsa(dp218
g7
V2010-09-30
p219
sg9
(dp220
g11
g12
(S'\x07\xda\t\x1e'
tRp221
sg14
L87L
sg15
L0L
sg16
L1L
ssg17
(lp222
VCommonData
p223
aV2010-09-30
p224
asg21
Nsa(dp225
g7
V2010-10-01
p226
sg9
(dp227
g11
g12
(S'\x07\xda\n\x01'
tRp228
sg14
L85L
sg15
L0L
sg16
L1L
ssg17
(lp229
VCommonData
p230
aV2010-10-01
p231
asg21
Nsa(dp232
g7
V2010-10-02
p233
sg9
(dp234
g11
g12
(S'\x07\xda\n\x02'
tRp235
sg14
L80L
sg15
L0L
sg16
L1L
ssg17
(lp236
VCommonData
p237
aV2010-10-02
p238
asg21
Nsa(dp239
g7
V2010-10-03
p240
sg9
(dp241
g11
g12
(S'\x07\xda\n\x03'
tRp242
sg14
L76L
sg15
L1L
sg16
L2L
ssg17
(lp243
VCommonData
p244
aV2010-10-03
p245
asg21
Nsa(dp246
g7
V2010-10-04
p247
sg9
(dp248
g11
g12
(S'\x07\xda\n\x04'
tRp249
sg14
L75L
sg15
L1L
sg16
L6L
ssg17
(lp250
VCommonData
p251
aV2010-10-04
p252
asg21
Nsa(dp253
g7
V2010-10-05
p254
sg9
(dp255
g11
g12
(S'\x07\xda\n\x05'
tRp256
sg14
L74L
sg15
L1L
sg16
L6L
ssg17
(lp257
VCommonData
p258
aV2010-10-05
p259
asg21
Nsa(dp260
g7
V2010-10-06
p261
sg9
(dp262
g11
g12
(S'\x07\xda\n\x06'
tRp263
sg14
L75L
sg15
L0L
sg16
L4L
ssg17
(lp264
VCommonData
p265
aV2010-10-06
p266
asg21
Nsa(dp267
g7
V2010-10-07
p268
sg9
(dp269
g11
g12
(S'\x07\xda\n\x07'
tRp270
sg14
L75L
sg15
L0L
sg16
L3L
ssg17
(lp271
VCommonData
p272
aV2010-10-07
p273
asg21
Nsa(dp274
g7
V2010-10-08
p275
sg9
(dp276
g11
g12
(S'\x07\xda\n\x08'
tRp277
sg14
L76L
sg15
L0L
sg16
L3L
ssg17
(lp278
VCommonData
p279
aV2010-10-08
p280
asg21
Nsa(dp281
g7
V2010-10-09
p282
sg9
(dp283
g11
g12
(S'\x07\xda\n\t'
tRp284
sg14
L76L
sg15
L0L
sg16
L1L
ssg17
(lp285
VCommonData
p286
aV2010-10-09
p287
asg21
Nsa(dp288
g7
V2010-10-10
p289
sg9
(dp290
g11
g12
(S'\x07\xda\n\n'
tRp291
sg14
L75L
sg15
L2L
sg16
L15L
ssg17
(lp292
VCommonData
p293
aV2010-10-10
p294
asg21
Nsa(dp295
g7
V2010-10-11
p296
sg9
(dp297
g11
g12
(S'\x07\xda\n\x0b'
tRp298
sg14
L75L
sg15
L2L
sg16
L9L
ssg17
(lp299
VCommonData
p300
aV2010-10-11
p301
asg21
Nsa(dp302
g7
V2010-10-12
p303
sg9
(dp304
g11
g12
(S'\x07\xda\n\x0c'
tRp305
sg14
L78L
sg15
L1L
sg16
L5L
ssg17
(lp306
VCommonData
p307
aV2010-10-12
p308
asg21
Nsa(dp309
g7
V2010-10-13
p310
sg9
(dp311
g11
g12
(S'\x07\xda\n\r'
tRp312
sg14
L80L
sg15
L0L
sg16
L1L
ssg17
(lp313
VCommonData
p314
aV2010-10-13
p315
asg21
Nsa(dp316
g7
V2010-10-14
p317
sg9
(dp318
g11
g12
(S'\x07\xda\n\x0e'
tRp319
sg14
L82L
sg15
L1L
sg16
L4L
ssg17
(lp320
VCommonData
p321
aV2010-10-14
p322
asg21
Nsa(dp323
g7
V2010-10-15
p324
sg9
(dp325
g11
g12
(S'\x07\xda\n\x0f'
tRp326
sg14
L87L
sg15
L2L
sg16
L4L
ssg17
(lp327
VCommonData
p328
aV2010-10-15
p329
asg21
Nsa(dp330
g7
V2010-10-16
p331
sg9
(dp332
g11
g12
(S'\x07\xda\n\x10'
tRp333
sg14
L84L
sg15
L2L
sg16
L13L
ssg17
(lp334
VCommonData
p335
aV2010-10-16
p336
asg21
Nsa(dp337
g7
V2010-10-17
p338
sg9
(dp339
g11
g12
(S'\x07\xda\n\x11'
tRp340
sg14
L91L
sg15
L1L
sg16
L5L
ssg17
(lp341
VCommonData
p342
aV2010-10-17
p343
asg21
Nsa(dp344
g7
V2010-10-18
p345
sg9
(dp346
g11
g12
(S'\x07\xda\n\x12'
tRp347
sg14
L87L
sg15
L1L
sg16
L7L
ssg17
(lp348
VCommonData
p349
aV2010-10-18
p350
asg21
Nsa(dp351
g7
V2010-10-19
p352
sg9
(dp353
g11
g12
(S'\x07\xda\n\x13'
tRp354
sg14
L84L
sg15
L1L
sg16
L3L
ssg17
(lp355
VCommonData
p356
aV2010-10-19
p357
asg21
Nsa(dp358
g7
V2010-10-20
p359
sg9
(dp360
g11
g12
(S'\x07\xda\n\x14'
tRp361
sg14
L84L
sg15
L1L
sg16
L3L
ssg17
(lp362
VCommonData
p363
aV2010-10-20
p364
asg21
Nsa(dp365
g7
V2010-10-21
p366
sg9
(dp367
g11
g12
(S'\x07\xda\n\x15'
tRp368
sg14
L82L
sg15
L3L
sg16
L9L
ssg17
(lp369
VCommonData
p370
aV2010-10-21
p371
asg21
Nsa(dp372
g7
V2010-10-22
p373
sg9
(dp374
g11
g12
(S'\x07\xda\n\x16'
tRp375
sg14
L84L
sg15
L2L
sg16
L19L
ssg17
(lp376
VCommonData
p377
aV2010-10-22
p378
asg21
Nsa(dp379
g7
V2010-10-23
p380
sg9
(dp381
g11
g12
(S'\x07\xda\n\x17'
tRp382
sg14
L82L
sg15
L3L
sg16
L17L
ssg17
(lp383
VCommonData
p384
aV2010-10-23
p385
asg21
Nsa(dp386
g7
V2010-10-24
p387
sg9
(dp388
g11
g12
(S'\x07\xda\n\x18'
tRp389
sg14
L86L
sg15
L2L
sg16
L6L
ssg17
(lp390
VCommonData
p391
aV2010-10-24
p392
asg21
Nsa(dp393
g7
V2010-10-25
p394
sg9
(dp395
g11
g12
(S'\x07\xda\n\x19'
tRp396
sg14
L86L
sg15
L2L
sg16
L9L
ssg17
(lp397
VCommonData
p398
aV2010-10-25
p399
asg21
Nsa(dp400
g7
V2010-10-26
p401
sg9
(dp402
g11
g12
(S'\x07\xda\n\x1a'
tRp403
sg14
L88L
sg15
L2L
sg16
L5L
ssg17
(lp404
VCommonData
p405
aV2010-10-26
p406
asg21
Nsa(dp407
g7
V2010-10-27
p408
sg9
(dp409
g11
g12
(S'\x07\xda\n\x1b'
tRp410
sg14
L86L
sg15
L1L
sg16
L3L
ssg17
(lp411
VCommonData
p412
aV2010-10-27
p413
asg21
Nsa(dp414
g7
V2010-10-28
p415
sg9
(dp416
g11
g12
(S'\x07\xda\n\x1c'
tRp417
sg14
L86L
sg15
L0L
sg16
L3L
ssg17
(lp418
VCommonData
p419
aV2010-10-28
p420
asg21
Nsa(dp421
g7
V2010-10-29
p422
sg9
(dp423
g11
g12
(S'\x07\xda\n\x1d'
tRp424
sg14
L85L
sg15
L0L
sg16
L3L
ssg17
(lp425
VCommonData
p426
aV2010-10-29
p427
asg21
Nsa(dp428
g7
V2010-10-30
p429
sg9
(dp430
g11
g12
(S'\x07\xda\n\x1e'
tRp431
sg14
L81L
sg15
L1L
sg16
L4L
ssg17
(lp432
VCommonData
p433
aV2010-10-30
p434
asg21
Nsa(dp435
g7
V2010-10-31
p436
sg9
(dp437
g11
g12
(S'\x07\xda\n\x1f'
tRp438
sg14
L79L
sg15
L1L
sg16
L2L
ssg17
(lp439
VCommonData
p440
aV2010-10-31
p441
asg21
Nsa(dp442
g7
V2010-11-01
p443
sg9
(dp444
g11
g12
(S'\x07\xda\x0b\x01'
tRp445
sg14
L79L
sg15
L0L
sg16
L3L
ssg17
(lp446
VCommonData
p447
aV2010-11-01
p448
asg21
Nsa(dp449
g7
V2010-11-02
p450
sg9
(dp451
g11
g12
(S'\x07\xda\x0b\x02'
tRp452
sg14
L79L
sg15
L1L
sg16
L4L
ssg17
(lp453
VCommonData
p454
aV2010-11-02
p455
asg21
Nsa(dp456
g7
V2010-11-03
p457
sg9
(dp458
g11
g12
(S'\x07\xda\x0b\x03'
tRp459
sg14
L79L
sg15
L0L
sg16
L4L
ssg17
(lp460
VCommonData
p461
aV2010-11-03
p462
asg21
Nsa(dp463
g7
V2010-11-04
p464
sg9
(dp465
g11
g12
(S'\x07\xda\x0b\x04'
tRp466
sg14
L83L
sg15
L1L
sg16
L4L
ssg17
(lp467
VCommonData
p468
aV2010-11-04
p469
asg21
Nsa(dp470
g7
V2010-11-05
p471
sg9
(dp472
g11
g12
(S'\x07\xda\x0b\x05'
tRp473
sg14
L89L
sg15
L1L
sg16
L2L
ssg17
(lp474
VCommonData
p475
aV2010-11-05
p476
asg21
Nsa(dp477
g7
V2010-11-06
p478
sg9
(dp479
g11
g12
(S'\x07\xda\x0b\x06'
tRp480
sg14
L85L
sg15
L1L
sg16
L2L
ssg17
(lp481
VCommonData
p482
aV2010-11-06
p483
asg21
Nsa(dp484
g7
V2010-11-07
p485
sg9
(dp486
g11
g12
(S'\x07\xda\x0b\x07'
tRp487
sg14
L84L
sg15
L1L
sg16
L2L
ssg17
(lp488
VCommonData
p489
aV2010-11-07
p490
asg21
Nsa(dp491
g7
V2010-11-08
p492
sg9
(dp493
g11
g12
(S'\x07\xda\x0b\x08'
tRp494
sg14
L84L
sg15
L0L
sg16
L2L
ssg17
(lp495
VCommonData
p496
aV2010-11-08
p497
asg21
Nsa(dp498
g7
V2010-11-09
p499
sg9
(dp500
g11
g12
(S'\x07\xda\x0b\t'
tRp501
sg14
L86L
sg15
L2L
sg16
L1L
ssg17
(lp502
VCommonData
p503
aV2010-11-09
p504
asg21
Nsa(dp505
g7
V2010-11-10
p506
sg9
(dp507
g11
g12
(S'\x07\xda\x0b\n'
tRp508
sg14
L85L
sg15
L2L
sg16
L10L
ssg17
(lp509
VCommonData
p510
aV2010-11-10
p511
asg21
Nsa(dp512
g7
V2010-11-11
p513
sg9
(dp514
g11
g12
(S'\x07\xda\x0b\x0b'
tRp515
sg14
L85L
sg15
L1L
sg16
L10L
ssg17
(lp516
VCommonData
p517
aV2010-11-11
p518
asg21
Nsa(dp519
g7
V2010-11-12
p520
sg9
(dp521
g11
g12
(S'\x07\xda\x0b\x0c'
tRp522
sg14
L85L
sg15
L1L
sg16
L6L
ssg17
(lp523
VCommonData
p524
aV2010-11-12
p525
asg21
Nsa(dp526
g7
V2010-11-13
p527
sg9
(dp528
g11
g12
(S'\x07\xda\x0b\r'
tRp529
sg14
L86L
sg15
L2L
sg16
L6L
ssg17
(lp530
VCommonData
p531
aV2010-11-13
p532
asg21
Nsa(dp533
g7
V2010-11-14
p534
sg9
(dp535
g11
g12
(S'\x07\xda\x0b\x0e'
tRp536
sg14
L91L
sg15
L1L
sg16
L6L
ssg17
(lp537
VCommonData
p538
aV2010-11-14
p539
asg21
Nsa(dp540
g7
V2010-11-15
p541
sg9
(dp542
g11
g12
(S'\x07\xda\x0b\x0f'
tRp543
sg14
L92L
sg15
L1L
sg16
L4L
ssg17
(lp544
VCommonData
p545
aV2010-11-15
p546
asg21
Nsa(dp547
g7
V2010-11-16
p548
sg9
(dp549
g11
g12
(S'\x07\xda\x0b\x10'
tRp550
sg14
L91L
sg15
L1L
sg16
L4L
ssg17
(lp551
VCommonData
p552
aV2010-11-16
p553
asg21
Nsa(dp554
g7
V2010-11-17
p555
sg9
(dp556
g11
g12
(S'\x07\xda\x0b\x11'
tRp557
sg14
L87L
sg15
L1L
sg16
L5L
ssg17
(lp558
VCommonData
p559
aV2010-11-17
p560
asg21
Nsa(dp561
g7
V2010-11-18
p562
sg9
(dp563
g11
g12
(S'\x07\xda\x0b\x12'
tRp564
sg14
L84L
sg15
L0L
sg16
L2L
ssg17
(lp565
VCommonData
p566
aV2010-11-18
p567
asg21
Nsa(dp568
g7
V2010-11-19
p569
sg9
(dp570
g11
g12
(S'\x07\xda\x0b\x13'
tRp571
sg14
L80L
sg15
L1L
sg16
L2L
ssg17
(lp572
VCommonData
p573
aV2010-11-19
p574
asg21
Nsa(dp575
g7
V2010-11-20
p576
sg9
(dp577
g11
g12
(S'\x07\xda\x0b\x14'
tRp578
sg14
L78L
sg15
L1L
sg16
L3L
ssg17
(lp579
VCommonData
p580
aV2010-11-20
p581
asg21
Nsa(dp582
g7
V2010-11-21
p583
sg9
(dp584
g11
g12
(S'\x07\xda\x0b\x15'
tRp585
sg14
L75L
sg15
L1L
sg16
L5L
ssg17
(lp586
VCommonData
p587
aV2010-11-21
p588
asg21
Nsa(dp589
g7
V2010-11-22
p590
sg9
(dp591
g11
g12
(S'\x07\xda\x0b\x16'
tRp592
sg14
L75L
sg15
L2L
sg16
L6L
ssg17
(lp593
VCommonData
p594
aV2010-11-22
p595
asg21
Nsa(dp596
g7
V2010-11-23
p597
sg9
(dp598
g11
g12
(S'\x07\xda\x0b\x17'
tRp599
sg14
L76L
sg15
L2L
sg16
L5L
ssg17
(lp600
VCommonData
p601
aV2010-11-23
p602
asg21
Nsa(dp603
g7
V2010-11-24
p604
sg9
(dp605
g11
g12
(S'\x07\xda\x0b\x18'
tRp606
sg14
L78L
sg15
L1L
sg16
L3L
ssg17
(lp607
VCommonData
p608
aV2010-11-24
p609
asg21
Nsa(dp610
g7
V2010-11-25
p611
sg9
(dp612
g11
g12
(S'\x07\xda\x0b\x19'
tRp613
sg14
L76L
sg15
L1L
sg16
L1L
ssg17
(lp614
VCommonData
p615
aV2010-11-25
p616
asg21
Nsa(dp617
g7
V2010-11-26
p618
sg9
(dp619
g11
g12
(S'\x07\xda\x0b\x1a'
tRp620
sg14
L77L
sg15
L4L
sg16
L3L
ssg17
(lp621
VCommonData
p622
aV2010-11-26
p623
asg21
Nsa(dp624
g7
V2010-11-27
p625
sg9
(dp626
g11
g12
(S'\x07\xda\x0b\x1b'
tRp627
sg14
L80L
sg15
L2L
sg16
L7L
ssg17
(lp628
VCommonData
p629
aV2010-11-27
p630
asg21
Nsa(dp631
g7
V2010-11-28
p632
sg9
(dp633
g11
g12
(S'\x07\xda\x0b\x1c'
tRp634
sg14
L83L
sg15
L1L
sg16
L3L
ssg17
(lp635
VCommonData
p636
aV2010-11-28
p637
asg21
Nsa(dp638
g7
V2010-11-29
p639
sg9
(dp640
g11
g12
(S'\x07\xda\x0b\x1d'
tRp641
sg14
L86L
sg15
L1L
sg16
L3L
ssg17
(lp642
VCommonData
p643
aV2010-11-29
p644
asg21
Nsa(dp645
g7
V2010-11-30
p646
sg9
(dp647
g11
g12
(S'\x07\xda\x0b\x1e'
tRp648
sg14
L87L
sg15
L1L
sg16
L2L
ssg17
(lp649
VCommonData
p650
aV2010-11-30
p651
asg21
Nsa(dp652
g7
V2010-12-01
p653
sg9
(dp654
g11
g12
(S'\x07\xda\x0c\x01'
tRp655
sg14
L87L
sg15
L1L
sg16
L1L
ssg17
(lp656
VCommonData
p657
aV2010-12-01
p658
asg21
Nsa(dp659
g7
V2010-12-02
p660
sg9
(dp661
g11
g12
(S'\x07\xda\x0c\x02'
tRp662
sg14
L87L
sg15
L0L
sg16
L1L
ssg17
(lp663
VCommonData
p664
aV2010-12-02
p665
asg21
Nsa(dp666
g7
V2010-12-03
p667
sg9
(dp668
g11
g12
(S'\x07\xda\x0c\x03'
tRp669
sg14
L87L
sg15
L1L
sg16
L1L
ssg17
(lp670
VCommonData
p671
aV2010-12-03
p672
asg21
Nsa(dp673
g7
V2010-12-04
p674
sg9
(dp675
g11
g12
(S'\x07\xda\x0c\x04'
tRp676
sg14
L88L
sg15
L0L
sg16
L1L
ssg17
(lp677
VCommonData
p678
aV2010-12-04
p679
asg21
Nsa(dp680
g7
V2010-12-05
p681
sg9
(dp682
g11
g12
(S'\x07\xda\x0c\x05'
tRp683
sg14
L89L
sg15
L2L
sg16
L3L
ssg17
(lp684
VCommonData
p685
aV2010-12-05
p686
asg21
Nsa(dp687
g7
V2010-12-06
p688
sg9
(dp689
g11
g12
(S'\x07\xda\x0c\x06'
tRp690
sg14
L87L
sg15
L1L
sg16
L4L
ssg17
(lp691
VCommonData
p692
aV2010-12-06
p693
asg21
Nsa(dp694
g7
V2010-12-07
p695
sg9
(dp696
g11
g12
(S'\x07\xda\x0c\x07'
tRp697
sg14
L87L
sg15
L2L
sg16
L4L
ssg17
(lp698
VCommonData
p699
aV2010-12-07
p700
asg21
Nsa(dp701
g7
V2010-12-08
p702
sg9
(dp703
g11
g12
(S'\x07\xda\x0c\x08'
tRp704
sg14
L87L
sg15
L1L
sg16
L3L
ssg17
(lp705
VCommonData
p706
aV2010-12-08
p707
asg21
Nsa(dp708
g7
V2010-12-09
p709
sg9
(dp710
g11
g12
(S'\x07\xda\x0c\t'
tRp711
sg14
L88L
sg15
L1L
sg16
L6L
ssg17
(lp712
VCommonData
p713
aV2010-12-09
p714
asg21
Nsa(dp715
g7
V2010-12-10
p716
sg9
(dp717
g11
g12
(S'\x07\xda\x0c\n'
tRp718
sg14
L87L
sg15
L0L
sg16
L3L
ssg17
(lp719
VCommonData
p720
aV2010-12-10
p721
asg21
Nsa(dp722
g7
V2010-12-11
p723
sg9
(dp724
g11
g12
(S'\x07\xda\x0c\x0b'
tRp725
sg14
L89L
sg15
L2L
sg16
L7L
ssg17
(lp726
VCommonData
p727
aV2010-12-11
p728
asg21
Nsa(dp729
g7
V2010-12-12
p730
sg9
(dp731
g11
g12
(S'\x07\xda\x0c\x0c'
tRp732
sg14
L88L
sg15
L1L
sg16
L7L
ssg17
(lp733
VCommonData
p734
aV2010-12-12
p735
asg21
Nsa(dp736
g7
V2010-12-13
p737
sg9
(dp738
g11
g12
(S'\x07\xda\x0c\r'
tRp739
sg14
L90L
sg15
L2L
sg16
L10L
ssg17
(lp740
VCommonData
p741
aV2010-12-13
p742
asg21
Nsa(dp743
g7
V2010-12-14
p744
sg9
(dp745
g11
g12
(S'\x07\xda\x0c\x0e'
tRp746
sg14
L87L
sg15
L1L
sg16
L11L
ssg17
(lp747
VCommonData
p748
aV2010-12-14
p749
asg21
Nsa(dp750
g7
V2010-12-15
p751
sg9
(dp752
g11
g12
(S'\x07\xda\x0c\x0f'
tRp753
sg14
L84L
sg15
L2L
sg16
L4L
ssg17
(lp754
VCommonData
p755
aV2010-12-15
p756
asg21
Nsa(dp757
g7
V2010-12-16
p758
sg9
(dp759
g11
g12
(S'\x07\xda\x0c\x10'
tRp760
sg14
L82L
sg15
L2L
sg16
L4L
ssg17
(lp761
VCommonData
p762
aV2010-12-16
p763
asg21
Nsa(dp764
g7
V2010-12-17
p765
sg9
(dp766
g11
g12
(S'\x07\xda\x0c\x11'
tRp767
sg14
L81L
sg15
L1L
sg16
L3L
ssg17
(lp768
VCommonData
p769
aV2010-12-17
p770
asg21
Nsa(dp771
g7
V2010-12-18
p772
sg9
(dp773
g11
g12
(S'\x07\xda\x0c\x12'
tRp774
sg14
L81L
sg15
L1L
sg16
L2L
ssg17
(lp775
VCommonData
p776
aV2010-12-18
p777
asg21
Nsa(dp778
g7
V2010-12-19
p779
sg9
(dp780
g11
g12
(S'\x07\xda\x0c\x13'
tRp781
sg14
L78L
sg15
L2L
sg16
L7L
ssg17
(lp782
VCommonData
p783
aV2010-12-19
p784
asg21
Nsa(dp785
g7
V2010-12-20
p786
sg9
(dp787
g11
g12
(S'\x07\xda\x0c\x14'
tRp788
sg14
L78L
sg15
L0L
sg16
L2L
ssg17
(lp789
VCommonData
p790
aV2010-12-20
p791
asg21
Nsa(dp792
g7
V2010-12-21
p793
sg9
(dp794
g11
g12
(S'\x07\xda\x0c\x15'
tRp795
sg14
L78L
sg15
L0L
sg16
L1L
ssg17
(lp796
VCommonData
p797
aV2010-12-21
p798
asg21
Nsa(dp799
g7
V2010-12-22
p800
sg9
(dp801
g11
g12
(S'\x07\xda\x0c\x16'
tRp802
sg14
L80L
sg15
L0L
sg16
L1L
ssg17
(lp803
VCommonData
p804
aV2010-12-22
p805
asg21
Nsa(dp806
g7
V2010-12-23
p807
sg9
(dp808
g11
g12
(S'\x07\xda\x0c\x17'
tRp809
sg14
L79L
sg15
L1L
sg16
L4L
ssg17
(lp810
VCommonData
p811
aV2010-12-23
p812
asg21
Nsa(dp813
g7
V2010-12-24
p814
sg9
(dp815
g11
g12
(S'\x07\xda\x0c\x18'
tRp816
sg14
L79L
sg15
L2L
sg16
L5L
ssg17
(lp817
VCommonData
p818
aV2010-12-24
p819
asg21
Nsa(dp820
g7
V2010-12-25
p821
sg9
(dp822
g11
g12
(S'\x07\xda\x0c\x19'
tRp823
sg14
L81L
sg15
L2L
sg16
L3L
ssg17
(lp824
VCommonData
p825
aV2010-12-25
p826
asg21
Nsa(dp827
g7
V2010-12-26
p828
sg9
(dp829
g11
g12
(S'\x07\xda\x0c\x1a'
tRp830
sg14
L80L
sg15
L1L
sg16
L3L
ssg17
(lp831
VCommonData
p832
aV2010-12-26
p833
asg21
Nsa(dp834
g7
V2010-12-27
p835
sg9
(dp836
g11
g12
(S'\x07\xda\x0c\x1b'
tRp837
sg14
L81L
sg15
L3L
sg16
L15L
ssg17
(lp838
VCommonData
p839
aV2010-12-27
p840
asg21
Nsa(dp841
g7
V2010-12-28
p842
sg9
(dp843
g11
g12
(S'\x07\xda\x0c\x1c'
tRp844
sg14
L83L
sg15
L2L
sg16
L5L
ssg17
(lp845
VCommonData
p846
aV2010-12-28
p847
asg21
Nsa(dp848
g7
V2010-12-29
p849
sg9
(dp850
g11
g12
(S'\x07\xda\x0c\x1d'
tRp851
sg14
L83L
sg15
L1L
sg16
L5L
ssg17
(lp852
VCommonData
p853
aV2010-12-29
p854
asg21
Nsa(dp855
g7
V2010-12-30
p856
sg9
(dp857
g11
g12
(S'\x07\xda\x0c\x1e'
tRp858
sg14
L91L
sg15
L1L
sg16
L4L
ssg17
(lp859
VCommonData
p860
aV2010-12-30
p861
asg21
Nsa(dp862
g7
V2010-12-31
p863
sg9
(dp864
g11
g12
(S'\x07\xda\x0c\x1f'
tRp865
sg14
L91L
sg15
L1L
sg16
L4L
ssg17
(lp866
VCommonData
p867
aV2010-12-31
p868
asg21
Nsa(dp869
g7
V2011-01-01
p870
sg9
(dp871
g11
g12
(S'\x07\xdb\x01\x01'
tRp872
sg14
L91L
sg15
L1L
sg16
L2L
ssg17
(lp873
VCommonData
p874
aV2011-01-01
p875
asg21
Nsa(dp876
g7
V2011-01-02
p877
sg9
(dp878
g11
g12
(S'\x07\xdb\x01\x02'
tRp879
sg14
L92L
sg15
L2L
sg16
L3L
ssg17
(lp880
VCommonData
p881
aV2011-01-02
p882
asg21
Nsa(dp883
g7
V2011-01-03
p884
sg9
(dp885
g11
g12
(S'\x07\xdb\x01\x03'
tRp886
sg14
L91L
sg15
L2L
sg16
L6L
ssg17
(lp887
VCommonData
p888
aV2011-01-03
p889
asg21
Nsa(dp890
g7
V2011-01-04
p891
sg9
(dp892
g11
g12
(S'\x07\xdb\x01\x04'
tRp893
sg14
L88L
sg15
L1L
sg16
L4L
ssg17
(lp894
VCommonData
p895
aV2011-01-04
p896
asg21
Nsa(dp897
g7
V2011-01-05
p898
sg9
(dp899
g11
g12
(S'\x07\xdb\x01\x05'
tRp900
sg14
L87L
sg15
L1L
sg16
L5L
ssg17
(lp901
VCommonData
p902
aV2011-01-05
p903
asg21
Nsa(dp904
g7
V2011-01-06
p905
sg9
(dp906
g11
g12
(S'\x07\xdb\x01\x06'
tRp907
sg14
L86L
sg15
L2L
sg16
L10L
ssg17
(lp908
VCommonData
p909
aV2011-01-06
p910
asg21
Nsa(dp911
g7
V2011-01-07
p912
sg9
(dp913
g11
g12
(S'\x07\xdb\x01\x07'
tRp914
sg14
L85L
sg15
L2L
sg16
L8L
ssg17
(lp915
VCommonData
p916
aV2011-01-07
p917
asg21
Nsa(dp918
g7
V2011-01-08
p919
sg9
(dp920
g11
g12
(S'\x07\xdb\x01\x08'
tRp921
sg14
L85L
sg15
L0L
sg16
L8L
ssg17
(lp922
VCommonData
p923
aV2011-01-08
p924
asg21
Nsa(dp925
g7
V2011-01-09
p926
sg9
(dp927
g11
g12
(S'\x07\xdb\x01\t'
tRp928
sg14
L85L
sg15
L0L
sg16
L8L
ssg17
(lp929
VCommonData
p930
aV2011-01-09
p931
asg21
Nsa(dp932
g7
V2011-01-11
p933
sg9
(dp934
g11
g12
(S'\x07\xdb\x01\x0b'
tRp935
sg14
L80L
sg15
L2L
sg16
L7L
ssg17
(lp936
VCommonData
p937
aV2011-01-11
p938
asg21
Nsa(dp939
g7
V2011-01-12
p940
sg9
(dp941
g11
g12
(S'\x07\xdb\x01\x0c'
tRp942
sg14
L80L
sg15
L2L
sg16
L5L
ssg17
(lp943
VCommonData
p944
aV2011-01-12
p945
asg21
Nsa(dp946
g7
V2011-01-13
p947
sg9
(dp948
g11
g12
(S'\x07\xdb\x01\r'
tRp949
sg14
L79L
sg15
L2L
sg16
L7L
ssg17
(lp950
VCommonData
p951
aV2011-01-13
p952
asg21
Nsa(dp953
g7
V2011-01-14
p954
sg9
(dp955
g11
g12
(S'\x07\xdb\x01\x0e'
tRp956
sg14
L80L
sg15
L1L
sg16
L7L
ssg17
(lp957
VCommonData
p958
aV2011-01-14
p959
asg21
Nsa(dp960
g7
V2011-01-15
p961
sg9
(dp962
g11
g12
(S'\x07\xdb\x01\x0f'
tRp963
sg14
L80L
sg15
L1L
sg16
L4L
ssg17
(lp964
VCommonData
p965
aV2011-01-15
p966
asg21
Nsa(dp967
g7
V2011-01-16
p968
sg9
(dp969
g11
g12
(S'\x07\xdb\x01\x10'
tRp970
sg14
L82L
sg15
L1L
sg16
L5L
ssg17
(lp971
VCommonData
p972
aV2011-01-16
p973
asg21
Nsa(dp974
g7
V2011-01-17
p975
sg9
(dp976
g11
g12
(S'\x07\xdb\x01\x11'
tRp977
sg14
L81L
sg15
L2L
sg16
L4L
ssg17
(lp978
VCommonData
p979
aV2011-01-17
p980
asg21
Nsa(dp981
g7
V2011-01-18
p982
sg9
(dp983
g11
g12
(S'\x07\xdb\x01\x12'
tRp984
sg14
L81L
sg15
L2L
sg16
L8L
ssg17
(lp985
VCommonData
p986
aV2011-01-18
p987
asg21
Nsa(dp988
g7
V2011-01-19
p989
sg9
(dp990
g11
g12
(S'\x07\xdb\x01\x13'
tRp991
sg14
L82L
sg15
L1L
sg16
L5L
ssg17
(lp992
VCommonData
p993
aV2011-01-19
p994
asg21
Nsa(dp995
g7
V2011-01-20
p996
sg9
(dp997
g11
g12
(S'\x07\xdb\x01\x14'
tRp998
sg14
L88L
sg15
L1L
sg16
L3L
ssg17
(lp999
VCommonData
p1000
aV2011-01-20
p1001
asg21
Nsa(dp1002
g7
V2011-01-21
p1003
sg9
(dp1004
g11
g12
(S'\x07\xdb\x01\x15'
tRp1005
sg14
L88L
sg15
L1L
sg16
L4L
ssg17
(lp1006
VCommonData
p1007
aV2011-01-21
p1008
asg21
Nsa(dp1009
g7
V2011-01-22
p1010
sg9
(dp1011
g11
g12
(S'\x07\xdb\x01\x16'
tRp1012
sg14
L84L
sg15
L0L
sg16
L1L
ssg17
(lp1013
VCommonData
p1014
aV2011-01-22
p1015
asg21
Nsa(dp1016
g7
V2011-01-23
p1017
sg9
(dp1018
g11
g12
(S'\x07\xdb\x01\x17'
tRp1019
sg14
L83L
sg15
L1L
sg16
L3L
ssg17
(lp1020
VCommonData
p1021
aV2011-01-23
p1022
asg21
Nsa(dp1023
g7
V2011-01-24
p1024
sg9
(dp1025
g11
g12
(S'\x07\xdb\x01\x18'
tRp1026
sg14
L81L
sg15
L1L
sg16
L5L
ssg17
(lp1027
VCommonData
p1028
aV2011-01-24
p1029
asg21
Nsa(dp1030
g7
V2011-01-25
p1031
sg9
(dp1032
g11
g12
(S'\x07\xdb\x01\x19'
tRp1033
sg14
L80L
sg15
L2L
sg16
L3L
ssg17
(lp1034
VCommonData
p1035
aV2011-01-25
p1036
asg21
Nsa(dp1037
g7
V2011-01-26
p1038
sg9
(dp1039
g11
g12
(S'\x07\xdb\x01\x1a'
tRp1040
sg14
L81L
sg15
L2L
sg16
L3L
ssg17
(lp1041
VCommonData
p1042
aV2011-01-26
p1043
asg21
Nsa(dp1044
g7
V2011-01-27
p1045
sg9
(dp1046
g11
g12
(S'\x07\xdb\x01\x1b'
tRp1047
sg14
L81L
sg15
L2L
sg16
L4L
ssg17
(lp1048
VCommonData
p1049
aV2011-01-27
p1050
asg21
Nsa(dp1051
g7
V2011-01-28
p1052
sg9
(dp1053
g11
g12
(S'\x07\xdb\x01\x1c'
tRp1054
sg14
L81L
sg15
L0L
sg16
L5L
ssg17
(lp1055
VCommonData
p1056
aV2011-01-28
p1057
asg21
Nsa(dp1058
g7
V2011-01-29
p1059
sg9
(dp1060
g11
g12
(S'\x07\xdb\x01\x1d'
tRp1061
sg14
L83L
sg15
L1L
sg16
L2L
ssg17
(lp1062
VCommonData
p1063
aV2011-01-29
p1064
asg21
Nsa(dp1065
g7
V2011-01-30
p1066
sg9
(dp1067
g11
g12
(S'\x07\xdb\x01\x1e'
tRp1068
sg14
L81L
sg15
L3L
sg16
L5L
ssg17
(lp1069
VCommonData
p1070
aV2011-01-30
p1071
asg21
Nsa(dp1072
g7
V2011-01-31
p1073
sg9
(dp1074
g11
g12
(S'\x07\xdb\x01\x1f'
tRp1075
sg14
L80L
sg15
L2L
sg16
L11L
ssg17
(lp1076
VCommonData
p1077
aV2011-01-31
p1078
asg21
Nsa(dp1079
g7
V2011-02-01
p1080
sg9
(dp1081
g11
g12
(S'\x07\xdb\x02\x01'
tRp1082
sg14
L79L
sg15
L0L
sg16
L8L
ssg17
(lp1083
VCommonData
p1084
aV2011-02-01
p1085
asg21
Nsa(dp1086
g7
V2011-02-02
p1087
sg9
(dp1088
g11
g12
(S'\x07\xdb\x02\x02'
tRp1089
sg14
L80L
sg15
L0L
sg16
L3L
ssg17
(lp1090
VCommonData
p1091
aV2011-02-02
p1092
asg21
Nsa(dp1093
g7
V2011-02-03
p1094
sg9
(dp1095
g11
g12
(S'\x07\xdb\x02\x03'
tRp1096
sg14
L82L
sg15
L4L
sg16
L10L
ssg17
(lp1097
VCommonData
p1098
aV2011-02-03
p1099
asg21
Nsa(dp1100
g7
V2011-02-04
p1101
sg9
(dp1102
g11
g12
(S'\x07\xdb\x02\x04'
tRp1103
sg14
L81L
sg15
L3L
sg16
L15L
ssg17
(lp1104
VCommonData
p1105
aV2011-02-04
p1106
asg21
Nsa(dp1107
g7
V2011-02-05
p1108
sg9
(dp1109
g11
g12
(S'\x07\xdb\x02\x05'
tRp1110
sg14
L80L
sg15
L2L
sg16
L8L
ssg17
(lp1111
VCommonData
p1112
aV2011-02-05
p1113
asg21
Nsa(dp1114
g7
V2011-02-06
p1115
sg9
(dp1116
g11
g12
(S'\x07\xdb\x02\x06'
tRp1117
sg14
L82L
sg15
L2L
sg16
L5L
ssg17
(lp1118
VCommonData
p1119
aV2011-02-06
p1120
asg21
Nsa(dp1121
g7
V2011-02-07
p1122
sg9
(dp1123
g11
g12
(S'\x07\xdb\x02\x07'
tRp1124
sg14
L90L
sg15
L1L
sg16
L5L
ssg17
(lp1125
VCommonData
p1126
aV2011-02-07
p1127
asg21
Nsa(dp1128
g7
V2011-02-08
p1129
sg9
(dp1130
g11
g12
(S'\x07\xdb\x02\x08'
tRp1131
sg14
L89L
sg15
L0L
sg16
L2L
ssg17
(lp1132
VCommonData
p1133
aV2011-02-08
p1134
asg21
Nsa(dp1135
g7
V2011-02-09
p1136
sg9
(dp1137
g11
g12
(S'\x07\xdb\x02\t'
tRp1138
sg14
L91L
sg15
L1L
sg16
L3L
ssg17
(lp1139
VCommonData
p1140
aV2011-02-09
p1141
asg21
Nsa(dp1142
g7
V2011-02-10
p1143
sg9
(dp1144
g11
g12
(S'\x07\xdb\x02\n'
tRp1145
sg14
L91L
sg15
L2L
sg16
L3L
ssg17
(lp1146
VCommonData
p1147
aV2011-02-10
p1148
asg21
Nsa(dp1149
g7
V2011-02-11
p1150
sg9
(dp1151
g11
g12
(S'\x07\xdb\x02\x0b'
tRp1152
sg14
L96L
sg15
L1L
sg16
L5L
ssg17
(lp1153
VCommonData
p1154
aV2011-02-11
p1155
asg21
Nsa(dp1156
g7
V2011-02-12
p1157
sg9
(dp1158
g11
g12
(S'\x07\xdb\x02\x0c'
tRp1159
sg14
L107L
sg15
L0L
sg16
L2L
ssg17
(lp1160
VCommonData
p1161
aV2011-02-12
p1162
asg21
Nsa(dp1163
g7
V2011-02-13
p1164
sg9
(dp1165
g11
g12
(S'\x07\xdb\x02\r'
tRp1166
sg14
L113L
sg15
L4L
sg16
L7L
ssg17
(lp1167
VCommonData
p1168
aV2011-02-13
p1169
asg21
Nsa(dp1170
g7
V2011-02-14
p1171
sg9
(dp1172
g11
g12
(S'\x07\xdb\x02\x0e'
tRp1173
sg14
L113L
sg15
L2L
sg16
L8L
ssg17
(lp1174
VCommonData
p1175
aV2011-02-14
p1176
asg21
Nsa(dp1177
g7
V2011-02-15
p1178
sg9
(dp1179
g11
g12
(S'\x07\xdb\x02\x0f'
tRp1180
sg14
L114L
sg15
L1L
sg16
L4L
ssg17
(lp1181
VCommonData
p1182
aV2011-02-15
p1183
asg21
Nsa(dp1184
g7
V2011-02-16
p1185
sg9
(dp1186
g11
g12
(S'\x07\xdb\x02\x10'
tRp1187
sg14
L111L
sg15
L2L
sg16
L2L
ssg17
(lp1188
VCommonData
p1189
aV2011-02-16
p1190
asg21
Nsa(dp1191
g7
V2011-02-17
p1192
sg9
(dp1193
g11
g12
(S'\x07\xdb\x02\x11'
tRp1194
sg14
L125L
sg15
L3L
sg16
L18L
ssg17
(lp1195
VCommonData
p1196
aV2011-02-17
p1197
asg21
Nsa(dp1198
g7
V2011-02-18
p1199
sg9
(dp1200
g11
g12
(S'\x07\xdb\x02\x12'
tRp1201
sg14
L109L
sg15
L1L
sg16
L6L
ssg17
(lp1202
VCommonData
p1203
aV2011-02-18
p1204
asg21
Nsa(dp1205
g7
V2011-02-19
p1206
sg9
(dp1207
g11
g12
(S'\x07\xdb\x02\x13'
tRp1208
sg14
L105L
sg15
L3L
sg16
L8L
ssg17
(lp1209
VCommonData
p1210
aV2011-02-19
p1211
asg21
Nsa(dp1212
g7
V2011-02-20
p1213
sg9
(dp1214
g11
g12
(S'\x07\xdb\x02\x14'
tRp1215
sg14
L97L
sg15
L2L
sg16
L7L
ssg17
(lp1216
VCommonData
p1217
aV2011-02-20
p1218
asg21
Nsa(dp1219
g7
V2011-02-21
p1220
sg9
(dp1221
g11
g12
(S'\x07\xdb\x02\x15'
tRp1222
sg14
L91L
sg15
L0L
sg16
L2L
ssg17
(lp1223
VCommonData
p1224
aV2011-02-21
p1225
asg21
Nsa(dp1226
g7
V2011-02-22
p1227
sg9
(dp1228
g11
g12
(S'\x07\xdb\x02\x16'
tRp1229
sg14
L89L
sg15
L0L
sg16
L3L
ssg17
(lp1230
VCommonData
p1231
aV2011-02-22
p1232
asg21
Nsa(dp1233
g7
V2011-02-23
p1234
sg9
(dp1235
g11
g12
(S'\x07\xdb\x02\x17'
tRp1236
sg14
L89L
sg15
L1L
sg16
L3L
ssg17
(lp1237
VCommonData
p1238
aV2011-02-23
p1239
asg21
Nsa(dp1240
g7
V2011-02-24
p1241
sg9
(dp1242
g11
g12
(S'\x07\xdb\x02\x18'
tRp1243
sg14
L88L
sg15
L1L
sg16
L2L
ssg17
(lp1244
VCommonData
p1245
aV2011-02-24
p1246
asg21
Nsa(dp1247
g7
V2011-02-25
p1248
sg9
(dp1249
g11
g12
(S'\x07\xdb\x02\x19'
tRp1250
sg14
L90L
sg15
L2L
sg16
L4L
ssg17
(lp1251
VCommonData
p1252
aV2011-02-25
p1253
asg21
Nsa(dp1254
g7
V2011-02-26
p1255
sg9
(dp1256
g11
g12
(S'\x07\xdb\x02\x1a'
tRp1257
sg14
L90L
sg15
L1L
sg16
L2L
ssg17
(lp1258
VCommonData
p1259
aV2011-02-26
p1260
asg21
Nsa(dp1261
g7
V2011-02-27
p1262
sg9
(dp1263
g11
g12
(S'\x07\xdb\x02\x1b'
tRp1264
sg14
L96L
sg15
L2L
sg16
L2L
ssg17
(lp1265
VCommonData
p1266
aV2011-02-27
p1267
asg21
Nsa(dp1268
g7
V2011-02-28
p1269
sg9
(dp1270
g11
g12
(S'\x07\xdb\x02\x1c'
tRp1271
sg14
L111L
sg15
L4L
sg16
L26L
ssg17
(lp1272
VCommonData
p1273
aV2011-02-28
p1274
asg21
Nsa(dp1275
g7
V2011-03-01
p1276
sg9
(dp1277
g11
g12
(S'\x07\xdb\x03\x01'
tRp1278
sg14
L113L
sg15
L2L
sg16
L15L
ssg17
(lp1279
VCommonData
p1280
aV2011-03-01
p1281
asg21
Nsa(dp1282
g7
V2011-03-02
p1283
sg9
(dp1284
g11
g12
(S'\x07\xdb\x03\x02'
tRp1285
sg14
L121L
sg15
L3L
sg16
L12L
ssg17
(lp1286
VCommonData
p1287
aV2011-03-02
p1288
asg21
Nsa(dp1289
g7
V2011-03-03
p1290
sg9
(dp1291
g11
g12
(S'\x07\xdb\x03\x03'
tRp1292
sg14
L127L
sg15
L2L
sg16
L12L
ssg17
(lp1293
VCommonData
p1294
aV2011-03-03
p1295
asg21
Nsa(dp1296
g7
V2011-03-04
p1297
sg9
(dp1298
g11
g12
(S'\x07\xdb\x03\x04'
tRp1299
sg14
L135L
sg15
L1L
sg16
L6L
ssg17
(lp1300
VCommonData
p1301
aV2011-03-04
p1302
asg21
Nsa(dp1303
g7
V2011-03-05
p1304
sg9
(dp1305
g11
g12
(S'\x07\xdb\x03\x05'
tRp1306
sg14
L143L
sg15
L2L
sg16
L4L
ssg17
(lp1307
VCommonData
p1308
aV2011-03-05
p1309
asg21
Nsa(dp1310
g7
V2011-03-06
p1311
sg9
(dp1312
g11
g12
(S'\x07\xdb\x03\x06'
tRp1313
sg14
L153L
sg15
L3L
sg16
L9L
ssg17
(lp1314
VCommonData
p1315
aV2011-03-06
p1316
asg21
Nsa(dp1317
g7
V2011-03-07
p1318
sg9
(dp1319
g11
g12
(S'\x07\xdb\x03\x07'
tRp1320
sg14
L155L
sg15
L1L
sg16
L5L
ssg17
(lp1321
VCommonData
p1322
aV2011-03-07
p1323
asg21
Nsa(dp1324
g7
V2011-03-08
p1325
sg9
(dp1326
g11
g12
(S'\x07\xdb\x03\x08'
tRp1327
sg14
L143L
sg15
L1L
sg16
L5L
ssg17
(lp1328
VCommonData
p1329
aV2011-03-08
p1330
asg21
Nsa(dp1331
g7
V2011-03-09
p1332
sg9
(dp1333
g11
g12
(S'\x07\xdb\x03\t'
tRp1334
sg14
L131L
sg15
L3L
sg16
L13L
ssg17
(lp1335
VCommonData
p1336
aV2011-03-09
p1337
asg21
Nsa(dp1338
g7
V2011-03-10
p1339
sg9
(dp1340
g11
g12
(S'\x07\xdb\x03\n'
tRp1341
sg14
L123L
sg15
L4L
sg16
L20L
ssg17
(lp1342
VCommonData
p1343
aV2011-03-10
p1344
asg21
Nsa(dp1345
g7
V2011-03-11
p1346
sg9
(dp1347
g11
g12
(S'\x07\xdb\x03\x0b'
tRp1348
sg14
L121L
sg15
L3L
sg16
L11L
ssg17
(lp1349
VCommonData
p1350
aV2011-03-11
p1351
asg21
Nsa(dp1352
g7
V2011-03-12
p1353
sg9
(dp1354
g11
g12
(S'\x07\xdb\x03\x0c'
tRp1355
sg14
L113L
sg15
L2L
sg16
L5L
ssg17
(lp1356
VCommonData
p1357
aV2011-03-12
p1358
asg21
Nsa(dp1359
g7
V2011-03-13
p1360
sg9
(dp1361
g11
g12
(S'\x07\xdb\x03\r'
tRp1362
sg14
L107L
sg15
L1L
sg16
L2L
ssg17
(lp1363
VCommonData
p1364
aV2011-03-13
p1365
asg21
Nsa(dp1366
g7
V2011-03-14
p1367
sg9
(dp1368
g11
g12
(S'\x07\xdb\x03\x0e'
tRp1369
sg14
L102L
sg15
L1L
sg16
L1L
ssg17
(lp1370
VCommonData
p1371
aV2011-03-14
p1372
asg21
Nsa(dp1373
g7
V2011-03-15
p1374
sg9
(dp1375
g11
g12
(S'\x07\xdb\x03\x0f'
tRp1376
sg14
L95L
sg15
L1L
sg16
L1L
ssg17
(lp1377
VCommonData
p1378
aV2011-03-15
p1379
asg21
Nsa(dp1380
g7
V2011-03-16
p1381
sg9
(dp1382
g11
g12
(S'\x07\xdb\x03\x10'
tRp1383
sg14
L90L
sg15
L2L
sg16
L2L
ssg17
(lp1384
VCommonData
p1385
aV2011-03-16
p1386
asg21
Nsa(dp1387
g7
V2011-03-17
p1388
sg9
(dp1389
g11
g12
(S'\x07\xdb\x03\x11'
tRp1390
sg14
L88L
sg15
L0L
sg16
L3L
ssg17
(lp1391
VCommonData
p1392
aV2011-03-17
p1393
asg21
Nsa(dp1394
g7
V2011-03-18
p1395
sg9
(dp1396
g11
g12
(S'\x07\xdb\x03\x12'
tRp1397
sg14
L89L
sg15
L1L
sg16
L5L
ssg17
(lp1398
VCommonData
p1399
aV2011-03-18
p1400
asg21
Nsa(dp1401
g7
V2011-03-19
p1402
sg9
(dp1403
g11
g12
(S'\x07\xdb\x03\x13'
tRp1404
sg14
L92L
sg15
L1L
sg16
L5L
ssg17
(lp1405
VCommonData
p1406
aV2011-03-19
p1407
asg21
Nsa(dp1408
g7
V2011-03-20
p1409
sg9
(dp1410
g11
g12
(S'\x07\xdb\x03\x14'
tRp1411
sg14
L101L
sg15
L1L
sg16
L3L
ssg17
(lp1412
VCommonData
p1413
aV2011-03-20
p1414
asg21
Nsa(dp1415
g7
V2011-03-21
p1416
sg9
(dp1417
g11
g12
(S'\x07\xdb\x03\x15'
tRp1418
sg14
L100L
sg15
L1L
sg16
L8L
ssg17
(lp1419
VCommonData
p1420
aV2011-03-21
p1421
asg21
Nsa(dp1422
g7
V2011-03-22
p1423
sg9
(dp1424
g11
g12
(S'\x07\xdb\x03\x16'
tRp1425
sg14
L105L
sg15
L2L
sg16
L13L
ssg17
(lp1426
VCommonData
p1427
aV2011-03-22
p1428
asg21
Nsa(dp1429
g7
V2011-03-23
p1430
sg9
(dp1431
g11
g12
(S'\x07\xdb\x03\x17'
tRp1432
sg14
L108L
sg15
L1L
sg16
L3L
ssg17
(lp1433
VCommonData
p1434
aV2011-03-23
p1435
asg21
Nsa(dp1436
g7
V2011-03-24
p1437
sg9
(dp1438
g11
g12
(S'\x07\xdb\x03\x18'
tRp1439
sg14
L113L
sg15
L1L
sg16
L4L
ssg17
(lp1440
VCommonData
p1441
aV2011-03-24
p1442
asg21
Nsa(dp1443
g7
V2011-03-25
p1444
sg9
(dp1445
g11
g12
(S'\x07\xdb\x03\x19'
tRp1446
sg14
L115L
sg15
L0L
sg16
L2L
ssg17
(lp1447
VCommonData
p1448
aV2011-03-25
p1449
asg21
Nsa(dp1450
g7
V2011-03-26
p1451
sg9
(dp1452
g11
g12
(S'\x07\xdb\x03\x1a'
tRp1453
sg14
L117L
sg15
L1L
sg16
L1L
ssg17
(lp1454
VCommonData
p1455
aV2011-03-26
p1456
asg21
Nsa(dp1457
g7
V2011-03-27
p1458
sg9
(dp1459
g11
g12
(S'\x07\xdb\x03\x1b'
tRp1460
sg14
L119L
sg15
L1L
sg16
L3L
ssg17
(lp1461
VCommonData
p1462
aV2011-03-27
p1463
asg21
Nsa(dp1464
g7
V2011-03-28
p1465
sg9
(dp1466
g11
g12
(S'\x07\xdb\x03\x1c'
tRp1467
sg14
L116L
sg15
L1L
sg16
L2L
ssg17
(lp1468
VCommonData
p1469
aV2011-03-28
p1470
asg21
Nsa(dp1471
g7
V2011-03-29
p1472
sg9
(dp1473
g11
g12
(S'\x07\xdb\x03\x1d'
tRp1474
sg14
L118L
sg15
L1L
sg16
L7L
ssg17
(lp1475
VCommonData
p1476
aV2011-03-29
p1477
asg21
Nsa(dp1478
g7
V2011-03-30
p1479
sg9
(dp1480
g11
g12
(S'\x07\xdb\x03\x1e'
tRp1481
sg14
L113L
sg15
L1L
sg16
L4L
ssg17
(lp1482
VCommonData
p1483
aV2011-03-30
p1484
asg21
Nsa(dp1485
g7
V2011-03-31
p1486
sg9
(dp1487
g11
g12
(S'\x07\xdb\x03\x1f'
tRp1488
sg14
L109L
sg15
L4L
sg16
L13L
ssg17
(lp1489
VCommonData
p1490
aV2011-03-31
p1491
asg21
Nsa(dp1492
g7
V2011-04-01
p1493
sg9
(dp1494
g11
g12
(S'\x07\xdb\x04\x01'
tRp1495
sg14
L108L
sg15
L3L
sg16
L18L
ssg17
(lp1496
VCommonData
p1497
aV2011-04-01
p1498
asg21
Nsa(dp1499
g7
V2011-04-02
p1500
sg9
(dp1501
g11
g12
(S'\x07\xdb\x04\x02'
tRp1502
sg14
L114L
sg15
L3L
sg16
L18L
ssg17
(lp1503
VCommonData
p1504
aV2011-04-02
p1505
asg21
Nsa(dp1506
g7
V2011-04-03
p1507
sg9
(dp1508
g11
g12
(S'\x07\xdb\x04\x03'
tRp1509
sg14
L113L
sg15
L0L
sg16
L113L
ssg17
(lp1510
VCommonData
p1511
aV2011-04-03
p1512
asg21
Nsa(dp1513
g7
V2011-04-04
p1514
sg9
(dp1515
g11
g12
(S'\x07\xdb\x04\x04'
tRp1516
sg14
L113L
sg15
L0L
sg16
L7L
ssg17
(lp1517
VCommonData
p1518
aV2011-04-04
p1519
asg21
Nsa(dp1520
g7
V2011-04-05
p1521
sg9
(dp1522
g11
g12
(S'\x07\xdb\x04\x05'
tRp1523
sg14
L117L
sg15
L3L
sg16
L18L
ssg17
(lp1524
VCommonData
p1525
aV2011-04-05
p1526
asg21
Nsa(dp1527
g7
V2011-04-06
p1528
sg9
(dp1529
g11
g12
(S'\x07\xdb\x04\x06'
tRp1530
sg14
L112L
sg15
L1L
sg16
L7L
ssg17
(lp1531
VCommonData
p1532
aV2011-04-06
p1533
asg21
Nsa(dp1534
g7
V2011-04-07
p1535
sg9
(dp1536
g11
g12
(S'\x07\xdb\x04\x07'
tRp1537
sg14
L109L
sg15
L3L
sg16
L7L
ssg17
(lp1538
VCommonData
p1539
aV2011-04-07
p1540
asg21
Nsa(dp1541
g7
V2011-04-08
p1542
sg9
(dp1543
g11
g12
(S'\x07\xdb\x04\x08'
tRp1544
sg14
L105L
sg15
L1L
sg16
L8L
ssg17
(lp1545
VCommonData
p1546
aV2011-04-08
p1547
asg21
Nsa(dp1548
g7
V2011-04-09
p1549
sg9
(dp1550
g11
g12
(S'\x07\xdb\x04\t'
tRp1551
sg14
L105L
sg15
L1L
sg16
L3L
ssg17
(lp1552
VCommonData
p1553
aV2011-04-09
p1554
asg21
Nsa(dp1555
g7
V2011-04-10
p1556
sg9
(dp1557
g11
g12
(S'\x07\xdb\x04\n'
tRp1558
sg14
L106L
sg15
L2L
sg16
L10L
ssg17
(lp1559
VCommonData
p1560
aV2011-04-10
p1561
asg21
Nsa(dp1562
g7
V2011-04-11
p1563
sg9
(dp1564
g11
g12
(S'\x07\xdb\x04\x0b'
tRp1565
sg14
L110L
sg15
L1L
sg16
L17L
ssg17
(lp1566
VCommonData
p1567
aV2011-04-11
p1568
asg21
Nsa(dp1569
g7
V2011-04-12
p1570
sg9
(dp1571
g11
g12
(S'\x07\xdb\x04\x0c'
tRp1572
sg14
L118L
sg15
L1L
sg16
L12L
ssg17
(lp1573
VCommonData
p1574
aV2011-04-12
p1575
asg21
Nsa(dp1576
g7
V2011-04-13
p1577
sg9
(dp1578
g11
g12
(S'\x07\xdb\x04\r'
tRp1579
sg14
L119L
sg15
L0L
sg16
L4L
ssg17
(lp1580
VCommonData
p1581
aV2011-04-13
p1582
asg21
Nsa(dp1583
g7
V2011-04-14
p1584
sg9
(dp1585
g11
g12
(S'\x07\xdb\x04\x0e'
tRp1586
sg14
L129L
sg15
L1L
sg16
L5L
ssg17
(lp1587
VCommonData
p1588
aV2011-04-14
p1589
asg21
Nsa(dp1590
g7
V2011-04-15
p1591
sg9
(dp1592
g11
g12
(S'\x07\xdb\x04\x0f'
tRp1593
sg14
L119L
sg15
L1L
sg16
L3L
ssg17
(lp1594
VCommonData
p1595
aV2011-04-15
p1596
asg21
Nsa(dp1597
g7
V2011-04-16
p1598
sg9
(dp1599
g11
g12
(S'\x07\xdb\x04\x10'
tRp1600
sg14
L114L
sg15
L1L
sg16
L4L
ssg17
(lp1601
VCommonData
p1602
aV2011-04-16
p1603
asg21
Nsa(dp1604
g7
V2011-04-17
p1605
sg9
(dp1606
g11
g12
(S'\x07\xdb\x04\x11'
tRp1607
sg14
L111L
sg15
L2L
sg16
L10L
ssg17
(lp1608
VCommonData
p1609
aV2011-04-17
p1610
asg21
Nsa(dp1611
g7
V2011-04-18
p1612
sg9
(dp1613
g11
g12
(S'\x07\xdb\x04\x12'
tRp1614
sg14
L111L
sg15
L1L
sg16
L5L
ssg17
(lp1615
VCommonData
p1616
aV2011-04-18
p1617
asg21
Nsa(dp1618
g7
V2011-04-19
p1619
sg9
(dp1620
g11
g12
(S'\x07\xdb\x04\x13'
tRp1621
sg14
L117L
sg15
L1L
sg16
L10L
ssg17
(lp1622
VCommonData
p1623
aV2011-04-19
p1624
asg21
Nsa(dp1625
g7
V2011-04-20
p1626
sg9
(dp1627
g11
g12
(S'\x07\xdb\x04\x14'
tRp1628
sg14
L113L
sg15
L2L
sg16
L4L
ssg17
(lp1629
VCommonData
p1630
aV2011-04-20
p1631
asg21
Nsa(dp1632
g7
V2011-04-21
p1633
sg9
(dp1634
g11
g12
(S'\x07\xdb\x04\x15'
tRp1635
sg14
L115L
sg15
L2L
sg16
L5L
ssg17
(lp1636
VCommonData
p1637
aV2011-04-21
p1638
asg21
Nsa(dp1639
g7
V2011-04-22
p1640
sg9
(dp1641
g11
g12
(S'\x07\xdb\x04\x16'
tRp1642
sg14
L119L
sg15
L1L
sg16
L5L
ssg17
(lp1643
VCommonData
p1644
aV2011-04-22
p1645
asg21
Nsa(dp1646
g7
V2011-04-23
p1647
sg9
(dp1648
g11
g12
(S'\x07\xdb\x04\x17'
tRp1649
sg14
L117L
sg15
L2L
sg16
L3L
ssg17
(lp1650
VCommonData
p1651
aV2011-04-23
p1652
asg21
Nsa(dp1653
g7
V2011-04-24
p1654
sg9
(dp1655
g11
g12
(S'\x07\xdb\x04\x18'
tRp1656
sg14
L112L
sg15
L1L
sg16
L6L
ssg17
(lp1657
VCommonData
p1658
aV2011-04-24
p1659
asg21
Nsa(dp1660
g7
V2011-04-25
p1661
sg9
(dp1662
g11
g12
(S'\x07\xdb\x04\x19'
tRp1663
sg14
L109L
sg15
L1L
sg16
L3L
ssg17
(lp1664
VCommonData
p1665
aV2011-04-25
p1666
asg21
Nsa(dp1667
g7
V2011-04-26
p1668
sg9
(dp1669
g11
g12
(S'\x07\xdb\x04\x1a'
tRp1670
sg14
L108L
sg15
L1L
sg16
L1L
ssg17
(lp1671
VCommonData
p1672
aV2011-04-26
p1673
asg21
Nsa(dp1674
g7
V2011-04-27
p1675
sg9
(dp1676
g11
g12
(S'\x07\xdb\x04\x1b'
tRp1677
sg14
L110L
sg15
L1L
sg16
L1L
ssg17
(lp1678
VCommonData
p1679
aV2011-04-27
p1680
asg21
Nsa(dp1681
g7
V2011-04-28
p1682
sg9
(dp1683
g11
g12
(S'\x07\xdb\x04\x1c'
tRp1684
sg14
L110L
sg15
L3L
sg16
L6L
ssg17
(lp1685
VCommonData
p1686
aV2011-04-28
p1687
asg21
Nsa(dp1688
g7
V2011-04-29
p1689
sg9
(dp1690
g11
g12
(S'\x07\xdb\x04\x1d'
tRp1691
sg14
L110L
sg15
L3L
sg16
L23L
ssg17
(lp1692
VCommonData
p1693
aV2011-04-29
p1694
asg21
Nsa(dp1695
g7
V2011-04-30
p1696
sg9
(dp1697
g11
g12
(S'\x07\xdb\x04\x1e'
tRp1698
sg14
L106L
sg15
L2L
sg16
L23L
ssg17
(lp1699
VCommonData
p1700
aV2011-04-30
p1701
asg21
Nsa(dp1702
g7
V2011-05-01
p1703
sg9
(dp1704
g11
g12
(S'\x07\xdb\x05\x01'
tRp1705
sg14
L110L
sg15
L2L
sg16
L16L
ssg17
(lp1706
VCommonData
p1707
aV2011-05-01
p1708
asg21
Nsa(dp1709
g7
V2011-05-02
p1710
sg9
(dp1711
g11
g12
(S'\x07\xdb\x05\x02'
tRp1712
sg14
L107L
sg15
L3L
sg16
L14L
ssg17
(lp1713
VCommonData
p1714
aV2011-05-02
p1715
asg21
Nsa(dp1716
g7
V2011-05-03
p1717
sg9
(dp1718
g11
g12
(S'\x07\xdb\x05\x03'
tRp1719
sg14
L107L
sg15
L1L
sg16
L6L
ssg17
(lp1720
VCommonData
p1721
aV2011-05-03
p1722
asg21
Nsa(dp1723
g7
V2011-05-04
p1724
sg9
(dp1725
g11
g12
(S'\x07\xdb\x05\x04'
tRp1726
sg14
L105L
sg15
L2L
sg16
L7L
ssg17
(lp1727
VCommonData
p1728
aV2011-05-04
p1729
asg21
Nsa(dp1730
g7
V2011-05-05
p1731
sg9
(dp1732
g11
g12
(S'\x07\xdb\x05\x05'
tRp1733
sg14
L102L
sg15
L1L
sg16
L4L
ssg17
(lp1734
VCommonData
p1735
aV2011-05-05
p1736
asg21
Nsa(dp1737
g7
V2011-05-06
p1738
sg9
(dp1739
g11
g12
(S'\x07\xdb\x05\x06'
tRp1740
sg14
L102L
sg15
L2L
sg16
L4L
ssg17
(lp1741
VCommonData
p1742
aV2011-05-06
p1743
asg21
Nsa(dp1744
g7
V2011-05-07
p1745
sg9
(dp1746
g11
g12
(S'\x07\xdb\x05\x07'
tRp1747
sg14
L102L
sg15
L1L
sg16
L1L
ssg17
(lp1748
VCommonData
p1749
aV2011-05-07
p1750
asg21
Nsa(dp1751
g7
V2011-05-08
p1752
sg9
(dp1753
g11
g12
(S'\x07\xdb\x05\x08'
tRp1754
sg14
L104L
sg15
L1L
sg16
L4L
ssg17
(lp1755
VCommonData
p1756
aV2011-05-08
p1757
asg21
Nsa(dp1758
g7
V2011-05-09
p1759
sg9
(dp1760
g11
g12
(S'\x07\xdb\x05\t'
tRp1761
sg14
L98L
sg15
L2L
sg16
L11L
ssg17
(lp1762
VCommonData
p1763
aV2011-05-09
p1764
asg21
Nsa(dp1765
g7
V2011-05-10
p1766
sg9
(dp1767
g11
g12
(S'\x07\xdb\x05\n'
tRp1768
sg14
L94L
sg15
L1L
sg16
L5L
ssg17
(lp1769
VCommonData
p1770
aV2011-05-10
p1771
asg21
Nsa(dp1772
g7
V2011-05-11
p1773
sg9
(dp1774
g11
g12
(S'\x07\xdb\x05\x0b'
tRp1775
sg14
L93L
sg15
L1L
sg16
L3L
ssg17
(lp1776
VCommonData
p1777
aV2011-05-11
p1778
asg21
Nsa(dp1779
g7
V2011-05-12
p1780
sg9
(dp1781
g11
g12
(S'\x07\xdb\x05\x0c'
tRp1782
sg14
L92L
sg15
L1L
sg16
L4L
ssg17
(lp1783
VCommonData
p1784
aV2011-05-12
p1785
asg21
Nsa(dp1786
g7
V2011-05-13
p1787
sg9
(dp1788
g11
g12
(S'\x07\xdb\x05\r'
tRp1789
sg14
L91L
sg15
L2L
sg16
L4L
ssg17
(lp1790
VCommonData
p1791
aV2011-05-13
p1792
asg21
Nsa(dp1793
g7
V2011-05-14
p1794
sg9
(dp1795
g11
g12
(S'\x07\xdb\x05\x0e'
tRp1796
sg14
L95L
sg15
L3L
sg16
L10L
ssg17
(lp1797
VCommonData
p1798
aV2011-05-14
p1799
asg21
Nsa(dp1800
g7
V2011-05-15
p1801
sg9
(dp1802
g11
g12
(S'\x07\xdb\x05\x0f'
tRp1803
sg14
L95L
sg15
L2L
sg16
L12L
ssg17
(lp1804
VCommonData
p1805
aV2011-05-15
p1806
asg21
Nsa(dp1807
g7
V2011-05-16
p1808
sg9
(dp1809
g11
g12
(S'\x07\xdb\x05\x10'
tRp1810
sg14
L95L
sg15
L3L
sg16
L12L
ssg17
(lp1811
VCommonData
p1812
aV2011-05-16
p1813
asg21
Nsa(dp1814
g7
V2011-05-17
p1815
sg9
(dp1816
g11
g12
(S'\x07\xdb\x05\x11'
tRp1817
sg14
L92L
sg15
L2L
sg16
L10L
ssg17
(lp1818
VCommonData
p1819
aV2011-05-17
p1820
asg21
Nsa(dp1821
g7
V2011-05-18
p1822
sg9
(dp1823
g11
g12
(S'\x07\xdb\x05\x12'
tRp1824
sg14
L92L
sg15
L2L
sg16
L8L
ssg17
(lp1825
VCommonData
p1826
aV2011-05-18
p1827
asg21
Nsa(dp1828
g7
V2011-05-19
p1829
sg9
(dp1830
g11
g12
(S'\x07\xdb\x05\x13'
tRp1831
sg14
L91L
sg15
L2L
sg16
L6L
ssg17
(lp1832
VCommonData
p1833
aV2011-05-19
p1834
asg21
Nsa(dp1835
g7
V2011-05-20
p1836
sg9
(dp1837
g11
g12
(S'\x07\xdb\x05\x14'
tRp1838
sg14
L84L
sg15
L1L
sg16
L3L
ssg17
(lp1839
VCommonData
p1840
aV2011-05-20
p1841
asg21
Nsa(dp1842
g7
V2011-05-21
p1843
sg9
(dp1844
g11
g12
(S'\x07\xdb\x05\x15'
tRp1845
sg14
L84L
sg15
L2L
sg16
L3L
ssg17
(lp1846
VCommonData
p1847
aV2011-05-21
p1848
asg21
Nsa(dp1849
g7
V2011-05-22
p1850
sg9
(dp1851
g11
g12
(S'\x07\xdb\x05\x16'
tRp1852
sg14
L84L
sg15
L2L
sg16
L5L
ssg17
(lp1853
VCommonData
p1854
aV2011-05-22
p1855
asg21
Nsa(dp1856
g7
V2011-05-23
p1857
sg9
(dp1858
g11
g12
(S'\x07\xdb\x05\x17'
tRp1859
sg14
L85L
sg15
L1L
sg16
L4L
ssg17
(lp1860
VCommonData
p1861
aV2011-05-23
p1862
asg21
Nsa(dp1863
g7
V2011-05-24
p1864
sg9
(dp1865
g11
g12
(S'\x07\xdb\x05\x18'
tRp1866
sg14
L84L
sg15
L2L
sg16
L4L
ssg17
(lp1867
VCommonData
p1868
aV2011-05-24
p1869
asg21
Nsa(dp1870
g7
V2011-05-25
p1871
sg9
(dp1872
g11
g12
(S'\x07\xdb\x05\x19'
tRp1873
sg14
L82L
sg15
L1L
sg16
L7L
ssg17
(lp1874
VCommonData
p1875
aV2011-05-25
p1876
asg21
Nsa(dp1877
g7
V2011-05-26
p1878
sg9
(dp1879
g11
g12
(S'\x07\xdb\x05\x1a'
tRp1880
sg14
L80L
sg15
L2L
sg16
L3L
ssg17
(lp1881
VCommonData
p1882
aV2011-05-26
p1883
asg21
Nsa(dp1884
g7
V2011-05-27
p1885
sg9
(dp1886
g11
g12
(S'\x07\xdb\x05\x1b'
tRp1887
sg14
L83L
sg15
L2L
sg16
L9L
ssg17
(lp1888
VCommonData
p1889
aV2011-05-27
p1890
asg21
Nsa(dp1891
g7
V2011-05-28
p1892
sg9
(dp1893
g11
g12
(S'\x07\xdb\x05\x1c'
tRp1894
sg14
L90L
sg15
L5L
sg16
L9L
ssg17
(lp1895
VCommonData
p1896
aV2011-05-28
p1897
asg21
Nsa(dp1898
g7
V2011-05-29
p1899
sg9
(dp1900
g11
g12
(S'\x07\xdb\x05\x1d'
tRp1901
sg14
L101L
sg15
L3L
sg16
L36L
ssg17
(lp1902
VCommonData
p1903
aV2011-05-29
p1904
asg21
Nsa(dp1905
g7
V2011-05-30
p1906
sg9
(dp1907
g11
g12
(S'\x07\xdb\x05\x1e'
tRp1908
sg14
L111L
sg15
L2L
sg16
L30L
ssg17
(lp1909
VCommonData
p1910
aV2011-05-30
p1911
asg21
Nsa(dp1912
g7
V2011-05-31
p1913
sg9
(dp1914
g11
g12
(S'\x07\xdb\x05\x1f'
tRp1915
sg14
L112L
sg15
L3L
sg16
L9L
ssg17
(lp1916
VCommonData
p1917
aV2011-05-31
p1918
asg21
Nsa(dp1919
g7
V2011-06-01
p1920
sg9
(dp1921
g11
g12
(S'\x07\xdb\x06\x01'
tRp1922
sg14
L112L
sg15
L2L
sg16
L17L
ssg17
(lp1923
VCommonData
p1924
aV2011-06-01
p1925
asg21
Nsa(dp1926
g7
V2011-06-02
p1927
sg9
(dp1928
g11
g12
(S'\x07\xdb\x06\x02'
tRp1929
sg14
L114L
sg15
L3L
sg16
L10L
ssg17
(lp1930
VCommonData
p1931
aV2011-06-02
p1932
asg21
Nsa(dp1933
g7
V2011-06-03
p1934
sg9
(dp1935
g11
g12
(S'\x07\xdb\x06\x03'
tRp1936
sg14
L112L
sg15
L1L
sg16
L9L
ssg17
(lp1937
VCommonData
p1938
aV2011-06-03
p1939
asg21
Nsa(dp1940
g7
V2011-06-04
p1941
sg9
(dp1942
g11
g12
(S'\x07\xdb\x06\x04'
tRp1943
sg14
L107L
sg15
L1L
sg16
L3L
ssg17
(lp1944
VCommonData
p1945
aV2011-06-04
p1946
asg21
Nsa(dp1947
g7
V2011-06-05
p1948
sg9
(dp1949
g11
g12
(S'\x07\xdb\x06\x05'
tRp1950
sg14
L103L
sg15
L3L
sg16
L11L
ssg17
(lp1951
VCommonData
p1952
aV2011-06-05
p1953
asg21
Nsa(dp1954
g7
V2011-06-06
p1955
sg9
(dp1956
g11
g12
(S'\x07\xdb\x06\x06'
tRp1957
sg14
L103L
sg15
L2L
sg16
L26L
ssg17
(lp1958
VCommonData
p1959
aV2011-06-06
p1960
asg21
Nsa(dp1961
g7
V2011-06-07
p1962
sg9
(dp1963
g11
g12
(S'\x07\xdb\x06\x07'
tRp1964
sg14
L100L
sg15
L1L
sg16
L6L
ssg17
(lp1965
VCommonData
p1966
aV2011-06-07
p1967
asg21
Nsa(dp1968
g7
V2011-06-08
p1969
sg9
(dp1970
g11
g12
(S'\x07\xdb\x06\x08'
tRp1971
sg14
L96L
sg15
L2L
sg16
L8L
ssg17
(lp1972
VCommonData
p1973
aV2011-06-08
p1974
asg21
Nsa(dp1975
g7
V2011-06-09
p1976
sg9
(dp1977
g11
g12
(S'\x07\xdb\x06\t'
tRp1978
sg14
L90L
sg15
L2L
sg16
L11L
ssg17
(lp1979
VCommonData
p1980
aV2011-06-09
p1981
asg21
Nsa(dp1982
g7
V2011-06-10
p1983
sg9
(dp1984
g11
g12
(S'\x07\xdb\x06\n'
tRp1985
sg14
L88L
sg15
L2L
sg16
L12L
ssg17
(lp1986
VCommonData
p1987
aV2011-06-10
p1988
asg21
Nsa(dp1989
g7
V2011-06-11
p1990
sg9
(dp1991
g11
g12
(S'\x07\xdb\x06\x0b'
tRp1992
sg14
L87L
sg15
L2L
sg16
L9L
ssg17
(lp1993
VCommonData
p1994
aV2011-06-11
p1995
asg21
Nsa(dp1996
g7
V2011-06-12
p1997
sg9
(dp1998
g11
g12
(S'\x07\xdb\x06\x0c'
tRp1999
sg14
L85L
sg15
L4L
sg16
L12L
ssg17
(lp2000
VCommonData
p2001
aV2011-06-12
p2002
asg21
Nsa(dp2003
g7
V2011-06-13
p2004
sg9
(dp2005
g11
g12
(S'\x07\xdb\x06\r'
tRp2006
sg14
L85L
sg15
L2L
sg16
L10L
ssg17
(lp2007
VCommonData
p2008
aV2011-06-13
p2009
asg21
Nsa(dp2010
g7
V2011-06-14
p2011
sg9
(dp2012
g11
g12
(S'\x07\xdb\x06\x0e'
tRp2013
sg14
L87L
sg15
L1L
sg16
L8L
ssg17
(lp2014
VCommonData
p2015
aV2011-06-14
p2016
asg21
Nsa(dp2017
g7
V2011-06-15
p2018
sg9
(dp2019
g11
g12
(S'\x07\xdb\x06\x0f'
tRp2020
sg14
L99L
sg15
L2L
sg16
L8L
ssg17
(lp2021
VCommonData
p2022
aV2011-06-15
p2023
asg21
Nsa(dp2024
g7
V2011-06-16
p2025
sg9
(dp2026
g11
g12
(S'\x07\xdb\x06\x10'
tRp2027
sg14
L102L
sg15
L2L
sg16
L7L
ssg17
(lp2028
VCommonData
p2029
aV2011-06-16
p2030
asg21
Nsa(dp2031
g7
V2011-06-17
p2032
sg9
(dp2033
g11
g12
(S'\x07\xdb\x06\x11'
tRp2034
sg14
L103L
sg15
L2L
sg16
L5L
ssg17
(lp2035
VCommonData
p2036
aV2011-06-17
p2037
asg21
Nsa(dp2038
g7
V2011-06-18
p2039
sg9
(dp2040
g11
g12
(S'\x07\xdb\x06\x12'
tRp2041
sg14
L104L
sg15
L2L
sg16
L11L
ssg17
(lp2042
VCommonData
p2043
aV2011-06-18
p2044
asg21
Nsa(dp2045
g7
V2011-06-19
p2046
sg9
(dp2047
g11
g12
(S'\x07\xdb\x06\x13'
tRp2048
sg14
L99L
sg15
L2L
sg16
L6L
ssg17
(lp2049
VCommonData
p2050
aV2011-06-19
p2051
asg21
Nsa(dp2052
g7
V2011-06-20
p2053
sg9
(dp2054
g11
g12
(S'\x07\xdb\x06\x14'
tRp2055
sg14
L99L
sg15
L2L
sg16
L5L
ssg17
(lp2056
VCommonData
p2057
aV2011-06-20
p2058
asg21
Nsa(dp2059
g7
V2011-06-21
p2060
sg9
(dp2061
g11
g12
(S'\x07\xdb\x06\x15'
tRp2062
sg14
L96L
sg15
L2L
sg16
L7L
ssg17
(lp2063
VCommonData
p2064
aV2011-06-21
p2065
asg21
Nsa(dp2066
g7
V2011-06-22
p2067
sg9
(dp2068
g11
g12
(S'\x07\xdb\x06\x16'
tRp2069
sg14
L95L
sg15
L2L
sg16
L8L
ssg17
(lp2070
VCommonData
p2071
aV2011-06-22
p2072
asg21
Nsa(dp2073
g7
V2011-06-23
p2074
sg9
(dp2075
g11
g12
(S'\x07\xdb\x06\x17'
tRp2076
sg14
L93L
sg15
L3L
sg16
L10L
ssg17
(lp2077
VCommonData
p2078
aV2011-06-23
p2079
asg21
Nsa(dp2080
g7
V2011-06-24
p2081
sg9
(dp2082
g11
g12
(S'\x07\xdb\x06\x18'
tRp2083
sg14
L96L
sg15
L2L
sg16
L17L
ssg17
(lp2084
VCommonData
p2085
aV2011-06-24
p2086
asg21
Nsa(dp2087
g7
V2011-06-25
p2088
sg9
(dp2089
g11
g12
(S'\x07\xdb\x06\x19'
tRp2090
sg14
L96L
sg15
L1L
sg16
L13L
ssg17
(lp2091
VCommonData
p2092
aV2011-06-25
p2093
asg21
Nsa(dp2094
g7
V2011-06-26
p2095
sg9
(dp2096
g11
g12
(S'\x07\xdb\x06\x1a'
tRp2097
sg14
L94L
sg15
L1L
sg16
L6L
ssg17
(lp2098
VCommonData
p2099
aV2011-06-26
p2100
asg21
Nsa(dp2101
g7
V2011-06-27
p2102
sg9
(dp2103
g11
g12
(S'\x07\xdb\x06\x1b'
tRp2104
sg14
L90L
sg15
L2L
sg16
L7L
ssg17
(lp2105
VCommonData
p2106
aV2011-06-27
p2107
asg21
Nsa(dp2108
g7
V2011-06-28
p2109
sg9
(dp2110
g11
g12
(S'\x07\xdb\x06\x1c'
tRp2111
sg14
L89L
sg15
L2L
sg16
L6L
ssg17
(lp2112
VCommonData
p2113
aV2011-06-28
p2114
asg21
Nsa(dp2115
g7
V2011-06-29
p2116
sg9
(dp2117
g11
g12
(S'\x07\xdb\x06\x1d'
tRp2118
sg14
L87L
sg15
L2L
sg16
L5L
ssg17
(lp2119
VCommonData
p2120
aV2011-06-29
p2121
asg21
Nsa(dp2122
g7
V2011-06-30
p2123
sg9
(dp2124
g11
g12
(S'\x07\xdb\x06\x1e'
tRp2125
sg14
L87L
sg15
L1L
sg16
L3L
ssg17
(lp2126
VCommonData
p2127
aV2011-06-30
p2128
asg21
Nsa(dp2129
g7
V2011-07-01
p2130
sg9
(dp2131
g11
g12
(S'\x07\xdb\x07\x01'
tRp2132
sg14
L89L
sg15
L2L
sg16
L3L
ssg17
(lp2133
VCommonData
p2134
aV2011-07-01
p2135
asg21
Nsa(dp2136
g7
V2011-07-02
p2137
sg9
(dp2138
g11
g12
(S'\x07\xdb\x07\x02'
tRp2139
sg14
L88L
sg15
L2L
sg16
L12L
ssg17
(lp2140
VCommonData
p2141
aV2011-07-02
p2142
asg21
Nsa(dp2143
g7
V2011-07-03
p2144
sg9
(dp2145
g11
g12
(S'\x07\xdb\x07\x03'
tRp2146
sg14
L86L
sg15
L2L
sg16
L5L
ssg17
(lp2147
VCommonData
p2148
aV2011-07-03
p2149
asg21
Nsa(dp2150
g7
V2011-07-04
p2151
sg9
(dp2152
g11
g12
(S'\x07\xdb\x07\x04'
tRp2153
sg14
L86L
sg15
L1L
sg16
L8L
ssg17
(lp2154
VCommonData
p2155
aV2011-07-04
p2156
asg21
Nsa(dp2157
g7
V2011-07-05
p2158
sg9
(dp2159
g11
g12
(S'\x07\xdb\x07\x05'
tRp2160
sg14
L85L
sg15
L1L
sg16
L7L
ssg17
(lp2161
VCommonData
p2162
aV2011-07-05
p2163
asg21
Nsa(dp2164
g7
V2011-07-06
p2165
sg9
(dp2166
g11
g12
(S'\x07\xdb\x07\x06'
tRp2167
sg14
L85L
sg15
L4L
sg16
L13L
ssg17
(lp2168
VCommonData
p2169
aV2011-07-06
p2170
asg21
Nsa(dp2171
g7
V2011-07-07
p2172
sg9
(dp2173
g11
g12
(S'\x07\xdb\x07\x07'
tRp2174
sg14
L85L
sg15
L1L
sg16
L11L
ssg17
(lp2175
VCommonData
p2176
aV2011-07-07
p2177
asg21
Nsa(dp2178
g7
V2011-07-08
p2179
sg9
(dp2180
g11
g12
(S'\x07\xdb\x07\x08'
tRp2181
sg14
L86L
sg15
L1L
sg16
L7L
ssg17
(lp2182
VCommonData
p2183
aV2011-07-08
p2184
asg21
Nsa(dp2185
g7
V2011-07-09
p2186
sg9
(dp2187
g11
g12
(S'\x07\xdb\x07\t'
tRp2188
sg14
L86L
sg15
L2L
sg16
L8L
ssg17
(lp2189
VCommonData
p2190
aV2011-07-09
p2191
asg21
Nsa(dp2192
g7
V2011-07-10
p2193
sg9
(dp2194
g11
g12
(S'\x07\xdb\x07\n'
tRp2195
sg14
L86L
sg15
L2L
sg16
L14L
ssg17
(lp2196
VCommonData
p2197
aV2011-07-10
p2198
asg21
Nsa(dp2199
g7
V2011-07-11
p2200
sg9
(dp2201
g11
g12
(S'\x07\xdb\x07\x0b'
tRp2202
sg14
L91L
sg15
L2L
sg16
L13L
ssg17
(lp2203
VCommonData
p2204
aV2011-07-11
p2205
asg21
Nsa(dp2206
g7
V2011-07-12
p2207
sg9
(dp2208
g11
g12
(S'\x07\xdb\x07\x0c'
tRp2209
sg14
L90L
sg15
L2L
sg16
L15L
ssg17
(lp2210
VCommonData
p2211
aV2011-07-12
p2212
asg21
Nsa(dp2213
g7
V2011-07-13
p2214
sg9
(dp2215
g11
g12
(S'\x07\xdb\x07\r'
tRp2216
sg14
L92L
sg15
L2L
sg16
L9L
ssg17
(lp2217
VCommonData
p2218
aV2011-07-13
p2219
asg21
Nsa(dp2220
g7
V2011-07-14
p2221
sg9
(dp2222
g11
g12
(S'\x07\xdb\x07\x0e'
tRp2223
sg14
L95L
sg15
L2L
sg16
L8L
ssg17
(lp2224
VCommonData
p2225
aV2011-07-14
p2226
asg21
Nsa(dp2227
g7
V2011-07-15
p2228
sg9
(dp2229
g11
g12
(S'\x07\xdb\x07\x0f'
tRp2230
sg14
L94L
sg15
L1L
sg16
L8L
ssg17
(lp2231
VCommonData
p2232
aV2011-07-15
p2233
asg21
Nsa(dp2234
g7
V2011-07-16
p2235
sg9
(dp2236
g11
g12
(S'\x07\xdb\x07\x10'
tRp2237
sg14
L94L
sg15
L1L
sg16
L5L
ssg17
(lp2238
VCommonData
p2239
aV2011-07-16
p2240
asg21
Nsa(dp2241
g7
V2011-07-17
p2242
sg9
(dp2243
g11
g12
(S'\x07\xdb\x07\x11'
tRp2244
sg14
L94L
sg15
L1L
sg16
L5L
ssg17
(lp2245
VCommonData
p2246
aV2011-07-17
p2247
asg21
Nsa(dp2248
g7
V2011-07-18
p2249
sg9
(dp2250
g11
g12
(S'\x07\xdb\x07\x12'
tRp2251
sg14
L104L
sg15
L3L
sg16
L4L
ssg17
(lp2252
VCommonData
p2253
aV2011-07-18
p2254
asg21
Nsa(dp2255
g7
V2011-07-19
p2256
sg9
(dp2257
g11
g12
(S'\x07\xdb\x07\x13'
tRp2258
sg14
L102L
sg15
L4L
sg16
L9L
ssg17
(lp2259
VCommonData
p2260
aV2011-07-19
p2261
asg21
Nsa(dp2262
g7
V2011-07-20
p2263
sg9
(dp2264
g11
g12
(S'\x07\xdb\x07\x14'
tRp2265
sg14
L100L
sg15
L2L
sg16
L13L
ssg17
(lp2266
VCommonData
p2267
aV2011-07-20
p2268
asg21
Nsa(dp2269
g7
V2011-07-21
p2270
sg9
(dp2271
g11
g12
(S'\x07\xdb\x07\x15'
tRp2272
sg14
L100L
sg15
L2L
sg16
L17L
ssg17
(lp2273
VCommonData
p2274
aV2011-07-21
p2275
asg21
Nsa(dp2276
g7
V2011-07-22
p2277
sg9
(dp2278
g11
g12
(S'\x07\xdb\x07\x16'
tRp2279
sg14
L96L
sg15
L2L
sg16
L11L
ssg17
(lp2280
VCommonData
p2281
aV2011-07-22
p2282
asg21
Nsa(dp2283
g7
V2011-07-23
p2284
sg9
(dp2285
g11
g12
(S'\x07\xdb\x07\x17'
tRp2286
sg14
L92L
sg15
L1L
sg16
L11L
ssg17
(lp2287
VCommonData
p2288
aV2011-07-23
p2289
asg21
Nsa(dp2290
g7
V2011-07-24
p2291
sg9
(dp2292
g11
g12
(S'\x07\xdb\x07\x18'
tRp2293
sg14
L88L
sg15
L2L
sg16
L10L
ssg17
(lp2294
VCommonData
p2295
aV2011-07-24
p2296
asg21
Nsa(dp2297
g7
V2011-07-25
p2298
sg9
(dp2299
g11
g12
(S'\x07\xdb\x07\x19'
tRp2300
sg14
L86L
sg15
L3L
sg16
L5L
ssg17
(lp2301
VCommonData
p2302
aV2011-07-25
p2303
asg21
Nsa(dp2304
g7
V2011-07-26
p2305
sg9
(dp2306
g11
g12
(S'\x07\xdb\x07\x1a'
tRp2307
sg14
L87L
sg15
L1L
sg16
L11L
ssg17
(lp2308
VCommonData
p2309
aV2011-07-26
p2310
asg21
Nsa(dp2311
g7
V2011-07-27
p2312
sg9
(dp2313
g11
g12
(S'\x07\xdb\x07\x1b'
tRp2314
sg14
L94L
sg15
L2L
sg16
L5L
ssg17
(lp2315
VCommonData
p2316
aV2011-07-27
p2317
asg21
Nsa(dp2318
g7
V2011-07-28
p2319
sg9
(dp2320
g11
g12
(S'\x07\xdb\x07\x1c'
tRp2321
sg14
L99L
sg15
L2L
sg16
L4L
ssg17
(lp2322
VCommonData
p2323
aV2011-07-28
p2324
asg21
Nsa(dp2325
g7
V2011-07-29
p2326
sg9
(dp2327
g11
g12
(S'\x07\xdb\x07\x1d'
tRp2328
sg14
L107L
sg15
L2L
sg16
L4L
ssg17
(lp2329
VCommonData
p2330
aV2011-07-29
p2331
asg21
Nsa(dp2332
g7
V2011-07-30
p2333
sg9
(dp2334
g11
g12
(S'\x07\xdb\x07\x1e'
tRp2335
sg14
L112L
sg15
L4L
sg16
L4L
ssg17
(lp2336
VCommonData
p2337
aV2011-07-30
p2338
asg21
Nsa(dp2339
g7
V2011-07-31
p2340
sg9
(dp2341
g11
g12
(S'\x07\xdb\x07\x1f'
tRp2342
sg14
L113L
sg15
L3L
sg16
L11L
ssg17
(lp2343
VCommonData
p2344
aV2011-07-31
p2345
asg21
Nsa(dp2346
g7
V2011-08-01
p2347
sg9
(dp2348
g11
g12
(S'\x07\xdb\x08\x01'
tRp2349
sg14
L119L
sg15
L2L
sg16
L13L
ssg17
(lp2350
VCommonData
p2351
aV2011-08-01
p2352
asg21
Nsa(dp2353
g7
V2011-08-02
p2354
sg9
(dp2355
g11
g12
(S'\x07\xdb\x08\x02'
tRp2356
sg14
L125L
sg15
L2L
sg16
L8L
ssg17
(lp2357
VCommonData
p2358
aV2011-08-02
p2359
asg21
Nsa(dp2360
g7
V2011-08-03
p2361
sg9
(dp2362
g11
g12
(S'\x07\xdb\x08\x03'
tRp2363
sg14
L122L
sg15
L3L
sg16
L4L
ssg17
(lp2364
VCommonData
p2365
aV2011-08-03
p2366
asg21
Nsa(dp2367
g7
V2011-08-04
p2368
sg9
(dp2369
g11
g12
(S'\x07\xdb\x08\x04'
tRp2370
sg14
L120L
sg15
L2L
sg16
L4L
ssg17
(lp2371
VCommonData
p2372
aV2011-08-04
p2373
asg21
Nsa(dp2374
g7
V2011-08-05
p2375
sg9
(dp2376
g11
g12
(S'\x07\xdb\x08\x05'
tRp2377
sg14
L116L
sg15
L2L
sg16
L4L
ssg17
(lp2378
VCommonData
p2379
aV2011-08-05
p2380
asg21
Nsa(dp2381
g7
V2011-08-06
p2382
sg9
(dp2383
g11
g12
(S'\x07\xdb\x08\x06'
tRp2384
sg14
L109L
sg15
L3L
sg16
L27L
ssg17
(lp2385
VCommonData
p2386
aV2011-08-06
p2387
asg21
Nsa(dp2388
g7
V2011-08-07
p2389
sg9
(dp2390
g11
g12
(S'\x07\xdb\x08\x07'
tRp2391
sg14
L110L
sg15
L1L
sg16
L27L
ssg17
(lp2392
VCommonData
p2393
aV2011-08-07
p2394
asg21
Nsa(dp2395
g7
V2011-08-08
p2396
sg9
(dp2397
g11
g12
(S'\x07\xdb\x08\x08'
tRp2398
sg14
L105L
sg15
L2L
sg16
L6L
ssg17
(lp2399
VCommonData
p2400
aV2011-08-08
p2401
asg21
Nsa(dp2402
g7
V2011-08-09
p2403
sg9
(dp2404
g11
g12
(S'\x07\xdb\x08\t'
tRp2405
sg14
L102L
sg15
L1L
sg16
L9L
ssg17
(lp2406
VCommonData
p2407
aV2011-08-09
p2408
asg21
Nsa(dp2409
g7
V2011-08-10
p2410
sg9
(dp2411
g11
g12
(S'\x07\xdb\x08\n'
tRp2412
sg14
L98L
sg15
L1L
sg16
L10L
ssg17
(lp2413
VCommonData
p2414
aV2011-08-10
p2415
asg21
Nsa(dp2416
g7
V2011-08-11
p2417
sg9
(dp2418
g11
g12
(S'\x07\xdb\x08\x0b'
tRp2419
sg14
L90L
sg15
L2L
sg16
L8L
ssg17
(lp2420
VCommonData
p2421
aV2011-08-11
p2422
asg21
Nsa(dp2423
g7
V2011-08-12
p2424
sg9
(dp2425
g11
g12
(S'\x07\xdb\x08\x0c'
tRp2426
sg14
L84L
sg15
L2L
sg16
L5L
ssg17
(lp2427
VCommonData
p2428
aV2011-08-12
p2429
asg21
Nsa(dp2430
g7
V2011-08-13
p2431
sg9
(dp2432
g11
g12
(S'\x07\xdb\x08\r'
tRp2433
sg14
L83L
sg15
L1L
sg16
L5L
ssg17
(lp2434
VCommonData
p2435
aV2011-08-13
p2436
asg21
Nsa(dp2437
g7
V2011-08-14
p2438
sg9
(dp2439
g11
g12
(S'\x07\xdb\x08\x0e'
tRp2440
sg14
L83L
sg15
L2L
sg16
L5L
ssg17
(lp2441
VCommonData
p2442
aV2011-08-14
p2443
asg21
Nsa(dp2444
g7
V2011-08-15
p2445
sg9
(dp2446
g11
g12
(S'\x07\xdb\x08\x0f'
tRp2447
sg14
L88L
sg15
L3L
sg16
L8L
ssg17
(lp2448
VCommonData
p2449
aV2011-08-15
p2450
asg21
Nsa(dp2451
g7
V2011-08-16
p2452
sg9
(dp2453
g11
g12
(S'\x07\xdb\x08\x10'
tRp2454
sg14
L90L
sg15
L2L
sg16
L14L
ssg17
(lp2455
VCommonData
p2456
aV2011-08-16
p2457
asg21
Nsa(dp2458
g7
V2011-08-17
p2459
sg9
(dp2460
g11
g12
(S'\x07\xdb\x08\x11'
tRp2461
sg14
L93L
sg15
L1L
sg16
L8L
ssg17
(lp2462
VCommonData
p2463
aV2011-08-17
p2464
asg21
Nsa(dp2465
g7
V2011-08-18
p2466
sg9
(dp2467
g11
g12
(S'\x07\xdb\x08\x12'
tRp2468
sg14
L98L
sg15
L2L
sg16
L7L
ssg17
(lp2469
VCommonData
p2470
aV2011-08-18
p2471
asg21
Nsa(dp2472
g7
V2011-08-19
p2473
sg9
(dp2474
g11
g12
(S'\x07\xdb\x08\x13'
tRp2475
sg14
L98L
sg15
L2L
sg16
L3L
ssg17
(lp2476
VCommonData
p2477
aV2011-08-19
p2478
asg21
Nsa(dp2479
g7
V2011-08-20
p2480
sg9
(dp2481
g11
g12
(S'\x07\xdb\x08\x14'
tRp2482
sg14
L98L
sg15
L2L
sg16
L3L
ssg17
(lp2483
VCommonData
p2484
aV2011-08-20
p2485
asg21
Nsa(dp2486
g7
V2011-08-21
p2487
sg9
(dp2488
g11
g12
(S'\x07\xdb\x08\x15'
tRp2489
sg14
L101L
sg15
L2L
sg16
L3L
ssg17
(lp2490
VCommonData
p2491
aV2011-08-21
p2492
asg21
Nsa(dp2493
g7
V2011-08-22
p2494
sg9
(dp2495
g11
g12
(S'\x07\xdb\x08\x16'
tRp2496
sg14
L101L
sg15
L1L
sg16
L3L
ssg17
(lp2497
VCommonData
p2498
aV2011-08-22
p2499
asg21
Nsa(dp2500
g7
V2011-08-23
p2501
sg9
(dp2502
g11
g12
(S'\x07\xdb\x08\x17'
tRp2503
sg14
L108L
sg15
L3L
sg16
L7L
ssg17
(lp2504
VCommonData
p2505
aV2011-08-23
p2506
asg21
Nsa(dp2507
g7
V2011-08-24
p2508
sg9
(dp2509
g11
g12
(S'\x07\xdb\x08\x18'
tRp2510
sg14
L104L
sg15
L2L
sg16
L7L
ssg17
(lp2511
VCommonData
p2512
aV2011-08-24
p2513
asg21
Nsa(dp2514
g7
V2011-08-25
p2515
sg9
(dp2516
g11
g12
(S'\x07\xdb\x08\x19'
tRp2517
sg14
L104L
sg15
L1L
sg16
L6L
ssg17
(lp2518
VCommonData
p2519
aV2011-08-25
p2520
asg21
Nsa(dp2521
g7
V2011-08-26
p2522
sg9
(dp2523
g11
g12
(S'\x07\xdb\x08\x1a'
tRp2524
sg14
L104L
sg15
L2L
sg16
L3L
ssg17
(lp2525
VCommonData
p2526
aV2011-08-26
p2527
asg21
Nsa(dp2528
g7
V2011-08-27
p2529
sg9
(dp2530
g11
g12
(S'\x07\xdb\x08\x1b'
tRp2531
sg14
L105L
sg15
L2L
sg16
L3L
ssg17
(lp2532
VCommonData
p2533
aV2011-08-27
p2534
asg21
Nsa(dp2535
g7
V2011-08-28
p2536
sg9
(dp2537
g11
g12
(S'\x07\xdb\x08\x1c'
tRp2538
sg14
L104L
sg15
L2L
sg16
L3L
ssg17
(lp2539
VCommonData
p2540
aV2011-08-28
p2541
asg21
Nsa(dp2542
g7
V2011-08-29
p2543
sg9
(dp2544
g11
g12
(S'\x07\xdb\x08\x1d'
tRp2545
sg14
L101L
sg15
L2L
sg16
L7L
ssg17
(lp2546
VCommonData
p2547
aV2011-08-29
p2548
asg21
Nsa(dp2549
g7
V2011-08-30
p2550
sg9
(dp2551
g11
g12
(S'\x07\xdb\x08\x1e'
tRp2552
sg14
L101L
sg15
L3L
sg16
L7L
ssg17
(lp2553
VCommonData
p2554
aV2011-08-30
p2555
asg21
Nsa(dp2556
g7
V2011-08-31
p2557
sg9
(dp2558
g11
g12
(S'\x07\xdb\x08\x1f'
tRp2559
sg14
L101L
sg15
L2L
sg16
L5L
ssg17
(lp2560
VCommonData
p2561
aV2011-08-31
p2562
asg21
Nsa(dp2563
g7
V2011-09-01
p2564
sg9
(dp2565
g11
g12
(S'\x07\xdb\t\x01'
tRp2566
sg14
L109L
sg15
L1L
sg16
L3L
ssg17
(lp2567
VCommonData
p2568
aV2011-09-01
p2569
asg21
Nsa(dp2570
g7
V2011-09-02
p2571
sg9
(dp2572
g11
g12
(S'\x07\xdb\t\x02'
tRp2573
sg14
L112L
sg15
L1L
sg16
L2L
ssg17
(lp2574
VCommonData
p2575
aV2011-09-02
p2576
asg21
Nsa(dp2577
g7
V2011-09-03
p2578
sg9
(dp2579
g11
g12
(S'\x07\xdb\t\x03'
tRp2580
sg14
L115L
sg15
L2L
sg16
L4L
ssg17
(lp2581
VCommonData
p2582
aV2011-09-03
p2583
asg21
Nsa(dp2584
g7
V2011-09-04
p2585
sg9
(dp2586
g11
g12
(S'\x07\xdb\t\x04'
tRp2587
sg14
L119L
sg15
L3L
sg16
L11L
ssg17
(lp2588
VCommonData
p2589
aV2011-09-04
p2590
asg21
Nsa(dp2591
g7
V2011-09-05
p2592
sg9
(dp2593
g11
g12
(S'\x07\xdb\t\x05'
tRp2594
sg14
L119L
sg15
L1L
sg16
L7L
ssg17
(lp2595
VCommonData
p2596
aV2011-09-05
p2597
asg21
Nsa(dp2598
g7
V2011-09-06
p2599
sg9
(dp2600
g11
g12
(S'\x07\xdb\t\x06'
tRp2601
sg14
L119L
sg15
L2L
sg16
L5L
ssg17
(lp2602
VCommonData
p2603
aV2011-09-06
p2604
asg21
Nsa(dp2605
g7
V2011-09-07
p2606
sg9
(dp2607
g11
g12
(S'\x07\xdb\t\x07'
tRp2608
sg14
L112L
sg15
L1L
sg16
L8L
ssg17
(lp2609
VCommonData
p2610
aV2011-09-07
p2611
asg21
Nsa(dp2612
g7
V2011-09-08
p2613
sg9
(dp2614
g11
g12
(S'\x07\xdb\t\x08'
tRp2615
sg14
L113L
sg15
L1L
sg16
L7L
ssg17
(lp2616
VCommonData
p2617
aV2011-09-08
p2618
asg21
Nsa(dp2619
g7
V2011-09-09
p2620
sg9
(dp2621
g11
g12
(S'\x07\xdb\t\t'
tRp2622
sg14
L110L
sg15
L6L
sg16
L5L
ssg17
(lp2623
VCommonData
p2624
aV2011-09-09
p2625
asg21
Nsa(dp2626
g7
V2011-09-10
p2627
sg9
(dp2628
g11
g12
(S'\x07\xdb\t\n'
tRp2629
sg14
L112L
sg15
L5L
sg16
L24L
ssg17
(lp2630
VCommonData
p2631
aV2011-09-10
p2632
asg21
Nsa(dp2633
g7
V2011-09-11
p2634
sg9
(dp2635
g11
g12
(S'\x07\xdb\t\x0b'
tRp2636
sg14
L116L
sg15
L3L
sg16
L34L
ssg17
(lp2637
VCommonData
p2638
aV2011-09-11
p2639
asg21
Nsa(dp2640
g7
V2011-09-12
p2641
sg9
(dp2642
g11
g12
(S'\x07\xdb\t\x0c'
tRp2643
sg14
L121L
sg15
L3L
sg16
L10L
ssg17
(lp2644
VCommonData
p2645
aV2011-09-12
p2646
asg21
Nsa(dp2647
g7
V2011-09-13
p2648
sg9
(dp2649
g11
g12
(S'\x07\xdb\t\r'
tRp2650
sg14
L124L
sg15
L2L
sg16
L24L
ssg17
(lp2651
VCommonData
p2652
aV2011-09-13
p2653
asg21
Nsa(dp2654
g7
V2011-09-14
p2655
sg9
(dp2656
g11
g12
(S'\x07\xdb\t\x0e'
tRp2657
sg14
L129L
sg15
L2L
sg16
L15L
ssg17
(lp2658
VCommonData
p2659
aV2011-09-14
p2660
asg21
Nsa(dp2661
g7
V2011-09-15
p2662
sg9
(dp2663
g11
g12
(S'\x07\xdb\t\x0f'
tRp2664
sg14
L143L
sg15
L2L
sg16
L6L
ssg17
(lp2665
VCommonData
p2666
aV2011-09-15
p2667
asg21
Nsa(dp2668
g7
V2011-09-16
p2669
sg9
(dp2670
g11
g12
(S'\x07\xdb\t\x10'
tRp2671
sg14
L141L
sg15
L2L
sg16
L7L
ssg17
(lp2672
VCommonData
p2673
aV2011-09-16
p2674
asg21
Nsa(dp2675
g7
V2011-09-17
p2676
sg9
(dp2677
g11
g12
(S'\x07\xdb\t\x11'
tRp2678
sg14
L143L
sg15
L5L
sg16
L3L
ssg17
(lp2679
VCommonData
p2680
aV2011-09-17
p2681
asg21
Nsa(dp2682
g7
V2011-09-18
p2683
sg9
(dp2684
g11
g12
(S'\x07\xdb\t\x12'
tRp2685
sg14
L145L
sg15
L2L
sg16
L21L
ssg17
(lp2686
VCommonData
p2687
aV2011-09-18
p2688
asg21
Nsa(dp2689
g7
V2011-09-19
p2690
sg9
(dp2691
g11
g12
(S'\x07\xdb\t\x13'
tRp2692
sg14
L150L
sg15
L2L
sg16
L6L
ssg17
(lp2693
VCommonData
p2694
aV2011-09-19
p2695
asg21
Nsa(dp2696
g7
V2011-09-20
p2697
sg9
(dp2698
g11
g12
(S'\x07\xdb\t\x14'
tRp2699
sg14
L141L
sg15
L2L
sg16
L2L
ssg17
(lp2700
VCommonData
p2701
aV2011-09-20
p2702
asg21
Nsa(dp2703
g7
V2011-09-21
p2704
sg9
(dp2705
g11
g12
(S'\x07\xdb\t\x15'
tRp2706
sg14
L144L
sg15
L2L
sg16
L7L
ssg17
(lp2707
VCommonData
p2708
aV2011-09-21
p2709
asg21
Nsa(dp2710
g7
V2011-09-22
p2711
sg9
(dp2712
g11
g12
(S'\x07\xdb\t\x16'
tRp2713
sg14
L144L
sg15
L2L
sg16
L5L
ssg17
(lp2714
VCommonData
p2715
aV2011-09-22
p2716
asg21
Nsa(dp2717
g7
V2011-09-23
p2718
sg9
(dp2719
g11
g12
(S'\x07\xdb\t\x17'
tRp2720
sg14
L151L
sg15
L1L
sg16
L4L
ssg17
(lp2721
VCommonData
p2722
aV2011-09-23
p2723
asg21
Nsa(dp2724
g7
V2011-09-24
p2725
sg9
(dp2726
g11
g12
(S'\x07\xdb\t\x18'
tRp2727
sg14
L158L
sg15
L1L
sg16
L3L
ssg17
(lp2728
VCommonData
p2729
aV2011-09-24
p2730
asg21
Nsa(dp2731
g7
V2011-09-25
p2732
sg9
(dp2733
g11
g12
(S'\x07\xdb\t\x19'
tRp2734
sg14
L190L
sg15
L3L
sg16
L4L
ssg17
(lp2735
VCommonData
p2736
aV2011-09-25
p2737
asg21
Nsa(dp2738
g7
V2011-09-26
p2739
sg9
(dp2740
g11
g12
(S'\x07\xdb\t\x1a'
tRp2741
sg14
L169L
sg15
L6L
sg16
L6L
ssg17
(lp2742
VCommonData
p2743
aV2011-09-26
p2744
asg21
Nsa(dp2745
g7
V2011-09-27
p2746
sg9
(dp2747
g11
g12
(S'\x07\xdb\t\x1b'
tRp2748
sg14
L148L
sg15
L3L
sg16
L27L
ssg17
(lp2749
VCommonData
p2750
aV2011-09-27
p2751
asg21
Nsa(dp2752
g7
V2011-09-28
p2753
sg9
(dp2754
g11
g12
(S'\x07\xdb\t\x1c'
tRp2755
sg14
L139L
sg15
L3L
sg16
L29L
ssg17
(lp2756
VCommonData
p2757
aV2011-09-28
p2758
asg21
Nsa(dp2759
g7
V2011-09-29
p2760
sg9
(dp2761
g11
g12
(S'\x07\xdb\t\x1d'
tRp2762
sg14
L133L
sg15
L3L
sg16
L27L
ssg17
(lp2763
VCommonData
p2764
aV2011-09-29
p2765
asg21
Nsa(dp2766
g7
V2011-09-30
p2767
sg9
(dp2768
g11
g12
(S'\x07\xdb\t\x1e'
tRp2769
sg14
L137L
sg15
L2L
sg16
L25L
ssg17
(lp2770
VCommonData
p2771
aV2011-09-30
p2772
asg21
Nsa(dp2773
g7
V2011-10-01
p2774
sg9
(dp2775
g11
g12
(S'\x07\xdb\n\x01'
tRp2776
sg14
L138L
sg15
L2L
sg16
L5L
ssg17
(lp2777
VCommonData
p2778
aV2011-10-01
p2779
asg21
Nsa(dp2780
g7
V2011-10-02
p2781
sg9
(dp2782
g11
g12
(S'\x07\xdb\n\x02'
tRp2783
sg14
L137L
sg15
L3L
sg16
L13L
ssg17
(lp2784
VCommonData
p2785
aV2011-10-02
p2786
asg21
Nsa(dp2787
g7
V2011-10-03
p2788
sg9
(dp2789
g11
g12
(S'\x07\xdb\n\x03'
tRp2790
sg14
L131L
sg15
L2L
sg16
L11L
ssg17
(lp2791
VCommonData
p2792
aV2011-10-03
p2793
asg21
Nsa(dp2794
g7
V2011-10-04
p2795
sg9
(dp2796
g11
g12
(S'\x07\xdb\n\x04'
tRp2797
sg14
L129L
sg15
L2L
sg16
L6L
ssg17
(lp2798
VCommonData
p2799
aV2011-10-04
p2800
asg21
Nsa(dp2801
g7
V2011-10-05
p2802
sg9
(dp2803
g11
g12
(S'\x07\xdb\n\x05'
tRp2804
sg14
L130L
sg15
L5L
sg16
L6L
ssg17
(lp2805
VCommonData
p2806
aV2011-10-05
p2807
asg21
Nsa(dp2808
g7
V2011-10-06
p2809
sg9
(dp2810
g11
g12
(S'\x07\xdb\n\x06'
tRp2811
sg14
L127L
sg15
L3L
sg16
L19L
ssg17
(lp2812
VCommonData
p2813
aV2011-10-06
p2814
asg21
Nsa(dp2815
g7
V2011-10-07
p2816
sg9
(dp2817
g11
g12
(S'\x07\xdb\n\x07'
tRp2818
sg14
L124L
sg15
L1L
sg16
L8L
ssg17
(lp2819
VCommonData
p2820
aV2011-10-07
p2821
asg21
Nsa(dp2822
g7
V2011-10-08
p2823
sg9
(dp2824
g11
g12
(S'\x07\xdb\n\x08'
tRp2825
sg14
L122L
sg15
L3L
sg16
L7L
ssg17
(lp2826
VCommonData
p2827
aV2011-10-08
p2828
asg21
Nsa(dp2829
g7
V2011-10-09
p2830
sg9
(dp2831
g11
g12
(S'\x07\xdb\n\t'
tRp2832
sg14
L118L
sg15
L2L
sg16
L8L
ssg17
(lp2833
VCommonData
p2834
aV2011-10-09
p2835
asg21
Nsa(dp2836
g7
V2011-10-10
p2837
sg9
(dp2838
g11
g12
(S'\x07\xdb\n\n'
tRp2839
sg14
L121L
sg15
L1L
sg16
L12L
ssg17
(lp2840
VCommonData
p2841
aV2011-10-10
p2842
asg21
Nsa(dp2843
g7
V2011-10-11
p2844
sg9
(dp2845
g11
g12
(S'\x07\xdb\n\x0b'
tRp2846
sg14
L126L
sg15
L3L
sg16
L3L
ssg17
(lp2847
VCommonData
p2848
aV2011-10-11
p2849
asg21
Nsa(dp2850
g7
V2011-10-12
p2851
sg9
(dp2852
g11
g12
(S'\x07\xdb\n\x0c'
tRp2853
sg14
L130L
sg15
L2L
sg16
L4L
ssg17
(lp2854
VCommonData
p2855
aV2011-10-12
p2856
asg21
Nsa(dp2857
g7
V2011-10-13
p2858
sg9
(dp2859
g11
g12
(S'\x07\xdb\n\r'
tRp2860
sg14
L134L
sg15
L2L
sg16
L6L
ssg17
(lp2861
VCommonData
p2862
aV2011-10-13
p2863
asg21
Nsa(dp2864
g7
V2011-10-14
p2865
sg9
(dp2866
g11
g12
(S'\x07\xdb\n\x0e'
tRp2867
sg14
L138L
sg15
L1L
sg16
L4L
ssg17
(lp2868
VCommonData
p2869
aV2011-10-14
p2870
asg21
Nsa(dp2871
g7
V2011-10-15
p2872
sg9
(dp2873
g11
g12
(S'\x07\xdb\n\x0f'
tRp2874
sg14
L136L
sg15
L2L
sg16
L1L
ssg17
(lp2875
VCommonData
p2876
aV2011-10-15
p2877
asg21
Nsa(dp2878
g7
V2011-10-16
p2879
sg9
(dp2880
g11
g12
(S'\x07\xdb\n\x10'
tRp2881
sg14
L138L
sg15
L2L
sg16
L5L
ssg17
(lp2882
VCommonData
p2883
aV2011-10-16
p2884
asg21
Nsa(dp2885
g7
V2011-10-17
p2886
sg9
(dp2887
g11
g12
(S'\x07\xdb\n\x11'
tRp2888
sg14
L151L
sg15
L2L
sg16
L7L
ssg17
(lp2889
VCommonData
p2890
aV2011-10-17
p2891
asg21
Nsa(dp2892
g7
V2011-10-18
p2893
sg9
(dp2894
g11
g12
(S'\x07\xdb\n\x12'
tRp2895
sg14
L153L
sg15
L2L
sg16
L3L
ssg17
(lp2896
VCommonData
p2897
aV2011-10-18
p2898
asg21
Nsa(dp2899
g7
V2011-10-19
p2900
sg9
(dp2901
g11
g12
(S'\x07\xdb\n\x13'
tRp2902
sg14
L147L
sg15
L2L
sg16
L4L
ssg17
(lp2903
VCommonData
p2904
aV2011-10-19
p2905
asg21
Nsa(dp2906
g7
V2011-10-20
p2907
sg9
(dp2908
g11
g12
(S'\x07\xdb\n\x14'
tRp2909
sg14
L147L
sg15
L2L
sg16
L4L
ssg17
(lp2910
VCommonData
p2911
aV2011-10-20
p2912
asg21
Nsa(dp2913
g7
V2011-10-21
p2914
sg9
(dp2915
g11
g12
(S'\x07\xdb\n\x15'
tRp2916
sg14
L159L
sg15
L2L
sg16
L3L
ssg17
(lp2917
VCommonData
p2918
aV2011-10-21
p2919
asg21
Nsa(dp2920
g7
V2011-10-22
p2921
sg9
(dp2922
g11
g12
(S'\x07\xdb\n\x16'
tRp2923
sg14
L168L
sg15
L1L
sg16
L5L
ssg17
(lp2924
VCommonData
p2925
aV2011-10-22
p2926
asg21
Nsa(dp2927
g7
V2011-10-23
p2928
sg9
(dp2929
g11
g12
(S'\x07\xdb\n\x17'
tRp2930
sg14
L164L
sg15
L2L
sg16
L1L
ssg17
(lp2931
VCommonData
p2932
aV2011-10-23
p2933
asg21
Nsa(dp2934
g7
V2011-10-24
p2935
sg9
(dp2936
g11
g12
(S'\x07\xdb\n\x18'
tRp2937
sg14
L156L
sg15
L2L
sg16
L3L
ssg17
(lp2938
VCommonData
p2939
aV2011-10-24
p2940
asg21
Nsa(dp2941
g7
V2011-10-25
p2942
sg9
(dp2943
g11
g12
(S'\x07\xdb\n\x19'
tRp2944
sg14
L145L
sg15
L2L
sg16
L16L
ssg17
(lp2945
VCommonData
p2946
aV2011-10-25
p2947
asg21
Nsa(dp2948
g7
V2011-10-26
p2949
sg9
(dp2950
g11
g12
(S'\x07\xdb\n\x1a'
tRp2951
sg14
L139L
sg15
L2L
sg16
L25L
ssg17
(lp2952
VCommonData
p2953
aV2011-10-26
p2954
asg21
Nsa(dp2955
g7
V2011-10-27
p2956
sg9
(dp2957
g11
g12
(S'\x07\xdb\n\x1b'
tRp2958
sg14
L132L
sg15
L2L
sg16
L4L
ssg17
(lp2959
VCommonData
p2960
aV2011-10-27
p2961
asg21
Nsa(dp2962
g7
V2011-10-28
p2963
sg9
(dp2964
g11
g12
(S'\x07\xdb\n\x1c'
tRp2965
sg14
L132L
sg15
L0L
sg16
L6L
ssg17
(lp2966
VCommonData
p2967
aV2011-10-28
p2968
asg21
Nsa(dp2969
g7
V2011-10-29
p2970
sg9
(dp2971
g11
g12
(S'\x07\xdb\n\x1d'
tRp2972
sg14
L134L
sg15
L0L
sg16
L0L
ssg17
(lp2973
VCommonData
p2974
aV2011-10-29
p2975
asg21
Nsa(dp2976
g7
V2011-10-30
p2977
sg9
(dp2978
g11
g12
(S'\x07\xdb\n\x1e'
tRp2979
sg14
L123L
sg15
L4L
sg16
L1L
ssg17
(lp2980
VCommonData
p2981
aV2011-10-30
p2982
asg21
Nsa(dp2983
g7
V2011-10-31
p2984
sg9
(dp2985
g11
g12
(S'\x07\xdb\n\x1f'
tRp2986
sg14
L127L
sg15
L2L
sg16
L7L
ssg17
(lp2987
VCommonData
p2988
aV2011-10-31
p2989
asg21
Nsa(dp2990
g7
V2011-11-01
p2991
sg9
(dp2992
g11
g12
(S'\x07\xdb\x0b\x01'
tRp2993
sg14
L138L
sg15
L3L
sg16
L7L
ssg17
(lp2994
VCommonData
p2995
aV2011-11-01
p2996
asg21
Nsa(dp2997
g7
V2011-11-02
p2998
sg9
(dp2999
g11
g12
(S'\x07\xdb\x0b\x02'
tRp3000
sg14
L139L
sg15
L3L
sg16
L19L
ssg17
(lp3001
VCommonData
p3002
aV2011-11-02
p3003
asg21
Nsa(dp3004
g7
V2011-11-03
p3005
sg9
(dp3006
g11
g12
(S'\x07\xdb\x0b\x03'
tRp3007
sg14
L154L
sg15
L2L
sg16
L12L
ssg17
(lp3008
VCommonData
p3009
aV2011-11-03
p3010
asg21
Nsa(dp3011
g7
V2011-11-04
p3012
sg9
(dp3013
g11
g12
(S'\x07\xdb\x0b\x04'
tRp3014
sg14
L160L
sg15
L2L
sg16
L4L
ssg17
(lp3015
VCommonData
p3016
aV2011-11-04
p3017
asg21
Nsa(dp3018
g7
V2011-11-05
p3019
sg9
(dp3020
g11
g12
(S'\x07\xdb\x0b\x05'
tRp3021
sg14
L164L
sg15
L2L
sg16
L4L
ssg17
(lp3022
VCommonData
p3023
aV2011-11-05
p3024
asg21
Nsa(dp3025
g7
V2011-11-06
p3026
sg9
(dp3027
g11
g12
(S'\x07\xdb\x0b\x06'
tRp3028
sg14
L172L
sg15
L3L
sg16
L4L
ssg17
(lp3029
VCommonData
p3030
aV2011-11-06
p3031
asg21
Nsa(dp3032
g7
V2011-11-07
p3033
sg9
(dp3034
g11
g12
(S'\x07\xdb\x0b\x07'
tRp3035
sg14
L177L
sg15
L3L
sg16
L4L
ssg17
(lp3036
VCommonData
p3037
aV2011-11-07
p3038
asg21
Nsa(dp3039
g7
V2011-11-08
p3040
sg9
(dp3041
g11
g12
(S'\x07\xdb\x0b\x08'
tRp3042
sg14
L182L
sg15
L3L
sg16
L7L
ssg17
(lp3043
VCommonData
p3044
aV2011-11-08
p3045
asg21
Nsa(dp3046
g7
V2011-11-09
p3047
sg9
(dp3048
g11
g12
(S'\x07\xdb\x0b\t'
tRp3049
sg14
L181L
sg15
L2L
sg16
L8L
ssg17
(lp3050
VCommonData
p3051
aV2011-11-09
p3052
asg21
Nsa(dp3053
g7
V2011-11-10
p3054
sg9
(dp3055
g11
g12
(S'\x07\xdb\x0b\n'
tRp3056
sg14
L180L
sg15
L2L
sg16
L2L
ssg17
(lp3057
VCommonData
p3058
aV2011-11-10
p3059
asg21
Nsa(dp3060
g7
V2011-11-11
p3061
sg9
(dp3062
g11
g12
(S'\x07\xdb\x0b\x0b'
tRp3063
sg14
L179L
sg15
L2L
sg16
L4L
ssg17
(lp3064
VCommonData
p3065
aV2011-11-11
p3066
asg21
Nsa(dp3067
g7
V2011-11-12
p3068
sg9
(dp3069
g11
g12
(S'\x07\xdb\x0b\x0c'
tRp3070
sg14
L174L
sg15
L2L
sg16
L2L
ssg17
(lp3071
VCommonData
p3072
aV2011-11-12
p3073
asg21
Nsa(dp3074
g7
V2011-11-13
p3075
sg9
(dp3076
g11
g12
(S'\x07\xdb\x0b\r'
tRp3077
sg14
L169L
sg15
L1L
sg16
L2L
ssg17
(lp3078
VCommonData
p3079
aV2011-11-13
p3080
asg21
Nsa(dp3081
g7
V2011-11-14
p3082
sg9
(dp3083
g11
g12
(S'\x07\xdb\x0b\x0e'
tRp3084
sg14
L155L
sg15
L1L
sg16
L1L
ssg17
(lp3085
VCommonData
p3086
aV2011-11-14
p3087
asg21
Nsa(dp3088
g7
V2011-11-15
p3089
sg9
(dp3090
g11
g12
(S'\x07\xdb\x0b\x0f'
tRp3091
sg14
L161L
sg15
L2L
sg16
L0L
ssg17
(lp3092
VCommonData
p3093
aV2011-11-15
p3094
asg21
Nsa(dp3095
g7
V2011-11-16
p3096
sg9
(dp3097
g11
g12
(S'\x07\xdb\x0b\x10'
tRp3098
sg14
L148L
sg15
L2L
sg16
L7L
ssg17
(lp3099
VCommonData
p3100
aV2011-11-16
p3101
asg21
Nsa(dp3102
g7
V2011-11-17
p3103
sg9
(dp3104
g11
g12
(S'\x07\xdb\x0b\x11'
tRp3105
sg14
L142L
sg15
L2L
sg16
L4L
ssg17
(lp3106
VCommonData
p3107
aV2011-11-17
p3108
asg21
Nsa(dp3109
g7
V2011-11-18
p3110
sg9
(dp3111
g11
g12
(S'\x07\xdb\x0b\x12'
tRp3112
sg14
L148L
sg15
L1L
sg16
L4L
ssg17
(lp3113
VCommonData
p3114
aV2011-11-18
p3115
asg21
Nsa(dp3116
g7
V2011-11-19
p3117
sg9
(dp3118
g11
g12
(S'\x07\xdb\x0b\x13'
tRp3119
sg14
L144L
sg15
L0L
sg16
L1L
ssg17
(lp3120
VCommonData
p3121
aV2011-11-19
p3122
asg21
Nsa(dp3123
g7
V2011-11-20
p3124
sg9
(dp3125
g11
g12
(S'\x07\xdb\x0b\x14'
tRp3126
sg14
L140L
sg15
L1L
sg16
L0L
ssg17
(lp3127
VCommonData
p3128
aV2011-11-20
p3129
asg21
Nsa(dp3130
g7
V2011-11-21
p3131
sg9
(dp3132
g11
g12
(S'\x07\xdb\x0b\x15'
tRp3133
sg14
L140L
sg15
L2L
sg16
L1L
ssg17
(lp3134
VCommonData
p3135
aV2011-11-21
p3136
asg21
Nsa(dp3137
g7
V2011-11-22
p3138
sg9
(dp3139
g11
g12
(S'\x07\xdb\x0b\x16'
tRp3140
sg14
L141L
sg15
L2L
sg16
L5L
ssg17
(lp3141
VCommonData
p3142
aV2011-11-22
p3143
asg21
Nsa(dp3144
g7
V2011-11-23
p3145
sg9
(dp3146
g11
g12
(S'\x07\xdb\x0b\x17'
tRp3147
sg14
L142L
sg15
L2L
sg16
L7L
ssg17
(lp3148
VCommonData
p3149
aV2011-11-23
p3150
asg21
Nsa(dp3151
g7
V2011-11-24
p3152
sg9
(dp3153
g11
g12
(S'\x07\xdb\x0b\x18'
tRp3154
sg14
L140L
sg15
L2L
sg16
L6L
ssg17
(lp3155
VCommonData
p3156
aV2011-11-24
p3157
asg21
Nsa(dp3158
g7
V2011-11-25
p3159
sg9
(dp3160
g11
g12
(S'\x07\xdb\x0b\x19'
tRp3161
sg14
L137L
sg15
L2L
sg16
L5L
ssg17
(lp3162
VCommonData
p3163
aV2011-11-25
p3164
asg21
Nsa(dp3165
g7
V2011-11-26
p3166
sg9
(dp3167
g11
g12
(S'\x07\xdb\x0b\x1a'
tRp3168
sg14
L135L
sg15
L2L
sg16
L4L
ssg17
(lp3169
VCommonData
p3170
aV2011-11-26
p3171
asg21
Nsa(dp3172
g7
V2011-11-27
p3173
sg9
(dp3174
g11
g12
(S'\x07\xdb\x0b\x1b'
tRp3175
sg14
L133L
sg15
L2L
sg16
L4L
ssg17
(lp3176
VCommonData
p3177
aV2011-11-27
p3178
asg21
Nsa(dp3179
g7
V2011-11-28
p3180
sg9
(dp3181
g11
g12
(S'\x07\xdb\x0b\x1c'
tRp3182
sg14
L135L
sg15
L2L
sg16
L6L
ssg17
(lp3183
VCommonData
p3184
aV2011-11-28
p3185
asg21
Nsa(dp3186
g7
V2011-11-29
p3187
sg9
(dp3188
g11
g12
(S'\x07\xdb\x0b\x1d'
tRp3189
sg14
L138L
sg15
L2L
sg16
L5L
ssg17
(lp3190
VCommonData
p3191
aV2011-11-29
p3192
asg21
Nsa(dp3193
g7
V2011-11-30
p3194
sg9
(dp3195
g11
g12
(S'\x07\xdb\x0b\x1e'
tRp3196
sg14
L141L
sg15
L3L
sg16
L11L
ssg17
(lp3197
VCommonData
p3198
aV2011-11-30
p3199
asg21
Nsa(dp3200
g7
V2011-12-01
p3201
sg9
(dp3202
g11
g12
(S'\x07\xdb\x0c\x01'
tRp3203
sg14
L144L
sg15
L2L
sg16
L12L
ssg17
(lp3204
VCommonData
p3205
aV2011-12-01
p3206
asg21
Nsa(dp3207
g7
V2011-12-02
p3208
sg9
(dp3209
g11
g12
(S'\x07\xdb\x0c\x02'
tRp3210
sg14
L155L
sg15
L2L
sg16
L7L
ssg17
(lp3211
VCommonData
p3212
aV2011-12-02
p3213
asg21
Nsa(dp3214
g7
V2011-12-03
p3215
sg9
(dp3216
g11
g12
(S'\x07\xdb\x0c\x03'
tRp3217
sg14
L157L
sg15
L2L
sg16
L3L
ssg17
(lp3218
VCommonData
p3219
aV2011-12-03
p3220
asg21
Nsa(dp3221
g7
V2011-12-04
p3222
sg9
(dp3223
g11
g12
(S'\x07\xdb\x0c\x04'
tRp3224
sg14
L160L
sg15
L2L
sg16
L8L
ssg17
(lp3225
VCommonData
p3226
aV2011-12-04
p3227
asg21
Nsa(dp3228
g7
V2011-12-05
p3229
sg9
(dp3230
g11
g12
(S'\x07\xdb\x0c\x05'
tRp3231
sg14
L164L
sg15
L2L
sg16
L4L
ssg17
(lp3232
VCommonData
p3233
aV2011-12-05
p3234
asg21
Nsa(dp3235
g7
V2011-12-06
p3236
sg9
(dp3237
g11
g12
(S'\x07\xdb\x0c\x06'
tRp3238
sg14
L158L
sg15
L1L
sg16
L2L
ssg17
(lp3239
VCommonData
p3240
aV2011-12-06
p3241
asg21
Nsa(dp3242
g7
V2011-12-07
p3243
sg9
(dp3244
g11
g12
(S'\x07\xdb\x0c\x07'
tRp3245
sg14
L151L
sg15
L1L
sg16
L1L
ssg17
(lp3246
VCommonData
p3247
aV2011-12-07
p3248
asg21
Nsa(dp3249
g7
V2011-12-08
p3250
sg9
(dp3251
g11
g12
(S'\x07\xdb\x0c\x08'
tRp3252
sg14
L149L
sg15
L1L
sg16
L1L
ssg17
(lp3253
VCommonData
p3254
aV2011-12-08
p3255
asg21
Nsa(dp3256
g7
V2011-12-09
p3257
sg9
(dp3258
g11
g12
(S'\x07\xdb\x0c\t'
tRp3259
sg14
L145L
sg15
L2L
sg16
L2L
ssg17
(lp3260
VCommonData
p3261
aV2011-12-09
p3262
asg21
Nsa(dp3263
g7
V2011-12-10
p3264
sg9
(dp3265
g11
g12
(S'\x07\xdb\x0c\n'
tRp3266
sg14
L144L
sg15
L1L
sg16
L3L
ssg17
(lp3267
VCommonData
p3268
aV2011-12-10
p3269
asg21
Nsa(dp3270
g7
V2011-12-11
p3271
sg9
(dp3272
g11
g12
(S'\x07\xdb\x0c\x0b'
tRp3273
sg14
L140L
sg15
L2L
sg16
L9L
ssg17
(lp3274
VCommonData
p3275
aV2011-12-11
p3276
asg21
Nsa(dp3277
g7
V2011-12-12
p3278
sg9
(dp3279
g11
g12
(S'\x07\xdb\x0c\x0c'
tRp3280
sg14
L134L
sg15
L2L
sg16
L6L
ssg17
(lp3281
VCommonData
p3282
aV2011-12-12
p3283
asg21
Nsa(dp3284
g7
V2011-12-27
p3285
sg9
(dp3286
g11
g12
(S'\x07\xdb\x0c\x1b'
tRp3287
sg14
L146L
sg15
L0L
sg16
L1L
ssg17
(lp3288
VCommonData
p3289
aV2011-12-27
p3290
asg21
Nsa(dp3291
g7
V2011-12-28
p3292
sg9
(dp3293
g11
g12
(S'\x07\xdb\x0c\x1c'
tRp3294
sg14
L140L
sg15
L2L
sg16
L0L
ssg17
(lp3295
VCommonData
p3296
aV2011-12-28
p3297
asg21
Nsa(dp3298
g7
V2011-12-29
p3299
sg9
(dp3300
g11
g12
(S'\x07\xdb\x0c\x1d'
tRp3301
sg14
L145L
sg15
L1L
sg16
L2L
ssg17
(lp3302
VCommonData
p3303
aV2011-12-29
p3304
asg21
Nsa(dp3305
g7
V2011-12-30
p3306
sg9
(dp3307
g11
g12
(S'\x07\xdb\x0c\x1e'
tRp3308
sg14
L147L
sg15
L2L
sg16
L6L
ssg17
(lp3309
VCommonData
p3310
aV2011-12-30
p3311
asg21
Nsa(dp3312
g7
V2011-12-31
p3313
sg9
(dp3314
g11
g12
(S'\x07\xdb\x0c\x1f'
tRp3315
sg14
L141L
sg15
L0L
sg16
L4L
ssg17
(lp3316
VCommonData
p3317
aV2011-12-31
p3318
asg21
Nsa(dp3319
g7
V2012-01-01
p3320
sg9
(dp3321
g11
g12
(S'\x07\xdc\x01\x01'
tRp3322
sg14
L133L
sg15
L1L
sg16
L3L
ssg17
(lp3323
VCommonData
p3324
aV2012-01-01
p3325
asg21
Nsa(dp3326
g7
V2012-01-02
p3327
sg9
(dp3328
g11
g12
(S'\x07\xdc\x01\x02'
tRp3329
sg14
L130L
sg15
L1L
sg16
L3L
ssg17
(lp3330
VCommonData
p3331
aV2012-01-02
p3332
asg21
Nsa(dp3333
g7
V2012-01-03
p3334
sg9
(dp3335
g11
g12
(S'\x07\xdc\x01\x03'
tRp3336
sg14
L135L
sg15
L1L
sg16
L3L
ssg17
(lp3337
VCommonData
p3338
aV2012-01-03
p3339
asg21
Nsa(dp3340
g7
V2012-01-04
p3341
sg9
(dp3342
g11
g12
(S'\x07\xdc\x01\x04'
tRp3343
sg14
L135L
sg15
L1L
sg16
L7L
ssg17
(lp3344
VCommonData
p3345
aV2012-01-04
p3346
asg21
Nsa(dp3347
g7
V2012-01-05
p3348
sg9
(dp3349
g11
g12
(S'\x07\xdc\x01\x05'
tRp3350
sg14
L136L
sg15
L2L
sg16
L3L
ssg17
(lp3351
VCommonData
p3352
aV2012-01-05
p3353
asg21
Nsa(dp3354
g7
V2012-01-06
p3355
sg9
(dp3356
g11
g12
(S'\x07\xdc\x01\x06'
tRp3357
sg14
L141L
sg15
L2L
sg16
L5L
ssg17
(lp3358
VCommonData
p3359
aV2012-01-06
p3360
asg21
Nsa(dp3361
g7
V2012-01-07
p3362
sg9
(dp3363
g11
g12
(S'\x07\xdc\x01\x07'
tRp3364
sg14
L136L
sg15
L1L
sg16
L5L
ssg17
(lp3365
VCommonData
p3366
aV2012-01-07
p3367
asg21
Nsa(dp3368
g7
V2012-01-08
p3369
sg9
(dp3370
g11
g12
(S'\x07\xdc\x01\x08'
tRp3371
sg14
L141L
sg15
L1L
sg16
L5L
ssg17
(lp3372
VCommonData
p3373
aV2012-01-08
p3374
asg21
Nsa(dp3375
g7
V2012-01-09
p3376
sg9
(dp3377
g11
g12
(S'\x07\xdc\x01\t'
tRp3378
sg14
L136L
sg15
L2L
sg16
L4L
ssg17
(lp3379
VCommonData
p3380
aV2012-01-09
p3381
asg21
Nsa(dp3382
g7
V2012-01-10
p3383
sg9
(dp3384
g11
g12
(S'\x07\xdc\x01\n'
tRp3385
sg14
L142L
sg15
L1L
sg16
L6L
ssg17
(lp3386
VCommonData
p3387
aV2012-01-10
p3388
asg21
Nsa(dp3389
g7
V2012-01-11
p3390
sg9
(dp3391
g11
g12
(S'\x07\xdc\x01\x0b'
tRp3392
sg14
L129L
sg15
L1L
sg16
L4L
ssg17
(lp3393
VCommonData
p3394
aV2012-01-11
p3395
asg21
Nsa(dp3396
g7
V2012-01-12
p3397
sg9
(dp3398
g11
g12
(S'\x07\xdc\x01\x0c'
tRp3399
sg14
L120L
sg15
L1L
sg16
L5L
ssg17
(lp3400
VCommonData
p3401
aV2012-01-12
p3402
asg21
Nsa(dp3403
g7
V2012-01-13
p3404
sg9
(dp3405
g11
g12
(S'\x07\xdc\x01\r'
tRp3406
sg14
L117L
sg15
L1L
sg16
L5L
ssg17
(lp3407
VCommonData
p3408
aV2012-01-13
p3409
asg21
Nsa(dp3410
g7
V2012-01-14
p3411
sg9
(dp3412
g11
g12
(S'\x07\xdc\x01\x0e'
tRp3413
sg14
L124L
sg15
L1L
sg16
L6L
ssg17
(lp3414
VCommonData
p3415
aV2012-01-14
p3416
asg21
Nsa(dp3417
g7
V2012-01-15
p3418
sg9
(dp3419
g11
g12
(S'\x07\xdc\x01\x0f'
tRp3420
sg14
L132L
sg15
L1L
sg16
L3L
ssg17
(lp3421
VCommonData
p3422
aV2012-01-15
p3423
asg21
Nsa(dp3424
g7
V2012-01-16
p3425
sg9
(dp3426
g11
g12
(S'\x07\xdc\x01\x10'
tRp3427
sg14
L134L
sg15
L2L
sg16
L3L
ssg17
(lp3428
VCommonData
p3429
aV2012-01-16
p3430
asg21
Nsa(dp3431
g7
V2012-01-17
p3432
sg9
(dp3433
g11
g12
(S'\x07\xdc\x01\x11'
tRp3434
sg14
L140L
sg15
L1L
sg16
L8L
ssg17
(lp3435
VCommonData
p3436
aV2012-01-17
p3437
asg21
Nsa(dp3438
g7
V2012-01-18
p3439
sg9
(dp3440
g11
g12
(S'\x07\xdc\x01\x12'
tRp3441
sg14
L139L
sg15
L1L
sg16
L5L
ssg17
(lp3442
VCommonData
p3443
aV2012-01-18
p3444
asg21
Nsa(dp3445
g7
V2012-01-19
p3446
sg9
(dp3447
g11
g12
(S'\x07\xdc\x01\x13'
tRp3448
sg14
L148L
sg15
L1L
sg16
L4L
ssg17
(lp3449
VCommonData
p3450
aV2012-01-19
p3451
asg21
Nsa(dp3452
g7
V2012-01-20
p3453
sg9
(dp3454
g11
g12
(S'\x07\xdc\x01\x14'
tRp3455
sg14
L157L
sg15
L1L
sg16
L3L
ssg17
(lp3456
VCommonData
p3457
aV2012-01-20
p3458
asg21
Nsa(dp3459
g7
V2012-01-21
p3460
sg9
(dp3461
g11
g12
(S'\x07\xdc\x01\x15'
tRp3462
sg14
L141L
sg15
L1L
sg16
L4L
ssg17
(lp3463
VCommonData
p3464
aV2012-01-21
p3465
asg21
Nsa(dp3466
g7
V2012-01-22
p3467
sg9
(dp3468
g11
g12
(S'\x07\xdc\x01\x16'
tRp3469
sg14
L142L
sg15
L3L
sg16
L6L
ssg17
(lp3470
VCommonData
p3471
aV2012-01-22
p3472
asg21
Nsa(dp3473
g7
V2012-01-23
p3474
sg9
(dp3475
g11
g12
(S'\x07\xdc\x01\x17'
tRp3476
sg14
L141L
sg15
L1L
sg16
L21L
ssg17
(lp3477
VCommonData
p3478
aV2012-01-23
p3479
asg21
Nsa(dp3480
g7
V2012-01-24
p3481
sg9
(dp3482
g11
g12
(S'\x07\xdc\x01\x18'
tRp3483
sg14
L144L
sg15
L4L
sg16
L9L
ssg17
(lp3484
VCommonData
p3485
aV2012-01-24
p3486
asg21
Nsa(dp3487
g7
V2012-01-25
p3488
sg9
(dp3489
g11
g12
(S'\x07\xdc\x01\x19'
tRp3490
sg14
L136L
sg15
L2L
sg16
L17L
ssg17
(lp3491
VCommonData
p3492
aV2012-01-25
p3493
asg21
Nsa(dp3494
g7
V2012-01-26
p3495
sg9
(dp3496
g11
g12
(S'\x07\xdc\x01\x1a'
tRp3497
sg14
L126L
sg15
L2L
sg16
L14L
ssg17
(lp3498
VCommonData
p3499
aV2012-01-26
p3500
asg21
Nsa(dp3501
g7
V2012-01-27
p3502
sg9
(dp3503
g11
g12
(S'\x07\xdc\x01\x1b'
tRp3504
sg14
L128L
sg15
L1L
sg16
L6L
ssg17
(lp3505
VCommonData
p3506
aV2012-01-27
p3507
asg21
Nsa(dp3508
g7
V2012-01-28
p3509
sg9
(dp3510
g11
g12
(S'\x07\xdc\x01\x1c'
tRp3511
sg14
L142L
sg15
L1L
sg16
L7L
ssg17
(lp3512
VCommonData
p3513
aV2012-01-28
p3514
asg21
Nsa(dp3515
g7
V2012-01-29
p3516
sg9
(dp3517
g11
g12
(S'\x07\xdc\x01\x1d'
tRp3518
sg14
L115L
sg15
L0L
sg16
L5L
ssg17
(lp3519
VCommonData
p3520
aV2012-01-29
p3521
asg21
Nsa(dp3522
g7
V2012-01-30
p3523
sg9
(dp3524
g11
g12
(S'\x07\xdc\x01\x1e'
tRp3525
sg14
L110L
sg15
L3L
sg16
L5L
ssg17
(lp3526
VCommonData
p3527
aV2012-01-30
p3528
asg21
Nsa(dp3529
g7
V2012-01-31
p3530
sg9
(dp3531
g11
g12
(S'\x07\xdc\x01\x1f'
tRp3532
sg14
L114L
sg15
L0L
sg16
L6L
ssg17
(lp3533
VCommonData
p3534
aV2012-01-31
p3535
asg21
Nsa(dp3536
g7
V2012-02-01
p3537
sg9
(dp3538
g11
g12
(S'\x07\xdc\x02\x01'
tRp3539
sg14
L117L
sg15
L0L
sg16
L3L
ssg17
(lp3540
VCommonData
p3541
aV2012-02-01
p3542
asg21
Nsa(dp3543
g7
V2012-02-02
p3544
sg9
(dp3545
g11
g12
(S'\x07\xdc\x02\x02'
tRp3546
sg14
L118L
sg15
L0L
sg16
L6L
ssg17
(lp3547
VCommonData
p3548
aV2012-02-02
p3549
asg21
Nsa(dp3550
g7
V2012-02-03
p3551
sg9
(dp3552
g11
g12
(S'\x07\xdc\x02\x03'
tRp3553
sg14
L118L
sg15
L1L
sg16
L4L
ssg17
(lp3554
VCommonData
p3555
aV2012-02-03
p3556
asg21
Nsa(dp3557
g7
V2012-02-04
p3558
sg9
(dp3559
g11
g12
(S'\x07\xdc\x02\x04'
tRp3560
sg14
L111L
sg15
L2L
sg16
L6L
ssg17
(lp3561
VCommonData
p3562
aV2012-02-04
p3563
asg21
Nsa(dp3564
g7
V2012-02-05
p3565
sg9
(dp3566
g11
g12
(S'\x07\xdc\x02\x05'
tRp3567
sg14
L107L
sg15
L2L
sg16
L6L
ssg17
(lp3568
VCommonData
p3569
aV2012-02-05
p3570
asg21
Nsa(dp3571
g7
V2012-02-06
p3572
sg9
(dp3573
g11
g12
(S'\x07\xdc\x02\x06'
tRp3574
sg14
L103L
sg15
L2L
sg16
L6L
ssg17
(lp3575
VCommonData
p3576
aV2012-02-06
p3577
asg21
Nsa(dp3578
g7
V2012-02-07
p3579
sg9
(dp3580
g11
g12
(S'\x07\xdc\x02\x07'
tRp3581
sg14
L112L
sg15
L2L
sg16
L4L
ssg17
(lp3582
VCommonData
p3583
aV2012-02-07
p3584
asg21
Nsa(dp3585
g7
V2012-02-08
p3586
sg9
(dp3587
g11
g12
(S'\x07\xdc\x02\x08'
tRp3588
sg14
L107L
sg15
L2L
sg16
L12L
ssg17
(lp3589
VCommonData
p3590
aV2012-02-08
p3591
asg21
Nsa(dp3592
g7
V2012-02-09
p3593
sg9
(dp3594
g11
g12
(S'\x07\xdc\x02\t'
tRp3595
sg14
L97L
sg15
L2L
sg16
L10L
ssg17
(lp3596
VCommonData
p3597
aV2012-02-09
p3598
asg21
Nsa(dp3599
g7
V2012-02-10
p3600
sg9
(dp3601
g11
g12
(S'\x07\xdc\x02\n'
tRp3602
sg14
L99L
sg15
L1L
sg16
L4L
ssg17
(lp3603
VCommonData
p3604
aV2012-02-10
p3605
asg21
Nsa(dp3606
g7
V2012-02-11
p3607
sg9
(dp3608
g11
g12
(S'\x07\xdc\x02\x0b'
tRp3609
sg14
L111L
sg15
L1L
sg16
L4L
ssg17
(lp3610
VCommonData
p3611
aV2012-02-11
p3612
asg21
Nsa(dp3613
g7
V2012-02-12
p3614
sg9
(dp3615
g11
g12
(S'\x07\xdc\x02\x0c'
tRp3616
sg14
L112L
sg15
L1L
sg16
L4L
ssg17
(lp3617
VCommonData
p3618
aV2012-02-12
p3619
asg21
Nsa(dp3620
g7
V2012-02-13
p3621
sg9
(dp3622
g11
g12
(S'\x07\xdc\x02\r'
tRp3623
sg14
L110L
sg15
L3L
sg16
L4L
ssg17
(lp3624
VCommonData
p3625
aV2012-02-13
p3626
asg21
Nsa(dp3627
g7
V2012-02-14
p3628
sg9
(dp3629
g11
g12
(S'\x07\xdc\x02\x0e'
tRp3630
sg14
L108L
sg15
L2L
sg16
L8L
ssg17
(lp3631
VCommonData
p3632
aV2012-02-14
p3633
asg21
Nsa(dp3634
g7
V2012-02-15
p3635
sg9
(dp3636
g11
g12
(S'\x07\xdc\x02\x0f'
tRp3637
sg14
L107L
sg15
L2L
sg16
L10L
ssg17
(lp3638
VCommonData
p3639
aV2012-02-15
p3640
asg21
Nsa(dp3641
g7
V2012-02-16
p3642
sg9
(dp3643
g11
g12
(S'\x07\xdc\x02\x10'
tRp3644
sg14
L105L
sg15
L1L
sg16
L22L
ssg17
(lp3645
VCommonData
p3646
aV2012-02-16
p3647
asg21
Nsa(dp3648
g7
V2012-02-17
p3649
sg9
(dp3650
g11
g12
(S'\x07\xdc\x02\x11'
tRp3651
sg14
L103L
sg15
L0L
sg16
L4L
ssg17
(lp3652
VCommonData
p3653
aV2012-02-17
p3654
asg21
Nsa(dp3655
g7
V2012-02-18
p3656
sg9
(dp3657
g11
g12
(S'\x07\xdc\x02\x12'
tRp3658
sg14
L104L
sg15
L1L
sg16
L2L
ssg17
(lp3659
VCommonData
p3660
aV2012-02-18
p3661
asg21
Nsa(dp3662
g7
V2012-02-19
p3663
sg9
(dp3664
g11
g12
(S'\x07\xdc\x02\x13'
tRp3665
sg14
L104L
sg15
L2L
sg16
L4L
ssg17
(lp3666
VCommonData
p3667
aV2012-02-19
p3668
asg21
Nsa(dp3669
g7
V2012-02-20
p3670
sg9
(dp3671
g11
g12
(S'\x07\xdc\x02\x14'
tRp3672
sg14
L105L
sg15
L3L
sg16
L16L
ssg17
(lp3673
VCommonData
p3674
aV2012-02-20
p3675
asg21
Nsa(dp3676
g7
V2012-02-21
p3677
sg9
(dp3678
g11
g12
(S'\x07\xdc\x02\x15'
tRp3679
sg14
L111L
sg15
L2L
sg16
L16L
ssg17
(lp3680
VCommonData
p3681
aV2012-02-21
p3682
asg21
Nsa(dp3683
g7
V2012-02-22
p3684
sg9
(dp3685
g11
g12
(S'\x07\xdc\x02\x16'
tRp3686
sg14
L103L
sg15
L1L
sg16
L6L
ssg17
(lp3687
VCommonData
p3688
aV2012-02-22
p3689
asg21
Nsa(dp3690
g7
V2012-02-23
p3691
sg9
(dp3692
g11
g12
(S'\x07\xdc\x02\x17'
tRp3693
sg14
L104L
sg15
L1L
sg16
L8L
ssg17
(lp3694
VCommonData
p3695
aV2012-02-23
p3696
asg21
Nsa(dp3697
g7
V2012-02-24
p3698
sg9
(dp3699
g11
g12
(S'\x07\xdc\x02\x18'
tRp3700
sg14
L103L
sg15
L1L
sg16
L4L
ssg17
(lp3701
VCommonData
p3702
aV2012-02-24
p3703
asg21
Nsa(dp3704
g7
V2012-02-25
p3705
sg9
(dp3706
g11
g12
(S'\x07\xdc\x02\x19'
tRp3707
sg14
L109L
sg15
L2L
sg16
L6L
ssg17
(lp3708
VCommonData
p3709
aV2012-02-25
p3710
asg21
Nsa(dp3711
g7
V2012-02-26
p3712
sg9
(dp3713
g11
g12
(S'\x07\xdc\x02\x1a'
tRp3714
sg14
L108L
sg15
L2L
sg16
L6L
ssg17
(lp3715
VCommonData
p3716
aV2012-02-26
p3717
asg21
Nsa(dp3718
g7
V2012-02-27
p3719
sg9
(dp3720
g11
g12
(S'\x07\xdc\x02\x1b'
tRp3721
sg14
L107L
sg15
L2L
sg16
L6L
ssg17
(lp3722
VCommonData
p3723
aV2012-02-27
p3724
asg21
Nsa(dp3725
g7
V2012-02-28
p3726
sg9
(dp3727
g11
g12
(S'\x07\xdc\x02\x1c'
tRp3728
sg14
L106L
sg15
L2L
sg16
L16L
ssg17
(lp3729
VCommonData
p3730
aV2012-02-28
p3731
asg21
Nsa(dp3732
g7
V2012-02-29
p3733
sg9
(dp3734
g11
g12
(S'\x07\xdc\x02\x1d'
tRp3735
sg14
L103L
sg15
L0L
sg16
L10L
ssg17
(lp3736
VCommonData
p3737
aV2012-02-29
p3738
asg21
Nsa(dp3739
g7
V2012-03-01
p3740
sg9
(dp3741
g11
g12
(S'\x07\xdc\x03\x01'
tRp3742
sg14
L102L
sg15
L3L
sg16
L6L
ssg17
(lp3743
VCommonData
p3744
aV2012-03-01
p3745
asg21
Nsa(dp3746
g7
V2012-03-02
p3747
sg9
(dp3748
g11
g12
(S'\x07\xdc\x03\x02'
tRp3749
sg14
L103L
sg15
L1L
sg16
L14L
ssg17
(lp3750
VCommonData
p3751
aV2012-03-02
p3752
asg21
Nsa(dp3753
g7
V2012-03-03
p3754
sg9
(dp3755
g11
g12
(S'\x07\xdc\x03\x03'
tRp3756
sg14
L108L
sg15
L2L
sg16
L10L
ssg17
(lp3757
VCommonData
p3758
aV2012-03-03
p3759
asg21
Nsa(dp3760
g7
V2012-03-04
p3761
sg9
(dp3762
g11
g12
(S'\x07\xdc\x03\x04'
tRp3763
sg14
L116L
sg15
L2L
sg16
L8L
ssg17
(lp3764
VCommonData
p3765
aV2012-03-04
p3766
asg21
Nsa(dp3767
g7
V2012-03-05
p3768
sg9
(dp3769
g11
g12
(S'\x07\xdc\x03\x05'
tRp3770
sg14
L120L
sg15
L2L
sg16
L12L
ssg17
(lp3771
VCommonData
p3772
aV2012-03-05
p3773
asg21
Nsa(dp3774
g7
V2012-03-06
p3775
sg9
(dp3776
g11
g12
(S'\x07\xdc\x03\x06'
tRp3777
sg14
L132L
sg15
L1L
sg16
L8L
ssg17
(lp3778
VCommonData
p3779
aV2012-03-06
p3780
asg21
Nsa(dp3781
g7
V2012-03-07
p3782
sg9
(dp3783
g11
g12
(S'\x07\xdc\x03\x07'
tRp3784
sg14
L138L
sg15
L5L
sg16
L8L
ssg17
(lp3785
VCommonData
p3786
aV2012-03-07
p3787
asg21
Nsa(dp3788
g7
V2012-03-08
p3789
sg9
(dp3790
g11
g12
(S'\x07\xdc\x03\x08'
tRp3791
sg14
L136L
sg15
L1L
sg16
L44L
ssg17
(lp3792
VCommonData
p3793
aV2012-03-08
p3794
asg21
Nsa(dp3795
g7
V2012-03-09
p3796
sg9
(dp3797
g11
g12
(S'\x07\xdc\x03\t'
tRp3798
sg14
L140L
sg15
L7L
sg16
L24L
ssg17
(lp3799
VCommonData
p3800
aV2012-03-09
p3801
asg21
Nsa(dp3802
g7
V2012-03-10
p3803
sg9
(dp3804
g11
g12
(S'\x07\xdc\x03\n'
tRp3805
sg14
L146L
sg15
L2L
sg16
L68L
ssg17
(lp3806
VCommonData
p3807
aV2012-03-10
p3808
asg21
Nsa(dp3809
g7
V2012-03-11
p3810
sg9
(dp3811
g11
g12
(S'\x07\xdc\x03\x0b'
tRp3812
sg14
L149L
sg15
L2L
sg16
L18L
ssg17
(lp3813
VCommonData
p3814
aV2012-03-11
p3815
asg21
Nsa(dp3816
g7
V2012-03-12
p3817
sg9
(dp3818
g11
g12
(S'\x07\xdc\x03\x0c'
tRp3819
sg14
L131L
sg15
L6L
sg16
L8L
ssg17
(lp3820
VCommonData
p3821
aV2012-03-12
p3822
asg21
Nsa(dp3823
g7
V2012-03-13
p3824
sg9
(dp3825
g11
g12
(S'\x07\xdc\x03\r'
tRp3826
sg14
L115L
sg15
L2L
sg16
L28L
ssg17
(lp3827
VCommonData
p3828
aV2012-03-13
p3829
asg21
Nsa(dp3830
g7
V2012-03-14
p3831
sg9
(dp3832
g11
g12
(S'\x07\xdc\x03\x0e'
tRp3833
sg14
L141L
sg15
L1L
sg16
L10L
ssg17
(lp3834
VCommonData
p3835
aV2012-03-14
p3836
asg21
Nsa(dp3837
g7
V2012-03-15
p3838
sg9
(dp3839
g11
g12
(S'\x07\xdc\x03\x0f'
tRp3840
sg14
L119L
sg15
L2L
sg16
L8L
ssg17
(lp3841
VCommonData
p3842
aV2012-03-15
p3843
asg21
Nsa(dp3844
g7
V2012-03-16
p3845
sg9
(dp3846
g11
g12
(S'\x07\xdc\x03\x10'
tRp3847
sg14
L111L
sg15
L3L
sg16
L30L
ssg17
(lp3848
VCommonData
p3849
aV2012-03-16
p3850
asg21
Nsa(dp3851
g7
V2012-03-17
p3852
sg9
(dp3853
g11
g12
(S'\x07\xdc\x03\x11'
tRp3854
sg14
L99L
sg15
L3L
sg16
L20L
ssg17
(lp3855
VCommonData
p3856
aV2012-03-17
p3857
asg21
Nsa(dp3858
g7
V2012-03-18
p3859
sg9
(dp3860
g11
g12
(S'\x07\xdc\x03\x12'
tRp3861
sg14
L102L
sg15
L3L
sg16
L20L
ssg17
(lp3862
VCommonData
p3863
aV2012-03-18
p3864
asg21
Nsa(dp3865
g7
V2012-03-19
p3866
sg9
(dp3867
g11
g12
(S'\x07\xdc\x03\x13'
tRp3868
sg14
L102L
sg15
L2L
sg16
L10L
ssg17
(lp3869
VCommonData
p3870
aV2012-03-19
p3871
asg21
Nsa(dp3872
g7
V2012-03-20
p3873
sg9
(dp3874
g11
g12
(S'\x07\xdc\x03\x14'
tRp3875
sg14
L102L
sg15
L1L
sg16
L10L
ssg17
(lp3876
VCommonData
p3877
aV2012-03-20
p3878
asg21
Nsa(dp3879
g7
V2012-03-21
p3880
sg9
(dp3881
g11
g12
(S'\x07\xdc\x03\x15'
tRp3882
sg14
L100L
sg15
L1L
sg16
L4L
ssg17
(lp3883
VCommonData
p3884
aV2012-03-21
p3885
asg21
Nsa(dp3886
g7
V2012-03-22
p3887
sg9
(dp3888
g11
g12
(S'\x07\xdc\x03\x16'
tRp3889
sg14
L100L
sg15
L1L
sg16
L4L
ssg17
(lp3890
VCommonData
p3891
aV2012-03-22
p3892
asg21
Nsa(dp3893
g7
V2012-03-23
p3894
sg9
(dp3895
g11
g12
(S'\x07\xdc\x03\x17'
tRp3896
sg14
L102L
sg15
L2L
sg16
L6L
ssg17
(lp3897
VCommonData
p3898
aV2012-03-23
p3899
asg21
Nsa(dp3900
g7
V2012-03-24
p3901
sg9
(dp3902
g11
g12
(S'\x07\xdc\x03\x18'
tRp3903
sg14
L105L
sg15
L2L
sg16
L6L
ssg17
(lp3904
VCommonData
p3905
aV2012-03-24
p3906
asg21
Nsa(dp3907
g7
V2012-03-25
p3908
sg9
(dp3909
g11
g12
(S'\x07\xdc\x03\x19'
tRp3910
sg14
L103L
sg15
L1L
sg16
L10L
ssg17
(lp3911
VCommonData
p3912
aV2012-03-25
p3913
asg21
Nsa(dp3914
g7
V2012-03-26
p3915
sg9
(dp3916
g11
g12
(S'\x07\xdc\x03\x1a'
tRp3917
sg14
L101L
sg15
L1L
sg16
L4L
ssg17
(lp3918
VCommonData
p3919
aV2012-03-26
p3920
asg21
Nsa(dp3921
g7
V2012-03-27
p3922
sg9
(dp3923
g11
g12
(S'\x07\xdc\x03\x1b'
tRp3924
sg14
L102L
sg15
L3L
sg16
L4L
ssg17
(lp3925
VCommonData
p3926
aV2012-03-27
p3927
asg21
Nsa(dp3928
g7
V2012-03-28
p3929
sg9
(dp3930
g11
g12
(S'\x07\xdc\x03\x1c'
tRp3931
sg14
L106L
sg15
L2L
sg16
L12L
ssg17
(lp3932
VCommonData
p3933
aV2012-03-28
p3934
asg21
Nsa(dp3935
g7
V2012-03-29
p3936
sg9
(dp3937
g11
g12
(S'\x07\xdc\x03\x1d'
tRp3938
sg14
L107L
sg15
L0L
sg16
L12L
ssg17
(lp3939
VCommonData
p3940
aV2012-03-29
p3941
asg21
Nsa(dp3942
g7
V2012-03-30
p3943
sg9
(dp3944
g11
g12
(S'\x07\xdc\x03\x1e'
tRp3945
sg14
L112L
sg15
L1L
sg16
L4L
ssg17
(lp3946
VCommonData
p3947
aV2012-03-30
p3948
asg21
Nsa(dp3949
g7
V2012-03-31
p3950
sg9
(dp3951
g11
g12
(S'\x07\xdc\x03\x1f'
tRp3952
sg14
L111L
sg15
L2L
sg16
L6L
ssg17
(lp3953
VCommonData
p3954
aV2012-03-31
p3955
asg21
Nsa(dp3956
g7
V2012-04-01
p3957
sg9
(dp3958
g11
g12
(S'\x07\xdc\x04\x01'
tRp3959
sg14
L110L
sg15
L2L
sg16
L4L
ssg17
(lp3960
VCommonData
p3961
aV2012-04-01
p3962
asg21
Nsa(dp3963
g7
V2012-04-02
p3964
sg9
(dp3965
g11
g12
(S'\x07\xdc\x04\x02'
tRp3966
sg14
L107L
sg15
L2L
sg16
L6L
ssg17
(lp3967
VCommonData
p3968
aV2012-04-02
p3969
asg21
Nsa(dp3970
g7
V2012-04-03
p3971
sg9
(dp3972
g11
g12
(S'\x07\xdc\x04\x03'
tRp3973
sg14
L106L
sg15
L1L
sg16
L8L
ssg17
(lp3974
VCommonData
p3975
aV2012-04-03
p3976
asg21
Nsa(dp3977
g7
V2012-04-04
p3978
sg9
(dp3979
g11
g12
(S'\x07\xdc\x04\x04'
tRp3980
sg14
L104L
sg15
L1L
sg16
L4L
ssg17
(lp3981
VCommonData
p3982
aV2012-04-04
p3983
asg21
Nsa(dp3984
g7
V2012-04-05
p3985
sg9
(dp3986
g11
g12
(S'\x07\xdc\x04\x05'
tRp3987
sg14
L102L
sg15
L3L
sg16
L6L
ssg17
(lp3988
VCommonData
p3989
aV2012-04-05
p3990
asg21
Nsa(dp3991
g7
V2012-04-06
p3992
sg9
(dp3993
g11
g12
(S'\x07\xdc\x04\x06'
tRp3994
sg14
L101L
sg15
L1L
sg16
L13L
ssg17
(lp3995
VCommonData
p3996
aV2012-04-06
p3997
asg21
Nsa(dp3998
g7
V2012-04-07
p3999
sg9
(dp4000
g11
g12
(S'\x07\xdc\x04\x07'
tRp4001
sg14
L97L
sg15
L3L
sg16
L4L
ssg17
(lp4002
VCommonData
p4003
aV2012-04-07
p4004
asg21
Nsa(dp4005
g7
V2012-04-08
p4006
sg9
(dp4007
g11
g12
(S'\x07\xdc\x04\x08'
tRp4008
sg14
L99L
sg15
L2L
sg16
L10L
ssg17
(lp4009
VCommonData
p4010
aV2012-04-08
p4011
asg21
Nsa(dp4012
g7
V2012-04-09
p4013
sg9
(dp4014
g11
g12
(S'\x07\xdc\x04\t'
tRp4015
sg14
L93L
sg15
L1L
sg16
L5L
ssg17
(lp4016
VCommonData
p4017
aV2012-04-09
p4018
asg21
Nsa(dp4019
g7
V2012-04-10
p4020
sg9
(dp4021
g11
g12
(S'\x07\xdc\x04\n'
tRp4022
sg14
L95L
sg15
L1L
sg16
L4L
ssg17
(lp4023
VCommonData
p4024
aV2012-04-10
p4025
asg21
Nsa(dp4026
g7
V2012-04-11
p4027
sg9
(dp4028
g11
g12
(S'\x07\xdc\x04\x0b'
tRp4029
sg14
L93L
sg15
L2L
sg16
L8L
ssg17
(lp4030
VCommonData
p4031
aV2012-04-11
p4032
asg21
Nsa(dp4033
g7
V2012-04-13
p4034
sg9
(dp4035
g11
g12
(S'\x07\xdc\x04\r'
tRp4036
sg14
L95L
sg15
L2L
sg16
L13L
ssg17
(lp4037
VCommonData
p4038
aV2012-04-13
p4039
asg21
Nsa(dp4040
g7
V2012-04-14
p4041
sg9
(dp4042
g11
g12
(S'\x07\xdc\x04\x0e'
tRp4043
sg14
L98L
sg15
L2L
sg16
L19L
ssg17
(lp4044
VCommonData
p4045
aV2012-04-14
p4046
asg21
Nsa(dp4047
g7
V2012-04-15
p4048
sg9
(dp4049
g11
g12
(S'\x07\xdc\x04\x0f'
tRp4050
sg14
L98L
sg15
L1L
sg16
L9L
ssg17
(lp4051
VCommonData
p4052
aV2012-04-15
p4053
asg21
Nsa(dp4054
g7
V2012-04-16
p4055
sg9
(dp4056
g11
g12
(S'\x07\xdc\x04\x10'
tRp4057
sg14
L102L
sg15
L2L
sg16
L5L
ssg17
(lp4058
VCommonData
p4059
aV2012-04-16
p4060
asg21
Nsa(dp4061
g7
V2012-04-17
p4062
sg9
(dp4063
g11
g12
(S'\x07\xdc\x04\x11'
tRp4064
sg14
L108L
sg15
L2L
sg16
L5L
ssg17
(lp4065
VCommonData
p4066
aV2012-04-17
p4067
asg21
Nsa(dp4068
g7
V2012-04-18
p4069
sg9
(dp4070
g11
g12
(S'\x07\xdc\x04\x12'
tRp4071
sg14
L114L
sg15
L2L
sg16
L8L
ssg17
(lp4072
VCommonData
p4073
aV2012-04-18
p4074
asg21
Nsa(dp4075
g7
V2012-04-19
p4076
sg9
(dp4077
g11
g12
(S'\x07\xdc\x04\x13'
tRp4078
sg14
L122L
sg15
L1L
sg16
L8L
ssg17
(lp4079
VCommonData
p4080
aV2012-04-19
p4081
asg21
Nsa(dp4082
g7
V2012-04-20
p4083
sg9
(dp4084
g11
g12
(S'\x07\xdc\x04\x14'
tRp4085
sg14
L138L
sg15
L2L
sg16
L5L
ssg17
(lp4086
VCommonData
p4087
aV2012-04-20
p4088
asg21
Nsa(dp4089
g7
V2012-04-21
p4090
sg9
(dp4091
g11
g12
(S'\x07\xdc\x04\x15'
tRp4092
sg14
L142L
sg15
L1L
sg16
L7L
ssg17
(lp4093
VCommonData
p4094
aV2012-04-21
p4095
asg21
Nsa(dp4096
g7
V2012-04-22
p4097
sg9
(dp4098
g11
g12
(S'\x07\xdc\x04\x16'
tRp4099
sg14
L149L
sg15
L2L
sg16
L6L
ssg17
(lp4100
VCommonData
p4101
aV2012-04-22
p4102
asg21
Nsa(dp4103
g7
V2012-04-23
p4104
sg9
(dp4105
g11
g12
(S'\x07\xdc\x04\x17'
tRp4106
sg14
L148L
sg15
L2L
sg16
L7L
ssg17
(lp4107
VCommonData
p4108
aV2012-04-23
p4109
asg21
Nsa(dp4110
g7
V2012-04-24
p4111
sg9
(dp4112
g11
g12
(S'\x07\xdc\x04\x18'
tRp4113
sg14
L142L
sg15
L2L
sg16
L23L
ssg17
(lp4114
VCommonData
p4115
aV2012-04-24
p4116
asg21
Nsa(dp4117
g7
V2012-04-25
p4118
sg9
(dp4119
g11
g12
(S'\x07\xdc\x04\x19'
tRp4120
sg14
L134L
sg15
L2L
sg16
L35L
ssg17
(lp4121
VCommonData
p4122
aV2012-04-25
p4123
asg21
Nsa(dp4124
g7
V2012-04-26
p4125
sg9
(dp4126
g11
g12
(S'\x07\xdc\x04\x1a'
tRp4127
sg14
L127L
sg15
L2L
sg16
L21L
ssg17
(lp4128
VCommonData
p4129
aV2012-04-26
p4130
asg21
Nsa(dp4131
g7
V2012-04-27
p4132
sg9
(dp4133
g11
g12
(S'\x07\xdc\x04\x1b'
tRp4134
sg14
L119L
sg15
L1L
sg16
L17L
ssg17
(lp4135
VCommonData
p4136
aV2012-04-27
p4137
asg21
Nsa(dp4138
g7
V2012-04-28
p4139
sg9
(dp4140
g11
g12
(S'\x07\xdc\x04\x1c'
tRp4141
sg14
L118L
sg15
L1L
sg16
L8L
ssg17
(lp4142
VCommonData
p4143
aV2012-04-28
p4144
asg21
Nsa(dp4145
g7
V2012-04-29
p4146
sg9
(dp4147
g11
g12
(S'\x07\xdc\x04\x1d'
tRp4148
sg14
L121L
sg15
L1L
sg16
L5L
ssg17
(lp4149
VCommonData
p4150
aV2012-04-29
p4151
asg21
Nsa(dp4152
g7
V2012-04-30
p4153
sg9
(dp4154
g11
g12
(S'\x07\xdc\x04\x1e'
tRp4155
sg14
L116L
sg15
L0L
sg16
L5L
ssg17
(lp4156
VCommonData
p4157
aV2012-04-30
p4158
asg21
Nsa(dp4159
g7
V2012-05-01
p4160
sg9
(dp4161
g11
g12
(S'\x07\xdc\x05\x01'
tRp4162
sg14
L114L
sg15
L1L
sg16
L3L
ssg17
(lp4163
VCommonData
p4164
aV2012-05-01
p4165
asg21
Nsa(dp4166
g7
V2012-05-02
p4167
sg9
(dp4168
g11
g12
(S'\x07\xdc\x05\x02'
tRp4169
sg14
L110L
sg15
L1L
sg16
L4L
ssg17
(lp4170
VCommonData
p4171
aV2012-05-02
p4172
asg21
Nsa(dp4173
g7
V2012-05-03
p4174
sg9
(dp4175
g11
g12
(S'\x07\xdc\x05\x03'
tRp4176
sg14
L116L
sg15
L1L
sg16
L5L
ssg17
(lp4177
VCommonData
p4178
aV2012-05-03
p4179
asg21
Nsa(dp4180
g7
V2012-05-04
p4181
sg9
(dp4182
g11
g12
(S'\x07\xdc\x05\x04'
tRp4183
sg14
L114L
sg15
L1L
sg16
L8L
ssg17
(lp4184
VCommonData
p4185
aV2012-05-04
p4186
asg21
Nsa(dp4187
g7
V2012-05-05
p4188
sg9
(dp4189
g11
g12
(S'\x07\xdc\x05\x05'
tRp4190
sg14
L114L
sg15
L2L
sg16
L4L
ssg17
(lp4191
VCommonData
p4192
aV2012-05-05
p4193
asg21
Nsa(dp4194
g7
V2012-05-06
p4195
sg9
(dp4196
g11
g12
(S'\x07\xdc\x05\x06'
tRp4197
sg14
L116L
sg15
L2L
sg16
L4L
ssg17
(lp4198
VCommonData
p4199
aV2012-05-06
p4200
asg21
Nsa(dp4201
g7
V2012-05-07
p4202
sg9
(dp4203
g11
g12
(S'\x07\xdc\x05\x07'
tRp4204
sg14
L117L
sg15
L1L
sg16
L5L
ssg17
(lp4205
VCommonData
p4206
aV2012-05-07
p4207
asg21
Nsa(dp4208
g7
V2012-05-08
p4209
sg9
(dp4210
g11
g12
(S'\x07\xdc\x05\x08'
tRp4211
sg14
L122L
sg15
L2L
sg16
L4L
ssg17
(lp4212
VCommonData
p4213
aV2012-05-08
p4214
asg21
Nsa(dp4215
g7
V2012-05-09
p4216
sg9
(dp4217
g11
g12
(S'\x07\xdc\x05\t'
tRp4218
sg14
L123L
sg15
L4L
sg16
L9L
ssg17
(lp4219
VCommonData
p4220
aV2012-05-09
p4221
asg21
Nsa(dp4222
g7
V2012-05-10
p4223
sg9
(dp4224
g11
g12
(S'\x07\xdc\x05\n'
tRp4225
sg14
L127L
sg15
L2L
sg16
L24L
ssg17
(lp4226
VCommonData
p4227
aV2012-05-10
p4228
asg21
Nsa(dp4229
g7
V2012-05-11
p4230
sg9
(dp4231
g11
g12
(S'\x07\xdc\x05\x0b'
tRp4232
sg14
L131L
sg15
L2L
sg16
L12L
ssg17
(lp4233
VCommonData
p4234
aV2012-05-11
p4235
asg21
Nsa(dp4236
g7
V2012-05-12
p4237
sg9
(dp4238
g11
g12
(S'\x07\xdc\x05\x0c'
tRp4239
sg14
L136L
sg15
L3L
sg16
L12L
ssg17
(lp4240
VCommonData
p4241
aV2012-05-12
p4242
asg21
Nsa(dp4243
g7
V2012-05-13
p4244
sg9
(dp4245
g11
g12
(S'\x07\xdc\x05\r'
tRp4246
sg14
L130L
sg15
L2L
sg16
L10L
ssg17
(lp4247
VCommonData
p4248
aV2012-05-13
p4249
asg21
Nsa(dp4250
g7
V2012-05-14
p4251
sg9
(dp4252
g11
g12
(S'\x07\xdc\x05\x0e'
tRp4253
sg14
L131L
sg15
L1L
sg16
L12L
ssg17
(lp4254
VCommonData
p4255
aV2012-05-14
p4256
asg21
Nsa(dp4257
g7
V2012-05-15
p4258
sg9
(dp4259
g11
g12
(S'\x07\xdc\x05\x0f'
tRp4260
sg14
L130L
sg15
L1L
sg16
L6L
ssg17
(lp4261
VCommonData
p4262
aV2012-05-15
p4263
asg21
Nsa(dp4264
g7
V2012-05-16
p4265
sg9
(dp4266
g11
g12
(S'\x07\xdc\x05\x10'
tRp4267
sg14
L129L
sg15
L2L
sg16
L5L
ssg17
(lp4268
VCommonData
p4269
aV2012-05-16
p4270
asg21
Nsa(dp4271
g7
V2012-05-17
p4272
sg9
(dp4273
g11
g12
(S'\x07\xdc\x05\x11'
tRp4274
sg14
L131L
sg15
L1L
sg16
L9L
ssg17
(lp4275
VCommonData
p4276
aV2012-05-17
p4277
asg21
Nsa(dp4278
g7
V2012-05-18
p4279
sg9
(dp4280
g11
g12
(S'\x07\xdc\x05\x12'
tRp4281
sg14
L136L
sg15
L2L
sg16
L6L
ssg17
(lp4282
VCommonData
p4283
aV2012-05-18
p4284
asg21
Nsa(dp4285
g7
V2012-05-19
p4286
sg9
(dp4287
g11
g12
(S'\x07\xdc\x05\x13'
tRp4288
sg14
L132L
sg15
L1L
sg16
L8L
ssg17
(lp4289
VCommonData
p4290
aV2012-05-19
p4291
asg21
Nsa(dp4292
g7
V2012-05-20
p4293
sg9
(dp4294
g11
g12
(S'\x07\xdc\x05\x14'
tRp4295
sg14
L131L
sg15
L3L
sg16
L5L
ssg17
(lp4296
VCommonData
p4297
aV2012-05-20
p4298
asg21
Nsa(dp4299
g7
V2012-05-21
p4300
sg9
(dp4301
g11
g12
(S'\x07\xdc\x05\x15'
tRp4302
sg14
L131L
sg15
L1L
sg16
L13L
ssg17
(lp4303
VCommonData
p4304
aV2012-05-21
p4305
asg21
Nsa(dp4306
g7
V2012-05-22
p4307
sg9
(dp4308
g11
g12
(S'\x07\xdc\x05\x16'
tRp4309
sg14
L125L
sg15
L3L
sg16
L7L
ssg17
(lp4310
VCommonData
p4311
aV2012-05-22
p4312
asg21
Nsa(dp4313
g7
V2012-05-23
p4314
sg9
(dp4315
g11
g12
(S'\x07\xdc\x05\x17'
tRp4316
sg14
L121L
sg15
L2L
sg16
L16L
ssg17
(lp4317
VCommonData
p4318
aV2012-05-23
p4319
asg21
Nsa(dp4320
g7
V2012-05-24
p4321
sg9
(dp4322
g11
g12
(S'\x07\xdc\x05\x18'
tRp4323
sg14
L117L
sg15
L2L
sg16
L18L
ssg17
(lp4324
VCommonData
p4325
aV2012-05-24
p4326
asg21
Nsa(dp4327
g7
V2012-05-25
p4328
sg9
(dp4329
g11
g12
(S'\x07\xdc\x05\x19'
tRp4330
sg14
L116L
sg15
L2L
sg16
L8L
ssg17
(lp4331
VCommonData
p4332
aV2012-05-25
p4333
asg21
Nsa(dp4334
g7
V2012-05-26
p4335
sg9
(dp4336
g11
g12
(S'\x07\xdc\x05\x1a'
tRp4337
sg14
L117L
sg15
L1L
sg16
L6L
ssg17
(lp4338
VCommonData
p4339
aV2012-05-26
p4340
asg21
Nsa(dp4341
g7
V2012-05-27
p4342
sg9
(dp4343
g11
g12
(S'\x07\xdc\x05\x1b'
tRp4344
sg14
L110L
sg15
L1L
sg16
L4L
ssg17
(lp4345
VCommonData
p4346
aV2012-05-27
p4347
asg21
Nsa(dp4348
g7
V2012-05-28
p4349
sg9
(dp4350
g11
g12
(S'\x07\xdc\x05\x1c'
tRp4351
sg14
L111L
sg15
L2L
sg16
L4L
ssg17
(lp4352
VCommonData
p4353
aV2012-05-28
p4354
asg21
Nsa(dp4355
g7
V2012-05-29
p4356
sg9
(dp4357
g11
g12
(S'\x07\xdc\x05\x1d'
tRp4358
sg14
L110L
sg15
L2L
sg16
L6L
ssg17
(lp4359
VCommonData
p4360
aV2012-05-29
p4361
asg21
Nsa(dp4362
g7
V2012-05-30
p4363
sg9
(dp4364
g11
g12
(S'\x07\xdc\x05\x1e'
tRp4365
sg14
L106L
sg15
L2L
sg16
L6L
ssg17
(lp4366
VCommonData
p4367
aV2012-05-30
p4368
asg21
Nsa(dp4369
g7
V2012-05-31
p4370
sg9
(dp4371
g11
g12
(S'\x07\xdc\x05\x1f'
tRp4372
sg14
L111L
sg15
L2L
sg16
L6L
ssg17
(lp4373
VCommonData
p4374
aV2012-05-31
p4375
asg21
Nsa(dp4376
g7
V2012-06-01
p4377
sg9
(dp4378
g11
g12
(S'\x07\xdc\x06\x01'
tRp4379
sg14
L117L
sg15
L2L
sg16
L10L
ssg17
(lp4380
VCommonData
p4381
aV2012-06-01
p4382
asg21
Nsa(dp4383
g7
V2012-06-02
p4384
sg9
(dp4385
g11
g12
(S'\x07\xdc\x06\x02'
tRp4386
sg14
L129L
sg15
L2L
sg16
L6L
ssg17
(lp4387
VCommonData
p4388
aV2012-06-02
p4389
asg21
Nsa(dp4390
g7
V2012-06-03
p4391
sg9
(dp4392
g11
g12
(S'\x07\xdc\x06\x03'
tRp4393
sg14
L129L
sg15
L4L
sg16
L9L
ssg17
(lp4394
VCommonData
p4395
aV2012-06-03
p4396
asg21
Nsa(dp4397
g7
V2012-06-04
p4398
sg9
(dp4399
g11
g12
(S'\x07\xdc\x06\x04'
tRp4400
sg14
L129L
sg15
L4L
sg16
L19L
ssg17
(lp4401
VCommonData
p4402
aV2012-06-04
p4403
asg21
Nsa(dp4404
g7
V2012-06-05
p4405
sg9
(dp4406
g11
g12
(S'\x07\xdc\x06\x05'
tRp4407
sg14
L128L
sg15
L4L
sg16
L16L
ssg17
(lp4408
VCommonData
p4409
aV2012-06-05
p4410
asg21
Nsa(dp4411
g7
V2012-06-06
p4412
sg9
(dp4413
g11
g12
(S'\x07\xdc\x06\x06'
tRp4414
sg14
L139L
sg15
L3L
sg16
L17L
ssg17
(lp4415
VCommonData
p4416
aV2012-06-06
p4417
asg21
Nsa(dp4418
g7
V2012-06-07
p4419
sg9
(dp4420
g11
g12
(S'\x07\xdc\x06\x07'
tRp4421
sg14
L140L
sg15
L2L
sg16
L17L
ssg17
(lp4422
VCommonData
p4423
aV2012-06-07
p4424
asg21
Nsa(dp4425
g7
V2012-06-08
p4426
sg9
(dp4427
g11
g12
(S'\x07\xdc\x06\x08'
tRp4428
sg14
L128L
sg15
L1L
sg16
L8L
ssg17
(lp4429
VCommonData
p4430
aV2012-06-08
p4431
asg21
Nsa(dp4432
g7
V2012-06-09
p4433
sg9
(dp4434
g11
g12
(S'\x07\xdc\x06\t'
tRp4435
sg14
L124L
sg15
L2L
sg16
L8L
ssg17
(lp4436
VCommonData
p4437
aV2012-06-09
p4438
asg21
Nsa(dp4439
g7
V2012-06-10
p4440
sg9
(dp4441
g11
g12
(S'\x07\xdc\x06\n'
tRp4442
sg14
L128L
sg15
L2L
sg16
L8L
ssg17
(lp4443
VCommonData
p4444
aV2012-06-10
p4445
asg21
Nsa(dp4446
g7
V2012-06-11
p4447
sg9
(dp4448
g11
g12
(S'\x07\xdc\x06\x0b'
tRp4449
sg14
L128L
sg15
L2L
sg16
L6L
ssg17
(lp4450
VCommonData
p4451
aV2012-06-11
p4452
asg21
Nsa(dp4453
g7
V2012-06-12
p4454
sg9
(dp4455
g11
g12
(S'\x07\xdc\x06\x0c'
tRp4456
sg14
L134L
sg15
L1L
sg16
L14L
ssg17
(lp4457
VCommonData
p4458
aV2012-06-12
p4459
asg21
Nsa(dp4460
g7
V2012-06-13
p4461
sg9
(dp4462
g11
g12
(S'\x07\xdc\x06\r'
tRp4463
sg14
L141L
sg15
L1L
sg16
L13L
ssg17
(lp4464
VCommonData
p4465
aV2012-06-13
p4466
asg21
Nsa(dp4467
g7
V2012-06-14
p4468
sg9
(dp4469
g11
g12
(S'\x07\xdc\x06\x0e'
tRp4470
sg14
L143L
sg15
L1L
sg16
L6L
ssg17
(lp4471
VCommonData
p4472
aV2012-06-14
p4473
asg21
Nsa(dp4474
g7
V2012-06-15
p4475
sg9
(dp4476
g11
g12
(S'\x07\xdc\x06\x0f'
tRp4477
sg14
L149L
sg15
L1L
sg16
L4L
ssg17
(lp4478
VCommonData
p4479
aV2012-06-15
p4480
asg21
Nsa(dp4481
g7
V2012-06-16
p4482
sg9
(dp4483
g11
g12
(S'\x07\xdc\x06\x10'
tRp4484
sg14
L145L
sg15
L3L
sg16
L4L
ssg17
(lp4485
VCommonData
p4486
aV2012-06-16
p4487
asg21
Nsa(dp4488
g7
V2012-06-17
p4489
sg9
(dp4490
g11
g12
(S'\x07\xdc\x06\x11'
tRp4491
sg14
L135L
sg15
L5L
sg16
L19L
ssg17
(lp4492
VCommonData
p4493
aV2012-06-17
p4494
asg21
Nsa(dp4495
g7
V2012-06-18
p4496
sg9
(dp4497
g11
g12
(S'\x07\xdc\x06\x12'
tRp4498
sg14
L124L
sg15
L2L
sg16
L39L
ssg17
(lp4499
VCommonData
p4500
aV2012-06-18
p4501
asg21
Nsa(dp4502
g7
V2012-06-19
p4503
sg9
(dp4504
g11
g12
(S'\x07\xdc\x06\x13'
tRp4505
sg14
L118L
sg15
L1L
sg16
L15L
ssg17
(lp4506
VCommonData
p4507
aV2012-06-19
p4508
asg21
Nsa(dp4509
g7
V2012-06-20
p4510
sg9
(dp4511
g11
g12
(S'\x07\xdc\x06\x14'
tRp4512
sg14
L110L
sg15
L1L
sg16
L3L
ssg17
(lp4513
VCommonData
p4514
aV2012-06-20
p4515
asg21
Nsa(dp4516
g7
V2012-06-21
p4517
sg9
(dp4518
g11
g12
(S'\x07\xdc\x06\x15'
tRp4519
sg14
L104L
sg15
L0L
sg16
L4L
ssg17
(lp4520
VCommonData
p4521
aV2012-06-21
p4522
asg21
Nsa(dp4523
g7
V2012-06-22
p4524
sg9
(dp4525
g11
g12
(S'\x07\xdc\x06\x16'
tRp4526
sg14
L98L
sg15
L2L
sg16
L3L
ssg17
(lp4527
VCommonData
p4528
aV2012-06-22
p4529
asg21
Nsa(dp4530
g7
V2012-06-23
p4531
sg9
(dp4532
g11
g12
(S'\x07\xdc\x06\x17'
tRp4533
sg14
L88L
sg15
L1L
sg16
L5L
ssg17
(lp4534
VCommonData
p4535
aV2012-06-23
p4536
asg21
Nsa(dp4537
g7
V2012-06-24
p4538
sg9
(dp4539
g11
g12
(S'\x07\xdc\x06\x18'
tRp4540
sg14
L84L
sg15
L1L
sg16
L4L
ssg17
(lp4541
VCommonData
p4542
aV2012-06-24
p4543
asg21
Nsa(dp4544
g7
V2012-06-25
p4545
sg9
(dp4546
g11
g12
(S'\x07\xdc\x06\x19'
tRp4547
sg14
L85L
sg15
L3L
sg16
L5L
ssg17
(lp4548
VCommonData
p4549
aV2012-06-25
p4550
asg21
Nsa(dp4551
g7
V2012-06-26
p4552
sg9
(dp4553
g11
g12
(S'\x07\xdc\x06\x1a'
tRp4554
sg14
L89L
sg15
L2L
sg16
L9L
ssg17
(lp4555
VCommonData
p4556
aV2012-06-26
p4557
asg21
Nsa(dp4558
g7
V2012-06-27
p4559
sg9
(dp4560
g11
g12
(S'\x07\xdc\x06\x1b'
tRp4561
sg14
L99L
sg15
L2L
sg16
L8L
ssg17
(lp4562
VCommonData
p4563
aV2012-06-27
p4564
asg21
Nsa(dp4565
g7
V2012-06-28
p4566
sg9
(dp4567
g11
g12
(S'\x07\xdc\x06\x1c'
tRp4568
sg14
L106L
sg15
L1L
sg16
L6L
ssg17
(lp4569
VCommonData
p4570
aV2012-06-28
p4571
asg21
Nsa(dp4572
g7
V2012-06-29
p4573
sg9
(dp4574
g11
g12
(S'\x07\xdc\x06\x1d'
tRp4575
sg14
L120L
sg15
L2L
sg16
L6L
ssg17
(lp4576
VCommonData
p4577
aV2012-06-29
p4578
asg21
Nsa(dp4579
g7
V2012-06-30
p4580
sg9
(dp4581
g11
g12
(S'\x07\xdc\x06\x1e'
tRp4582
sg14
L117L
sg15
L4L
sg16
L5L
ssg17
(lp4583
VCommonData
p4584
aV2012-06-30
p4585
asg21
Nsa(dp4586
g7
V2012-07-01
p4587
sg9
(dp4588
g11
g12
(S'\x07\xdc\x07\x01'
tRp4589
sg14
L124L
sg15
L3L
sg16
L22L
ssg17
(lp4590
VCommonData
p4591
aV2012-07-01
p4592
asg21
Nsa(dp4593
g7
V2012-07-02
p4594
sg9
(dp4595
g11
g12
(S'\x07\xdc\x07\x02'
tRp4596
sg14
L133L
sg15
L3L
sg16
L19L
ssg17
(lp4597
VCommonData
p4598
aV2012-07-02
p4599
asg21
Nsa(dp4600
g7
V2012-07-03
p4601
sg9
(dp4602
g11
g12
(S'\x07\xdc\x07\x03'
tRp4603
sg14
L166L
sg15
L2L
sg16
L19L
ssg17
(lp4604
VCommonData
p4605
aV2012-07-03
p4606
asg21
Nsa(dp4607
g7
V2012-07-04
p4608
sg9
(dp4609
g11
g12
(S'\x07\xdc\x07\x04'
tRp4610
sg14
L146L
sg15
L2L
sg16
L10L
ssg17
(lp4611
VCommonData
p4612
aV2012-07-04
p4613
asg21
Nsa(dp4614
g7
V2012-07-05
p4615
sg9
(dp4616
g11
g12
(S'\x07\xdc\x07\x05'
tRp4617
sg14
L163L
sg15
L4L
sg16
L9L
ssg17
(lp4618
VCommonData
p4619
aV2012-07-05
p4620
asg21
Nsa(dp4621
g7
V2012-07-06
p4622
sg9
(dp4623
g11
g12
(S'\x07\xdc\x07\x06'
tRp4624
sg14
L165L
sg15
L2L
sg16
L14L
ssg17
(lp4625
VCommonData
p4626
aV2012-07-06
p4627
asg21
Nsa(dp4628
g7
V2012-07-07
p4629
sg9
(dp4630
g11
g12
(S'\x07\xdc\x07\x07'
tRp4631
sg14
L158L
sg15
L1L
sg16
L16L
ssg17
(lp4632
VCommonData
p4633
aV2012-07-07
p4634
asg21
Nsa(dp4635
g7
V2012-07-08
p4636
sg9
(dp4637
g11
g12
(S'\x07\xdc\x07\x08'
tRp4638
sg14
L158L
sg15
L2L
sg16
L8L
ssg17
(lp4639
VCommonData
p4640
aV2012-07-08
p4641
asg21
Nsa(dp4642
g7
V2012-07-09
p4643
sg9
(dp4644
g11
g12
(S'\x07\xdc\x07\t'
tRp4645
sg14
L178L
sg15
L5L
sg16
L13L
ssg17
(lp4646
VCommonData
p4647
aV2012-07-09
p4648
asg21
Nsa(dp4649
g7
V2012-07-10
p4650
sg9
(dp4651
g11
g12
(S'\x07\xdc\x07\n'
tRp4652
sg14
L174L
sg15
L2L
sg16
L30L
ssg17
(lp4653
VCommonData
p4654
aV2012-07-10
p4655
asg21
Nsa(dp4656
g7
V2012-07-11
p4657
sg9
(dp4658
g11
g12
(S'\x07\xdc\x07\x0b'
tRp4659
sg14
L173L
sg15
L1L
sg16
L13L
ssg17
(lp4660
VCommonData
p4661
aV2012-07-11
p4662
asg21
Nsa(dp4663
g7
V2012-07-12
p4664
sg9
(dp4665
g11
g12
(S'\x07\xdc\x07\x0c'
tRp4666
sg14
L162L
sg15
L2L
sg16
L10L
ssg17
(lp4667
VCommonData
p4668
aV2012-07-12
p4669
asg21
Nsa(dp4670
g7
V2012-07-13
p4671
sg9
(dp4672
g11
g12
(S'\x07\xdc\x07\r'
tRp4673
sg14
L165L
sg15
L1L
sg16
L11L
ssg17
(lp4674
VCommonData
p4675
aV2012-07-13
p4676
asg21
Nsa(dp4677
g7
V2012-07-14
p4678
sg9
(dp4679
g11
g12
(S'\x07\xdc\x07\x0e'
tRp4680
sg14
L147L
sg15
L2L
sg16
L3L
ssg17
(lp4681
VCommonData
p4682
aV2012-07-14
p4683
asg21
Nsa(dp4684
g7
V2012-07-15
p4685
sg9
(dp4686
g11
g12
(S'\x07\xdc\x07\x0f'
tRp4687
sg14
L148L
sg15
L5L
sg16
L17L
ssg17
(lp4688
VCommonData
p4689
aV2012-07-15
p4690
asg21
Nsa(dp4691
g7
V2012-07-16
p4692
sg9
(dp4693
g11
g12
(S'\x07\xdc\x07\x10'
tRp4694
sg14
L141L
sg15
L4L
sg16
L60L
ssg17
(lp4695
VCommonData
p4696
aV2012-07-16
p4697
asg21
Nsa(dp4698
g7
V2012-07-17
p4699
sg9
(dp4700
g11
g12
(S'\x07\xdc\x07\x11'
tRp4701
sg14
L138L
sg15
L2L
sg16
L31L
ssg17
(lp4702
VCommonData
p4703
aV2012-07-17
p4704
asg21
Nsa(dp4705
g7
V2012-07-18
p4706
sg9
(dp4707
g11
g12
(S'\x07\xdc\x07\x12'
tRp4708
sg14
L128L
sg15
L1L
sg16
L14L
ssg17
(lp4709
VCommonData
p4710
aV2012-07-18
p4711
asg21
Nsa(dp4712
g7
V2012-07-19
p4713
sg9
(dp4714
g11
g12
(S'\x07\xdc\x07\x13'
tRp4715
sg14
L110L
sg15
L1L
sg16
L5L
ssg17
(lp4716
VCommonData
p4717
aV2012-07-19
p4718
asg21
Nsa(dp4719
g7
V2012-07-20
p4720
sg9
(dp4721
g11
g12
(S'\x07\xdc\x07\x14'
tRp4722
sg14
L100L
sg15
L2L
sg16
L6L
ssg17
(lp4723
VCommonData
p4724
aV2012-07-20
p4725
asg21
Nsa(dp4726
g7
V2012-07-21
p4727
sg9
(dp4728
g11
g12
(S'\x07\xdc\x07\x15'
tRp4729
sg14
L92L
sg15
L1L
sg16
L11L
ssg17
(lp4730
VCommonData
p4731
aV2012-07-21
p4732
asg21
Nsa(dp4733
g7
V2012-07-22
p4734
sg9
(dp4735
g11
g12
(S'\x07\xdc\x07\x16'
tRp4736
sg14
L90L
sg15
L2L
sg16
L11L
ssg17
(lp4737
VCommonData
p4738
aV2012-07-22
p4739
asg21
Nsa(dp4740
g7
V2012-07-23
p4741
sg9
(dp4742
g11
g12
(S'\x07\xdc\x07\x17'
tRp4743
sg14
L94L
sg15
L2L
sg16
L8L
ssg17
(lp4744
VCommonData
p4745
aV2012-07-23
p4746
asg21
Nsa(dp4747
g7
V2012-07-24
p4748
sg9
(dp4749
g11
g12
(S'\x07\xdc\x07\x18'
tRp4750
sg14
L97L
sg15
L2L
sg16
L9L
ssg17
(lp4751
VCommonData
p4752
aV2012-07-24
p4753
asg21
Nsa(dp4754
g7
V2012-07-25
p4755
sg9
(dp4756
g11
g12
(S'\x07\xdc\x07\x19'
tRp4757
sg14
L102L
sg15
L2L
sg16
L10L
ssg17
(lp4758
VCommonData
p4759
aV2012-07-25
p4760
asg21
Nsa(dp4761
g7
V2012-07-26
p4762
sg9
(dp4763
g11
g12
(S'\x07\xdc\x07\x1a'
tRp4764
sg14
L105L
sg15
L2L
sg16
L6L
ssg17
(lp4765
VCommonData
p4766
aV2012-07-26
p4767
asg21
Nsa(dp4768
g7
V2012-07-27
p4769
sg9
(dp4770
g11
g12
(S'\x07\xdc\x07\x1b'
tRp4771
sg14
L115L
sg15
L1L
sg16
L4L
ssg17
(lp4772
VCommonData
p4773
aV2012-07-27
p4774
asg21
Nsa(dp4775
g7
V2012-07-28
p4776
sg9
(dp4777
g11
g12
(S'\x07\xdc\x07\x1c'
tRp4778
sg14
L123L
sg15
L3L
sg16
L5L
ssg17
(lp4779
VCommonData
p4780
aV2012-07-28
p4781
asg21
Nsa(dp4782
g7
V2012-07-29
p4783
sg9
(dp4784
g11
g12
(S'\x07\xdc\x07\x1d'
tRp4785
sg14
L127L
sg15
L1L
sg16
L11L
ssg17
(lp4786
VCommonData
p4787
aV2012-07-29
p4788
asg21
Nsa(dp4789
g7
V2012-07-30
p4790
sg9
(dp4791
g11
g12
(S'\x07\xdc\x07\x1e'
tRp4792
sg14
L131L
sg15
L3L
sg16
L6L
ssg17
(lp4793
VCommonData
p4794
aV2012-07-30
p4795
asg21
Nsa(dp4796
g7
V2012-07-31
p4797
sg9
(dp4798
g11
g12
(S'\x07\xdc\x07\x1f'
tRp4799
sg14
L136L
sg15
L2L
sg16
L13L
ssg17
(lp4800
VCommonData
p4801
aV2012-07-31
p4802
asg21
Nsa(dp4803
g7
V2012-08-01
p4804
sg9
(dp4805
g11
g12
(S'\x07\xdc\x08\x01'
tRp4806
sg14
L140L
sg15
L1L
sg16
L6L
ssg17
(lp4807
VCommonData
p4808
aV2012-08-01
p4809
asg21
Nsa(dp4810
g7
V2012-08-02
p4811
sg9
(dp4812
g11
g12
(S'\x07\xdc\x08\x02'
tRp4813
sg14
L150L
sg15
L4L
sg16
L6L
ssg17
(lp4814
VCommonData
p4815
aV2012-08-02
p4816
asg21
Nsa(dp4817
g7
V2012-08-03
p4818
sg9
(dp4819
g11
g12
(S'\x07\xdc\x08\x03'
tRp4820
sg14
L135L
sg15
L2L
sg16
L16L
ssg17
(lp4821
VCommonData
p4822
aV2012-08-03
p4823
asg21
Nsa(dp4824
g7
V2012-08-04
p4825
sg9
(dp4826
g11
g12
(S'\x07\xdc\x08\x04'
tRp4827
sg14
L140L
sg15
L2L
sg16
L7L
ssg17
(lp4828
VCommonData
p4829
aV2012-08-04
p4830
asg21
Nsa(dp4831
g7
V2012-08-05
p4832
sg9
(dp4833
g11
g12
(S'\x07\xdc\x08\x05'
tRp4834
sg14
L139L
sg15
L2L
sg16
L7L
ssg17
(lp4835
VCommonData
p4836
aV2012-08-05
p4837
asg21
Nsa(dp4838
g7
V2012-08-06
p4839
sg9
(dp4840
g11
g12
(S'\x07\xdc\x08\x06'
tRp4841
sg14
L134L
sg15
L2L
sg16
L6L
ssg17
(lp4842
VCommonData
p4843
aV2012-08-06
p4844
asg21
Nsa(dp4845
g7
V2012-08-07
p4846
sg9
(dp4847
g11
g12
(S'\x07\xdc\x08\x07'
tRp4848
sg14
L134L
sg15
L2L
sg16
L11L
ssg17
(lp4849
VCommonData
p4850
aV2012-08-07
p4851
asg21
Nsa(dp4852
g7
V2012-08-08
p4853
sg9
(dp4854
g11
g12
(S'\x07\xdc\x08\x08'
tRp4855
sg14
L129L
sg15
L2L
sg16
L7L
ssg17
(lp4856
VCommonData
p4857
aV2012-08-08
p4858
asg21
Nsa(dp4859
g7
V2012-08-09
p4860
sg9
(dp4861
g11
g12
(S'\x07\xdc\x08\t'
tRp4862
sg14
L133L
sg15
L1L
sg16
L10L
ssg17
(lp4863
VCommonData
p4864
aV2012-08-09
p4865
asg21
Nsa(dp4866
g7
V2012-08-10
p4867
sg9
(dp4868
g11
g12
(S'\x07\xdc\x08\n'
tRp4869
sg14
L131L
sg15
L1L
sg16
L6L
ssg17
(lp4870
VCommonData
p4871
aV2012-08-10
p4872
asg21
Nsa(dp4873
g7
V2012-08-11
p4874
sg9
(dp4875
g11
g12
(S'\x07\xdc\x08\x0b'
tRp4876
sg14
L125L
sg15
L2L
sg16
L4L
ssg17
(lp4877
VCommonData
p4878
aV2012-08-11
p4879
asg21
Nsa(dp4880
g7
V2012-08-12
p4881
sg9
(dp4882
g11
g12
(S'\x07\xdc\x08\x0c'
tRp4883
sg14
L120L
sg15
L2L
sg16
L4L
ssg17
(lp4884
VCommonData
p4885
aV2012-08-12
p4886
asg21
Nsa(dp4887
g7
V2012-08-13
p4888
sg9
(dp4889
g11
g12
(S'\x07\xdc\x08\r'
tRp4890
sg14
L112L
sg15
L2L
sg16
L7L
ssg17
(lp4891
VCommonData
p4892
aV2012-08-13
p4893
asg21
Nsa(dp4894
g7
V2012-08-14
p4895
sg9
(dp4896
g11
g12
(S'\x07\xdc\x08\x0e'
tRp4897
sg14
L108L
sg15
L2L
sg16
L9L
ssg17
(lp4898
VCommonData
p4899
aV2012-08-14
p4900
asg21
Nsa(dp4901
g7
V2012-08-15
p4902
sg9
(dp4903
g11
g12
(S'\x07\xdc\x08\x0f'
tRp4904
sg14
L106L
sg15
L1L
sg16
L7L
ssg17
(lp4905
VCommonData
p4906
aV2012-08-15
p4907
asg21
Nsa(dp4908
g7
V2012-08-16
p4909
sg9
(dp4910
g11
g12
(S'\x07\xdc\x08\x10'
tRp4911
sg14
L101L
sg15
L3L
sg16
L6L
ssg17
(lp4912
VCommonData
p4913
aV2012-08-16
p4914
asg21
Nsa(dp4915
g7
V2012-08-17
p4916
sg9
(dp4917
g11
g12
(S'\x07\xdc\x08\x11'
tRp4918
sg14
L98L
sg15
L2L
sg16
L11L
ssg17
(lp4919
VCommonData
p4920
aV2012-08-17
p4921
asg21
Nsa(dp4922
g7
V2012-08-18
p4923
sg9
(dp4924
g11
g12
(S'\x07\xdc\x08\x12'
tRp4925
sg14
L95L
sg15
L2L
sg16
L10L
ssg17
(lp4926
VCommonData
p4927
aV2012-08-18
p4928
asg21
Nsa(dp4929
g7
V2012-08-19
p4930
sg9
(dp4931
g11
g12
(S'\x07\xdc\x08\x13'
tRp4932
sg14
L97L
sg15
L3L
sg16
L11L
ssg17
(lp4933
VCommonData
p4934
aV2012-08-19
p4935
asg21
Nsa(dp4936
g7
V2012-08-20
p4937
sg9
(dp4938
g11
g12
(S'\x07\xdc\x08\x14'
tRp4939
sg14
L96L
sg15
L3L
sg16
L12L
ssg17
(lp4940
VCommonData
p4941
aV2012-08-20
p4942
asg21
Nsa(dp4943
g7
V2012-08-21
p4944
sg9
(dp4945
g11
g12
(S'\x07\xdc\x08\x15'
tRp4946
sg14
L96L
sg15
L2L
sg16
L12L
ssg17
(lp4947
VCommonData
p4948
aV2012-08-21
p4949
asg21
Nsa(dp4950
g7
V2012-08-22
p4951
sg9
(dp4952
g11
g12
(S'\x07\xdc\x08\x16'
tRp4953
sg14
L94L
sg15
L2L
sg16
L7L
ssg17
(lp4954
VCommonData
p4955
aV2012-08-22
p4956
asg21
Nsa(dp4957
g7
V2012-08-23
p4958
sg9
(dp4959
g11
g12
(S'\x07\xdc\x08\x17'
tRp4960
sg14
L95L
sg15
L3L
sg16
L6L
ssg17
(lp4961
VCommonData
p4962
aV2012-08-23
p4963
asg21
Nsa(dp4964
g7
V2012-08-24
p4965
sg9
(dp4966
g11
g12
(S'\x07\xdc\x08\x18'
tRp4967
sg14
L97L
sg15
L2L
sg16
L10L
ssg17
(lp4968
VCommonData
p4969
aV2012-08-24
p4970
asg21
Nsa(dp4971
g7
V2012-08-25
p4972
sg9
(dp4973
g11
g12
(S'\x07\xdc\x08\x19'
tRp4974
sg14
L104L
sg15
L2L
sg16
L9L
ssg17
(lp4975
VCommonData
p4976
aV2012-08-25
p4977
asg21
Nsa(dp4978
g7
V2012-08-26
p4979
sg9
(dp4980
g11
g12
(S'\x07\xdc\x08\x1a'
tRp4981
sg14
L106L
sg15
L4L
sg16
L10L
ssg17
(lp4982
VCommonData
p4983
aV2012-08-26
p4984
asg21
Nsa(dp4985
g7
V2012-08-27
p4986
sg9
(dp4987
g11
g12
(S'\x07\xdc\x08\x1b'
tRp4988
sg14
L113L
sg15
L1L
sg16
L11L
ssg17
(lp4989
VCommonData
p4990
aV2012-08-27
p4991
asg21
Nsa(dp4992
g7
V2012-08-28
p4993
sg9
(dp4994
g11
g12
(S'\x07\xdc\x08\x1c'
tRp4995
sg14
L112L
sg15
L1L
sg16
L7L
ssg17
(lp4996
VCommonData
p4997
aV2012-08-28
p4998
asg21
Nsa(dp4999
g7
V2012-08-29
p5000
sg9
(dp5001
g11
g12
(S'\x07\xdc\x08\x1d'
tRp5002
sg14
L111L
sg15
L1L
sg16
L4L
ssg17
(lp5003
VCommonData
p5004
aV2012-08-29
p5005
asg21
Nsa(dp5006
g7
V2012-08-30
p5007
sg9
(dp5008
g11
g12
(S'\x07\xdc\x08\x1e'
tRp5009
sg14
L118L
sg15
L1L
sg16
L4L
ssg17
(lp5010
VCommonData
p5011
aV2012-08-30
p5012
asg21
Nsa(dp5013
g7
V2012-08-31
p5014
sg9
(dp5015
g11
g12
(S'\x07\xdc\x08\x1f'
tRp5016
sg14
L128L
sg15
L1L
sg16
L4L
ssg17
(lp5017
VCommonData
p5018
aV2012-08-31
p5019
asg21
Nsa(dp5020
g7
V2012-09-01
p5021
sg9
(dp5022
g11
g12
(S'\x07\xdc\t\x01'
tRp5023
sg14
L131L
sg15
L2L
sg16
L3L
ssg17
(lp5024
VCommonData
p5025
aV2012-09-01
p5026
asg21
Nsa(dp5027
g7
V2012-09-02
p5028
sg9
(dp5029
g11
g12
(S'\x07\xdc\t\x02'
tRp5030
sg14
L146L
sg15
L2L
sg16
L7L
ssg17
(lp5031
VCommonData
p5032
aV2012-09-02
p5033
asg21
Nsa(dp5034
g7
V2012-09-03
p5035
sg9
(dp5036
g11
g12
(S'\x07\xdc\t\x03'
tRp5037
sg14
L142L
sg15
L6L
sg16
L12L
ssg17
(lp5038
VCommonData
p5039
aV2012-09-03
p5040
asg21
Nsa(dp5041
g7
V2012-09-04
p5042
sg9
(dp5043
g11
g12
(S'\x07\xdc\t\x04'
tRp5044
sg14
L142L
sg15
L2L
sg16
L32L
ssg17
(lp5045
VCommonData
p5046
aV2012-09-04
p5047
asg21
Nsa(dp5048
g7
V2012-09-05
p5049
sg9
(dp5050
g11
g12
(S'\x07\xdc\t\x05'
tRp5051
sg14
L138L
sg15
L2L
sg16
L13L
ssg17
(lp5052
VCommonData
p5053
aV2012-09-05
p5054
asg21
Nsa(dp5055
g7
V2012-09-06
p5056
sg9
(dp5057
g11
g12
(S'\x07\xdc\t\x06'
tRp5058
sg14
L133L
sg15
L4L
sg16
L28L
ssg17
(lp5059
VCommonData
p5060
aV2012-09-06
p5061
asg21
Nsa(dp5062
g7
V2012-09-07
p5063
sg9
(dp5064
g11
g12
(S'\x07\xdc\t\x07'
tRp5065
sg14
L128L
sg15
L2L
sg16
L11L
ssg17
(lp5066
VCommonData
p5067
aV2012-09-07
p5068
asg21
Nsa(dp5069
g7
V2012-09-08
p5070
sg9
(dp5071
g11
g12
(S'\x07\xdc\t\x08'
tRp5072
sg14
L133L
sg15
L2L
sg16
L9L
ssg17
(lp5073
VCommonData
p5074
aV2012-09-08
p5075
asg21
Nsa(dp5076
g7
V2012-09-09
p5077
sg9
(dp5078
g11
g12
(S'\x07\xdc\t\t'
tRp5079
sg14
L129L
sg15
L2L
sg16
L8L
ssg17
(lp5080
VCommonData
p5081
aV2012-09-09
p5082
asg21
Nsa(dp5083
g7
V2012-09-10
p5084
sg9
(dp5085
g11
g12
(S'\x07\xdc\t\n'
tRp5086
sg14
L123L
sg15
L2L
sg16
L5L
ssg17
(lp5087
VCommonData
p5088
aV2012-09-10
p5089
asg21
Nsa(dp5090
g7
V2012-09-11
p5091
sg9
(dp5092
g11
g12
(S'\x07\xdc\t\x0b'
tRp5093
sg14
L111L
sg15
L1L
sg16
L4L
ssg17
(lp5094
VCommonData
p5095
aV2012-09-11
p5096
asg21
Nsa(dp5097
g7
V2012-09-12
p5098
sg9
(dp5099
g11
g12
(S'\x07\xdc\t\x0c'
tRp5100
sg14
L105L
sg15
L2L
sg16
L3L
ssg17
(lp5101
VCommonData
p5102
aV2012-09-12
p5103
asg21
Nsa(dp5104
g7
V2012-09-13
p5105
sg9
(dp5106
g11
g12
(S'\x07\xdc\t\r'
tRp5107
sg14
L103L
sg15
L1L
sg16
L6L
ssg17
(lp5108
VCommonData
p5109
aV2012-09-13
p5110
asg21
Nsa(dp5111
g7
V2012-09-14
p5112
sg9
(dp5113
g11
g12
(S'\x07\xdc\t\x0e'
tRp5114
sg14
L99L
sg15
L2L
sg16
L6L
ssg17
(lp5115
VCommonData
p5116
aV2012-09-14
p5117
asg21
Nsa(dp5118
g7
V2012-09-15
p5119
sg9
(dp5120
g11
g12
(S'\x07\xdc\t\x0f'
tRp5121
sg14
L101L
sg15
L1L
sg16
L5L
ssg17
(lp5122
VCommonData
p5123
aV2012-09-15
p5124
asg21
Nsa(dp5125
g7
V2012-09-16
p5126
sg9
(dp5127
g11
g12
(S'\x07\xdc\t\x10'
tRp5128
sg14
L98L
sg15
L2L
sg16
L6L
ssg17
(lp5129
VCommonData
p5130
aV2012-09-16
p5131
asg21
Nsa(dp5132
g7
V2012-09-17
p5133
sg9
(dp5134
g11
g12
(S'\x07\xdc\t\x11'
tRp5135
sg14
L97L
sg15
L2L
sg16
L7L
ssg17
(lp5136
VCommonData
p5137
aV2012-09-17
p5138
asg21
Nsa(dp5139
g7
V2012-09-18
p5140
sg9
(dp5141
g11
g12
(S'\x07\xdc\t\x12'
tRp5142
sg14
L102L
sg15
L2L
sg16
L6L
ssg17
(lp5143
VCommonData
p5144
aV2012-09-18
p5145
asg21
Nsa(dp5146
g7
V2012-09-19
p5147
sg9
(dp5148
g11
g12
(S'\x07\xdc\t\x13'
tRp5149
sg14
L104L
sg15
L2L
sg16
L8L
ssg17
(lp5150
VCommonData
p5151
aV2012-09-19
p5152
asg21
Nsa(dp5153
g7
V2012-09-20
p5154
sg9
(dp5155
g11
g12
(S'\x07\xdc\t\x14'
tRp5156
sg14
L110L
sg15
L2L
sg16
L14L
ssg17
(lp5157
VCommonData
p5158
aV2012-09-20
p5159
asg21
Nsa(dp5160
g7
V2012-09-21
p5161
sg9
(dp5162
g11
g12
(S'\x07\xdc\t\x15'
tRp5163
sg14
L117L
sg15
L2L
sg16
L9L
ssg17
(lp5164
VCommonData
p5165
aV2012-09-21
p5166
asg21
Nsa(dp5167
g7
V2012-09-22
p5168
sg9
(dp5169
g11
g12
(S'\x07\xdc\t\x16'
tRp5170
sg14
L117L
sg15
L1L
sg16
L5L
ssg17
(lp5171
VCommonData
p5172
aV2012-09-22
p5173
asg21
Nsa(dp5174
g7
V2012-09-23
p5175
sg9
(dp5176
g11
g12
(S'\x07\xdc\t\x17'
tRp5177
sg14
L125L
sg15
L1L
sg16
L4L
ssg17
(lp5178
VCommonData
p5179
aV2012-09-23
p5180
asg21
Nsa(dp5181
g7
V2012-09-24
p5182
sg9
(dp5183
g11
g12
(S'\x07\xdc\t\x18'
tRp5184
sg14
L134L
sg15
L1L
sg16
L2L
ssg17
(lp5185
VCommonData
p5186
aV2012-09-24
p5187
asg21
Nsa(dp5188
g7
V2012-09-25
p5189
sg9
(dp5190
g11
g12
(S'\x07\xdc\t\x19'
tRp5191
sg14
L137L
sg15
L1L
sg16
L2L
ssg17
(lp5192
VCommonData
p5193
aV2012-09-25
p5194
asg21
Nsa(dp5195
g7
V2012-09-26
p5196
sg9
(dp5197
g11
g12
(S'\x07\xdc\t\x1a'
tRp5198
sg14
L140L
sg15
L2L
sg16
L2L
ssg17
(lp5199
VCommonData
p5200
aV2012-09-26
p5201
asg21
Nsa(dp5202
g7
V2012-09-27
p5203
sg9
(dp5204
g11
g12
(S'\x07\xdc\t\x1b'
tRp5205
sg14
L139L
sg15
L1L
sg16
L6L
ssg17
(lp5206
VCommonData
p5207
aV2012-09-27
p5208
asg21
Nsa(dp5209
g7
V2012-09-28
p5210
sg9
(dp5211
g11
g12
(S'\x07\xdc\t\x1c'
tRp5212
sg14
L133L
sg15
L1L
sg16
L5L
ssg17
(lp5213
VCommonData
p5214
aV2012-09-28
p5215
asg21
Nsa(dp5216
g7
V2012-09-29
p5217
sg9
(dp5218
g11
g12
(S'\x07\xdc\t\x1d'
tRp5219
sg14
L138L
sg15
L1L
sg16
L2L
ssg17
(lp5220
VCommonData
p5221
aV2012-09-29
p5222
asg21
Nsa(dp5223
g7
V2012-09-30
p5224
sg9
(dp5225
g11
g12
(S'\x07\xdc\t\x1e'
tRp5226
sg14
L136L
sg15
L3L
sg16
L4L
ssg17
(lp5227
VCommonData
p5228
aV2012-09-30
p5229
asg21
Nsa(dp5230
g7
V2012-10-01
p5231
sg9
(dp5232
g11
g12
(S'\x07\xdc\n\x01'
tRp5233
sg14
L136L
sg15
L3L
sg16
L10L
ssg17
(lp5234
VCommonData
p5235
aV2012-10-01
p5236
asg21
Nsa(dp5237
g7
V2012-10-02
p5238
sg9
(dp5239
g11
g12
(S'\x07\xdc\n\x02'
tRp5240
sg14
L128L
sg15
L2L
sg16
L31L
ssg17
(lp5241
VCommonData
p5242
aV2012-10-02
p5243
asg21
Nsa(dp5244
g7
V2012-10-03
p5245
sg9
(dp5246
g11
g12
(S'\x07\xdc\n\x03'
tRp5247
sg14
L118L
sg15
L1L
sg16
L5L
ssg17
(lp5248
VCommonData
p5249
aV2012-10-03
p5250
asg21
Nsa(dp5251
g7
V2012-10-04
p5252
sg9
(dp5253
g11
g12
(S'\x07\xdc\n\x04'
tRp5254
sg14
L113L
sg15
L1L
sg16
L5L
ssg17
(lp5255
VCommonData
p5256
aV2012-10-04
p5257
asg21
Nsa(dp5258
g7
V2012-10-05
p5259
sg9
(dp5260
g11
g12
(S'\x07\xdc\n\x05'
tRp5261
sg14
L110L
sg15
L1L
sg16
L3L
ssg17
(lp5262
VCommonData
p5263
aV2012-10-05
p5264
asg21
Nsa(dp5265
g7
V2012-10-06
p5266
sg9
(dp5267
g11
g12
(S'\x07\xdc\n\x06'
tRp5268
sg14
L106L
sg15
L2L
sg16
L4L
ssg17
(lp5269
VCommonData
p5270
aV2012-10-06
p5271
asg21
Nsa(dp5272
g7
V2012-10-07
p5273
sg9
(dp5274
g11
g12
(S'\x07\xdc\n\x07'
tRp5275
sg14
L99L
sg15
L1L
sg16
L6L
ssg17
(lp5276
VCommonData
p5277
aV2012-10-07
p5278
asg21
Nsa(dp5279
g7
V2012-10-08
p5280
sg9
(dp5281
g11
g12
(S'\x07\xdc\n\x08'
tRp5282
sg14
L98L
sg15
L4L
sg16
L5L
ssg17
(lp5283
VCommonData
p5284
aV2012-10-08
p5285
asg21
Nsa(dp5286
g7
V2012-10-09
p5287
sg9
(dp5288
g11
g12
(S'\x07\xdc\n\t'
tRp5289
sg14
L103L
sg15
L2L
sg16
L35L
ssg17
(lp5290
VCommonData
p5291
aV2012-10-09
p5292
asg21
Nsa(dp5293
g7
V2012-10-10
p5294
sg9
(dp5295
g11
g12
(S'\x07\xdc\n\n'
tRp5296
sg14
L106L
sg15
L2L
sg16
L42L
ssg17
(lp5297
VCommonData
p5298
aV2012-10-10
p5299
asg21
Nsa(dp5300
g7
V2012-10-11
p5301
sg9
(dp5302
g11
g12
(S'\x07\xdc\n\x0b'
tRp5303
sg14
L112L
sg15
L2L
sg16
L10L
ssg17
(lp5304
VCommonData
p5305
aV2012-10-11
p5306
asg21
Nsa(dp5307
g7
V2012-10-12
p5308
sg9
(dp5309
g11
g12
(S'\x07\xdc\n\x0c'
tRp5310
sg14
L117L
sg15
L2L
sg16
L6L
ssg17
(lp5311
VCommonData
p5312
aV2012-10-12
p5313
asg21
Nsa(dp5314
g7
V2012-10-13
p5315
sg9
(dp5316
g11
g12
(S'\x07\xdc\n\r'
tRp5317
sg14
L122L
sg15
L5L
sg16
L12L
ssg17
(lp5318
VCommonData
p5319
aV2012-10-13
p5320
asg21
Nsa(dp5321
g7
V2012-10-14
p5322
sg9
(dp5323
g11
g12
(S'\x07\xdc\n\x0e'
tRp5324
sg14
L125L
sg15
L3L
sg16
L38L
ssg17
(lp5325
VCommonData
p5326
aV2012-10-14
p5327
asg21
Nsa(dp5328
g7
V2012-10-15
p5329
sg9
(dp5330
g11
g12
(S'\x07\xdc\n\x0f'
tRp5331
sg14
L132L
sg15
L2L
sg16
L19L
ssg17
(lp5332
VCommonData
p5333
aV2012-10-15
p5334
asg21
Nsa(dp5335
g7
V2012-10-16
p5336
sg9
(dp5337
g11
g12
(S'\x07\xdc\n\x10'
tRp5338
sg14
L137L
sg15
L2L
sg16
L8L
ssg17
(lp5339
VCommonData
p5340
aV2012-10-16
p5341
asg21
Nsa(dp5342
g7
V2012-10-17
p5343
sg9
(dp5344
g11
g12
(S'\x07\xdc\n\x11'
tRp5345
sg14
L137L
sg15
L2L
sg16
L5L
ssg17
(lp5346
VCommonData
p5347
aV2012-10-17
p5348
asg21
Nsa(dp5349
g7
V2012-10-18
p5350
sg9
(dp5351
g11
g12
(S'\x07\xdc\n\x12'
tRp5352
sg14
L135L
sg15
L1L
sg16
L7L
ssg17
(lp5353
VCommonData
p5354
aV2012-10-18
p5355
asg21
Nsa(dp5356
g7
V2012-10-19
p5357
sg9
(dp5358
g11
g12
(S'\x07\xdc\n\x13'
tRp5359
sg14
L138L
sg15
L1L
sg16
L5L
ssg17
(lp5360
VCommonData
p5361
aV2012-10-19
p5362
asg21
Nsa(dp5363
g7
V2012-10-20
p5364
sg9
(dp5365
g11
g12
(S'\x07\xdc\n\x14'
tRp5366
sg14
L141L
sg15
L1L
sg16
L4L
ssg17
(lp5367
VCommonData
p5368
aV2012-10-20
p5369
asg21
Nsa(dp5370
g7
V2012-10-21
p5371
sg9
(dp5372
g11
g12
(S'\x07\xdc\n\x15'
tRp5373
sg14
L151L
sg15
L1L
sg16
L3L
ssg17
(lp5374
VCommonData
p5375
aV2012-10-21
p5376
asg21
Nsa(dp5377
g7
V2012-10-22
p5378
sg9
(dp5379
g11
g12
(S'\x07\xdc\n\x16'
tRp5380
sg14
L144L
sg15
L0L
sg16
L3L
ssg17
(lp5381
VCommonData
p5382
aV2012-10-22
p5383
asg21
Nsa(dp5384
g7
V2012-10-23
p5385
sg9
(dp5386
g11
g12
(S'\x07\xdc\n\x17'
tRp5387
sg14
L156L
sg15
L2L
sg16
L3L
ssg17
(lp5388
VCommonData
p5389
aV2012-10-23
p5390
asg21
Nsa(dp5391
g7
V2012-10-24
p5392
sg9
(dp5393
g11
g12
(S'\x07\xdc\n\x18'
tRp5394
sg14
L142L
sg15
L1L
sg16
L7L
ssg17
(lp5395
VCommonData
p5396
aV2012-10-24
p5397
asg21
Nsa(dp5398
g7
V2012-10-25
p5399
sg9
(dp5400
g11
g12
(S'\x07\xdc\n\x19'
tRp5401
sg14
L136L
sg15
L1L
sg16
L4L
ssg17
(lp5402
VCommonData
p5403
aV2012-10-25
p5404
asg21
Nsa(dp5405
g7
V2012-10-26
p5406
sg9
(dp5407
g11
g12
(S'\x07\xdc\n\x1a'
tRp5408
sg14
L130L
sg15
L1L
sg16
L4L
ssg17
(lp5409
VCommonData
p5410
aV2012-10-26
p5411
asg21
Nsa(dp5412
g7
V2012-10-27
p5413
sg9
(dp5414
g11
g12
(S'\x07\xdc\n\x1b'
tRp5415
sg14
L131L
sg15
L1L
sg16
L4L
ssg17
(lp5416
VCommonData
p5417
aV2012-10-27
p5418
asg21
Nsa(dp5419
g7
V2012-10-28
p5420
sg9
(dp5421
g11
g12
(S'\x07\xdc\n\x1c'
tRp5422
sg14
L122L
sg15
L1L
sg16
L4L
ssg17
(lp5423
VCommonData
p5424
aV2012-10-28
p5425
asg21
Nsa(dp5426
g7
V2012-10-29
p5427
sg9
(dp5428
g11
g12
(S'\x07\xdc\n\x1d'
tRp5429
sg14
L117L
sg15
L0L
sg16
L3L
ssg17
(lp5430
VCommonData
p5431
aV2012-10-29
p5432
asg21
Nsa(dp5433
g7
V2012-10-30
p5434
sg9
(dp5435
g11
g12
(S'\x07\xdc\n\x1e'
tRp5436
sg14
L108L
sg15
L1L
sg16
L3L
ssg17
(lp5437
VCommonData
p5438
aV2012-10-30
p5439
asg21
Nsa(dp5440
g7
V2012-10-31
p5441
sg9
(dp5442
g11
g12
(S'\x07\xdc\n\x1f'
tRp5443
sg14
L106L
sg15
L1L
sg16
L2L
ssg17
(lp5444
VCommonData
p5445
aV2012-10-31
p5446
asg21
Nsa(dp5447
g7
V2012-11-01
p5448
sg9
(dp5449
g11
g12
(S'\x07\xdc\x0b\x01'
tRp5450
sg14
L104L
sg15
L3L
sg16
L5L
ssg17
(lp5451
VCommonData
p5452
aV2012-11-01
p5453
asg21
Nsa(dp5454
g7
V2012-11-02
p5455
sg9
(dp5456
g11
g12
(S'\x07\xdc\x0b\x02'
tRp5457
sg14
L98L
sg15
L1L
sg16
L17L
ssg17
(lp5458
VCommonData
p5459
aV2012-11-02
p5460
asg21
Nsa(dp5461
g7
V2012-11-03
p5462
sg9
(dp5463
g11
g12
(S'\x07\xdc\x0b\x03'
tRp5464
sg14
L97L
sg15
L1L
sg16
L5L
ssg17
(lp5465
VCommonData
p5466
aV2012-11-03
p5467
asg21
Nsa(dp5468
g7
V2012-11-04
p5469
sg9
(dp5470
g11
g12
(S'\x07\xdc\x0b\x04'
tRp5471
sg14
L93L
sg15
L1L
sg16
L3L
ssg17
(lp5472
VCommonData
p5473
aV2012-11-04
p5474
asg21
Nsa(dp5475
g7
V2012-11-05
p5476
sg9
(dp5477
g11
g12
(S'\x07\xdc\x0b\x05'
tRp5478
sg14
L95L
sg15
L1L
sg16
L2L
ssg17
(lp5479
VCommonData
p5480
aV2012-11-05
p5481
asg21
Nsa(dp5482
g7
V2012-11-06
p5483
sg9
(dp5484
g11
g12
(S'\x07\xdc\x0b\x06'
tRp5485
sg14
L97L
sg15
L1L
sg16
L2L
ssg17
(lp5486
VCommonData
p5487
aV2012-11-06
p5488
asg21
Nsa(dp5489
g7
V2012-11-07
p5490
sg9
(dp5491
g11
g12
(S'\x07\xdc\x0b\x07'
tRp5492
sg14
L99L
sg15
L2L
sg16
L4L
ssg17
(lp5493
VCommonData
p5494
aV2012-11-07
p5495
asg21
Nsa(dp5496
g7
V2012-11-08
p5497
sg9
(dp5498
g11
g12
(S'\x07\xdc\x0b\x08'
tRp5499
sg14
L102L
sg15
L1L
sg16
L10L
ssg17
(lp5500
VCommonData
p5501
aV2012-11-08
p5502
asg21
Nsa(dp5503
g7
V2012-11-09
p5504
sg9
(dp5505
g11
g12
(S'\x07\xdc\x0b\t'
tRp5506
sg14
L104L
sg15
L1L
sg16
L3L
ssg17
(lp5507
VCommonData
p5508
aV2012-11-09
p5509
asg21
Nsa(dp5510
g7
V2012-11-10
p5511
sg9
(dp5512
g11
g12
(S'\x07\xdc\x0b\n'
tRp5513
sg14
L115L
sg15
L1L
sg16
L2L
ssg17
(lp5514
VCommonData
p5515
aV2012-11-10
p5516
asg21
Nsa(dp5517
g7
V2012-11-11
p5518
sg9
(dp5519
g11
g12
(S'\x07\xdc\x0b\x0b'
tRp5520
sg14
L122L
sg15
L1L
sg16
L2L
ssg17
(lp5521
VCommonData
p5522
aV2012-11-11
p5523
asg21
Nsa(dp5524
g7
V2012-11-12
p5525
sg9
(dp5526
g11
g12
(S'\x07\xdc\x0b\x0c'
tRp5527
sg14
L133L
sg15
L0L
sg16
L3L
ssg17
(lp5528
VCommonData
p5529
aV2012-11-12
p5530
asg21
Nsa(dp5531
g7
V2012-11-13
p5532
sg9
(dp5533
g11
g12
(S'\x07\xdc\x0b\r'
tRp5534
sg14
L144L
sg15
L3L
sg16
L5L
ssg17
(lp5535
VCommonData
p5536
aV2012-11-13
p5537
asg21
Nsa(dp5538
g7
V2012-11-14
p5539
sg9
(dp5540
g11
g12
(S'\x07\xdc\x0b\x0e'
tRp5541
sg14
L146L
sg15
L4L
sg16
L15L
ssg17
(lp5542
VCommonData
p5543
aV2012-11-14
p5544
asg21
Nsa(dp5545
g7
V2012-11-15
p5546
sg9
(dp5547
g11
g12
(S'\x07\xdc\x0b\x0f'
tRp5548
sg14
L142L
sg15
L0L
sg16
L33L
ssg17
(lp5549
VCommonData
p5550
aV2012-11-15
p5551
asg21
Nsa(dp5552
g7
V2012-11-16
p5553
sg9
(dp5554
g11
g12
(S'\x07\xdc\x0b\x10'
tRp5555
sg14
L141L
sg15
L1L
sg16
L3L
ssg17
(lp5556
VCommonData
p5557
aV2012-11-16
p5558
asg21
Nsa(dp5559
g7
V2012-11-17
p5560
sg9
(dp5561
g11
g12
(S'\x07\xdc\x0b\x11'
tRp5562
sg14
L138L
sg15
L2L
sg16
L5L
ssg17
(lp5563
VCommonData
p5564
aV2012-11-17
p5565
asg21
Nsa(dp5566
g7
V2012-11-18
p5567
sg9
(dp5568
g11
g12
(S'\x07\xdc\x0b\x12'
tRp5569
sg14
L135L
sg15
L1L
sg16
L7L
ssg17
(lp5570
VCommonData
p5571
aV2012-11-18
p5572
asg21
Nsa(dp5573
g7
V2012-11-19
p5574
sg9
(dp5575
g11
g12
(S'\x07\xdc\x0b\x13'
tRp5576
sg14
L141L
sg15
L2L
sg16
L5L
ssg17
(lp5577
VCommonData
p5578
aV2012-11-19
p5579
asg21
Nsa(dp5580
g7
V2012-11-20
p5581
sg9
(dp5582
g11
g12
(S'\x07\xdc\x0b\x14'
tRp5583
sg14
L134L
sg15
L2L
sg16
L4L
ssg17
(lp5584
VCommonData
p5585
aV2012-11-20
p5586
asg21
Nsa(dp5587
g7
V2012-11-21
p5588
sg9
(dp5589
g11
g12
(S'\x07\xdc\x0b\x15'
tRp5590
sg14
L141L
sg15
L1L
sg16
L11L
ssg17
(lp5591
VCommonData
p5592
aV2012-11-21
p5593
asg21
Nsa(dp5594
g7
V2012-11-22
p5595
sg9
(dp5596
g11
g12
(S'\x07\xdc\x0b\x16'
tRp5597
sg14
L140L
sg15
L1L
sg16
L7L
ssg17
(lp5598
VCommonData
p5599
aV2012-11-22
p5600
asg21
Nsa(dp5601
g7
V2012-11-23
p5602
sg9
(dp5603
g11
g12
(S'\x07\xdc\x0b\x17'
tRp5604
sg14
L128L
sg15
L0L
sg16
L2L
ssg17
(lp5605
VCommonData
p5606
aV2012-11-23
p5607
asg21
Nsa(dp5608
g7
V2012-11-24
p5609
sg9
(dp5610
g11
g12
(S'\x07\xdc\x0b\x18'
tRp5611
sg14
L126L
sg15
L3L
sg16
L7L
ssg17
(lp5612
VCommonData
p5613
aV2012-11-24
p5614
asg21
Nsa(dp5615
g7
V2012-11-25
p5616
sg9
(dp5617
g11
g12
(S'\x07\xdc\x0b\x19'
tRp5618
sg14
L118L
sg15
L1L
sg16
L13L
ssg17
(lp5619
VCommonData
p5620
aV2012-11-25
p5621
asg21
Nsa(dp5622
g7
V2012-11-26
p5623
sg9
(dp5624
g11
g12
(S'\x07\xdc\x0b\x1a'
tRp5625
sg14
L121L
sg15
L0L
sg16
L4L
ssg17
(lp5626
VCommonData
p5627
aV2012-11-26
p5628
asg21
Nsa(dp5629
g7
V2012-11-27
p5630
sg9
(dp5631
g11
g12
(S'\x07\xdc\x0b\x1b'
tRp5632
sg14
L122L
sg15
L1L
sg16
L5L
ssg17
(lp5633
VCommonData
p5634
aV2012-11-27
p5635
asg21
Nsa(dp5636
g7
V2012-11-28
p5637
sg9
(dp5638
g11
g12
(S'\x07\xdc\x0b\x1c'
tRp5639
sg14
L117L
sg15
L0L
sg16
L4L
ssg17
(lp5640
VCommonData
p5641
aV2012-11-28
p5642
asg21
Nsa(dp5643
g7
V2012-11-29
p5644
sg9
(dp5645
g11
g12
(S'\x07\xdc\x0b\x1d'
tRp5646
sg14
L114L
sg15
L0L
sg16
L2L
ssg17
(lp5647
VCommonData
p5648
aV2012-11-29
p5649
asg21
Nsa(dp5650
g7
V2012-11-30
p5651
sg9
(dp5652
g11
g12
(S'\x07\xdc\x0b\x1e'
tRp5653
sg14
L113L
sg15
L0L
sg16
L3L
ssg17
(lp5654
VCommonData
p5655
aV2012-11-30
p5656
asg21
Nsa(dp5657
g7
V2012-12-01
p5658
sg9
(dp5659
g11
g12
(S'\x07\xdc\x0c\x01'
tRp5660
sg14
L111L
sg15
L0L
sg16
L2L
ssg17
(lp5661
VCommonData
p5662
aV2012-12-01
p5663
asg21
Nsa(dp5664
g7
V2012-12-02
p5665
sg9
(dp5666
g11
g12
(S'\x07\xdc\x0c\x02'
tRp5667
sg14
L102L
sg15
L2L
sg16
L4L
ssg17
(lp5668
VCommonData
p5669
aV2012-12-02
p5670
asg21
Nsa(dp5671
g7
V2012-12-03
p5672
sg9
(dp5673
g11
g12
(S'\x07\xdc\x0c\x03'
tRp5674
sg14
L98L
sg15
L1L
sg16
L7L
ssg17
(lp5675
VCommonData
p5676
aV2012-12-03
p5677
asg21
Nsa(dp5678
g7
V2012-12-04
p5679
sg9
(dp5680
g11
g12
(S'\x07\xdc\x0c\x04'
tRp5681
sg14
L97L
sg15
L0L
sg16
L4L
ssg17
(lp5682
VCommonData
p5683
aV2012-12-04
p5684
asg21
Nsa(dp5685
g7
V2012-12-05
p5686
sg9
(dp5687
g11
g12
(S'\x07\xdc\x0c\x05'
tRp5688
sg14
L96L
sg15
L0L
sg16
L3L
ssg17
(lp5689
VCommonData
p5690
aV2012-12-05
p5691
asg21
Nsa(dp5692
g7
V2012-12-06
p5693
sg9
(dp5694
g11
g12
(S'\x07\xdc\x0c\x06'
tRp5695
sg14
L96L
sg15
L0L
sg16
L2L
ssg17
(lp5696
VCommonData
p5697
aV2012-12-06
p5698
asg21
Nsa(dp5699
g7
V2012-12-07
p5700
sg9
(dp5701
g11
g12
(S'\x07\xdc\x0c\x07'
tRp5702
sg14
L97L
sg15
L0L
sg16
L1L
ssg17
(lp5703
VCommonData
p5704
aV2012-12-07
p5705
asg21
Nsa(dp5706
g7
V2012-12-08
p5707
sg9
(dp5708
g11
g12
(S'\x07\xdc\x0c\x08'
tRp5709
sg14
L97L
sg15
L0L
sg16
L1L
ssg17
(lp5710
VCommonData
p5711
aV2012-12-08
p5712
asg21
Nsa(dp5713
g7
V2012-12-09
p5714
sg9
(dp5715
g11
g12
(S'\x07\xdc\x0c\t'
tRp5716
sg14
L101L
sg15
L0L
sg16
L1L
ssg17
(lp5717
VCommonData
p5718
aV2012-12-09
p5719
asg21
Nsa(dp5720
g7
V2012-12-10
p5721
sg9
(dp5722
g11
g12
(S'\x07\xdc\x0c\n'
tRp5723
sg14
L104L
sg15
L1L
sg16
L4L
ssg17
(lp5724
VCommonData
p5725
aV2012-12-10
p5726
asg21
Nsa(dp5727
g7
V2012-12-11
p5728
sg9
(dp5729
g11
g12
(S'\x07\xdc\x0c\x0b'
tRp5730
sg14
L104L
sg15
L0L
sg16
L3L
ssg17
(lp5731
VCommonData
p5732
aV2012-12-11
p5733
asg21
Nsa(dp5734
g7
V2012-12-12
p5735
sg9
(dp5736
g11
g12
(S'\x07\xdc\x0c\x0c'
tRp5737
sg14
L104L
sg15
L1L
sg16
L2L
ssg17
(lp5738
VCommonData
p5739
aV2012-12-12
p5740
asg21
Nsa(dp5741
g7
V2012-12-13
p5742
sg9
(dp5743
g11
g12
(S'\x07\xdc\x0c\r'
tRp5744
sg14
L112L
sg15
L0L
sg16
L2L
ssg17
(lp5745
VCommonData
p5746
aV2012-12-13
p5747
asg21
Nsa(dp5748
g7
V2012-12-14
p5749
sg9
(dp5750
g11
g12
(S'\x07\xdc\x0c\x0e'
tRp5751
sg14
L117L
sg15
L0L
sg16
L3L
ssg17
(lp5752
VCommonData
p5753
aV2012-12-14
p5754
asg21
Nsa(dp5755
g7
V2012-12-15
p5756
sg9
(dp5757
g11
g12
(S'\x07\xdc\x0c\x0f'
tRp5758
sg14
L119L
sg15
L2L
sg16
L3L
ssg17
(lp5759
VCommonData
p5760
aV2012-12-15
p5761
asg21
Nsa(dp5762
g7
V2012-12-16
p5763
sg9
(dp5764
g11
g12
(S'\x07\xdc\x0c\x10'
tRp5765
sg14
L122L
sg15
L2L
sg16
L7L
ssg17
(lp5766
VCommonData
p5767
aV2012-12-16
p5768
asg21
Nsa(dp5769
g7
V2012-12-17
p5770
sg9
(dp5771
g11
g12
(S'\x07\xdc\x0c\x11'
tRp5772
sg14
L120L
sg15
L4L
sg16
L5L
ssg17
(lp5773
VCommonData
p5774
aV2012-12-17
p5775
asg21
Nsa(dp5776
g7
V2012-12-18
p5777
sg9
(dp5778
g11
g12
(S'\x07\xdc\x0c\x12'
tRp5779
sg14
L115L
sg15
L2L
sg16
L10L
ssg17
(lp5780
VCommonData
p5781
aV2012-12-18
p5782
asg21
Nsa(dp5783
g7
V2012-12-19
p5784
sg9
(dp5785
g11
g12
(S'\x07\xdc\x0c\x13'
tRp5786
sg14
L116L
sg15
L1L
sg16
L6L
ssg17
(lp5787
VCommonData
p5788
aV2012-12-19
p5789
asg21
Nsa(dp5790
g7
V2012-12-20
p5791
sg9
(dp5792
g11
g12
(S'\x07\xdc\x0c\x14'
tRp5793
sg14
L113L
sg15
L2L
sg16
L4L
ssg17
(lp5794
VCommonData
p5795
aV2012-12-20
p5796
asg21
Nsa(dp5797
g7
V2012-12-21
p5798
sg9
(dp5799
g11
g12
(S'\x07\xdc\x0c\x15'
tRp5800
sg14
L114L
sg15
L1L
sg16
L6L
ssg17
(lp5801
VCommonData
p5802
aV2012-12-21
p5803
asg21
Nsa(dp5804
g7
V2012-12-22
p5805
sg9
(dp5806
g11
g12
(S'\x07\xdc\x0c\x16'
tRp5807
sg14
L115L
sg15
L0L
sg16
L4L
ssg17
(lp5808
VCommonData
p5809
aV2012-12-22
p5810
asg21
Nsa(dp5811
g7
V2012-12-23
p5812
sg9
(dp5813
g11
g12
(S'\x07\xdc\x0c\x17'
tRp5814
sg14
L115L
sg15
L0L
sg16
L1L
ssg17
(lp5815
VCommonData
p5816
aV2012-12-23
p5817
asg21
Nsa(dp5818
g7
V2012-12-24
p5819
sg9
(dp5820
g11
g12
(S'\x07\xdc\x0c\x18'
tRp5821
sg14
L114L
sg15
L1L
sg16
L2L
ssg17
(lp5822
VCommonData
p5823
aV2012-12-24
p5824
asg21
Nsa(dp5825
g7
V2012-12-25
p5826
sg9
(dp5827
g11
g12
(S'\x07\xdc\x0c\x19'
tRp5828
sg14
L113L
sg15
L1L
sg16
L3L
ssg17
(lp5829
VCommonData
p5830
aV2012-12-25
p5831
asg21
Nsa(dp5832
g7
V2012-12-26
p5833
sg9
(dp5834
g11
g12
(S'\x07\xdc\x0c\x1a'
tRp5835
sg14
L113L
sg15
L1L
sg16
L3L
ssg17
(lp5836
VCommonData
p5837
aV2012-12-26
p5838
asg21
Nsa(dp5839
g7
V2012-12-27
p5840
sg9
(dp5841
g11
g12
(S'\x07\xdc\x0c\x1b'
tRp5842
sg14
L110L
sg15
L0L
sg16
L3L
ssg17
(lp5843
VCommonData
p5844
aV2012-12-27
p5845
asg21
Nsa(dp5846
g7
V2012-12-28
p5847
sg9
(dp5848
g11
g12
(S'\x07\xdc\x0c\x1c'
tRp5849
sg14
L107L
sg15
L0L
sg16
L1L
ssg17
(lp5850
VCommonData
p5851
aV2012-12-28
p5852
asg21
Nsa(dp5853
g7
V2012-12-29
p5854
sg9
(dp5855
g11
g12
(S'\x07\xdc\x0c\x1d'
tRp5856
sg14
L106L
sg15
L0L
sg16
L2L
ssg17
(lp5857
VCommonData
p5858
aV2012-12-29
p5859
asg21
Nsa(dp5860
g7
V2012-12-30
p5861
sg9
(dp5862
g11
g12
(S'\x07\xdc\x0c\x1e'
tRp5863
sg14
L104L
sg15
L2L
sg16
L3L
ssg17
(lp5864
VCommonData
p5865
aV2012-12-30
p5866
asg21
Nsa(dp5867
g7
V2012-12-31
p5868
sg9
(dp5869
g11
g12
(S'\x07\xdc\x0c\x1f'
tRp5870
sg14
L107L
sg15
L0L
sg16
L4L
ssg17
(lp5871
VCommonData
p5872
aV2012-12-31
p5873
asg21
Nsa(dp5874
g7
V2013-01-01
p5875
sg9
(dp5876
g11
g12
(S'\x07\xdd\x01\x01'
tRp5877
sg14
L114L
sg15
L0L
sg16
L2L
ssg17
(lp5878
VCommonData
p5879
aV2013-01-01
p5880
asg21
Nsa(dp5881
g7
V2013-01-02
p5882
sg9
(dp5883
g11
g12
(S'\x07\xdd\x01\x02'
tRp5884
sg14
L118L
sg15
L1L
sg16
L1L
ssg17
(lp5885
VCommonData
p5886
aV2013-01-02
p5887
asg21
Nsa(dp5888
g7
V2013-01-03
p5889
sg9
(dp5890
g11
g12
(S'\x07\xdd\x01\x03'
tRp5891
sg14
L119L
sg15
L0L
sg16
L3L
ssg17
(lp5892
VCommonData
p5893
aV2013-01-03
p5894
asg21
Nsa(dp5895
g7
V2013-01-04
p5896
sg9
(dp5897
g11
g12
(S'\x07\xdd\x01\x04'
tRp5898
sg14
L129L
sg15
L0L
sg16
L2L
ssg17
(lp5899
VCommonData
p5900
aV2013-01-04
p5901
asg21
Nsa(dp5902
g7
V2013-01-05
p5903
sg9
(dp5904
g11
g12
(S'\x07\xdd\x01\x05'
tRp5905
sg14
L143L
sg15
L1L
sg16
L2L
ssg17
(lp5906
VCommonData
p5907
aV2013-01-05
p5908
asg21
Nsa(dp5909
g7
V2013-01-06
p5910
sg9
(dp5911
g11
g12
(S'\x07\xdd\x01\x06'
tRp5912
sg14
L145L
sg15
L1L
sg16
L3L
ssg17
(lp5913
VCommonData
p5914
aV2013-01-06
p5915
asg21
Nsa(dp5916
g7
V2013-01-07
p5917
sg9
(dp5918
g11
g12
(S'\x07\xdd\x01\x07'
tRp5919
sg14
L142L
sg15
L1L
sg16
L3L
ssg17
(lp5920
VCommonData
p5921
aV2013-01-07
p5922
asg21
Nsa(dp5923
g7
V2013-01-08
p5924
sg9
(dp5925
g11
g12
(S'\x07\xdd\x01\x08'
tRp5926
sg14
L150L
sg15
L1L
sg16
L3L
ssg17
(lp5927
VCommonData
p5928
aV2013-01-08
p5929
asg21
Nsa(dp5930
g7
V2013-01-09
p5931
sg9
(dp5932
g11
g12
(S'\x07\xdd\x01\t'
tRp5933
sg14
L156L
sg15
L1L
sg16
L3L
ssg17
(lp5934
VCommonData
p5935
aV2013-01-09
p5936
asg21
Nsa(dp5937
g7
V2013-01-10
p5938
sg9
(dp5939
g11
g12
(S'\x07\xdd\x01\n'
tRp5940
sg14
L169L
sg15
L0L
sg16
L3L
ssg17
(lp5941
VCommonData
p5942
aV2013-01-10
p5943
asg21
Nsa(dp5944
g7
V2013-01-11
p5945
sg9
(dp5946
g11
g12
(S'\x07\xdd\x01\x0b'
tRp5947
sg14
L174L
sg15
L1L
sg16
L3L
ssg17
(lp5948
VCommonData
p5949
aV2013-01-11
p5950
asg21
Nsa(dp5951
g7
V2013-01-12
p5952
sg9
(dp5953
g11
g12
(S'\x07\xdd\x01\x0c'
tRp5954
sg14
L172L
sg15
L1L
sg16
L2L
ssg17
(lp5955
VCommonData
p5956
aV2013-01-12
p5957
asg21
Nsa(dp5958
g7
V2013-01-13
p5959
sg9
(dp5960
g11
g12
(S'\x07\xdd\x01\r'
tRp5961
sg14
L169L
sg15
L2L
sg16
L3L
ssg17
(lp5962
VCommonData
p5963
aV2013-01-13
p5964
asg21
Nsa(dp5965
g7
V2013-01-14
p5966
sg9
(dp5967
g11
g12
(S'\x07\xdd\x01\x0e'
tRp5968
sg14
L156L
sg15
L2L
sg16
L9L
ssg17
(lp5969
VCommonData
p5970
aV2013-01-14
p5971
asg21
Nsa(dp5972
g7
V2013-01-15
p5973
sg9
(dp5974
g11
g12
(S'\x07\xdd\x01\x0f'
tRp5975
sg14
L154L
sg15
L1L
sg16
L8L
ssg17
(lp5976
VCommonData
p5977
aV2013-01-15
p5978
asg21
Nsa(dp5979
g7
V2013-01-16
p5980
sg9
(dp5981
g11
g12
(S'\x07\xdd\x01\x10'
tRp5982
sg14
L140L
sg15
L1L
sg16
L4L
ssg17
(lp5983
VCommonData
p5984
aV2013-01-16
p5985
asg21
Nsa(dp5986
g7
V2013-01-17
p5987
sg9
(dp5988
g11
g12
(S'\x07\xdd\x01\x11'
tRp5989
sg14
L137L
sg15
L3L
sg16
L5L
ssg17
(lp5990
VCommonData
p5991
aV2013-01-17
p5992
asg21
Nsa(dp5993
g7
V2013-01-18
p5994
sg9
(dp5995
g11
g12
(S'\x07\xdd\x01\x12'
tRp5996
sg14
L123L
sg15
L3L
sg16
L13L
ssg17
(lp5997
VCommonData
p5998
aV2013-01-18
p5999
asg21
Nsa(dp6000
g7
V2013-01-19
p6001
sg9
(dp6002
g11
g12
(S'\x07\xdd\x01\x13'
tRp6003
sg14
L115L
sg15
L1L
sg16
L9L
ssg17
(lp6004
VCommonData
p6005
aV2013-01-19
p6006
asg21
Nsa(dp6007
g7
V2013-01-20
p6008
sg9
(dp6009
g11
g12
(S'\x07\xdd\x01\x14'
tRp6010
sg14
L107L
sg15
L3L
sg16
L7L
ssg17
(lp6011
VCommonData
p6012
aV2013-01-20
p6013
asg21
Nsa(dp6014
g7
V2013-01-21
p6015
sg9
(dp6016
g11
g12
(S'\x07\xdd\x01\x15'
tRp6017
sg14
L107L
sg15
L1L
sg16
L9L
ssg17
(lp6018
VCommonData
p6019
aV2013-01-21
p6020
asg21
Nsa(dp6021
g7
V2013-01-22
p6022
sg9
(dp6023
g11
g12
(S'\x07\xdd\x01\x16'
tRp6024
sg14
L108L
sg15
L0L
sg16
L4L
ssg17
(lp6025
VCommonData
p6026
aV2013-01-22
p6027
asg21
Nsa(dp6028
g7
V2013-01-23
p6029
sg9
(dp6030
g11
g12
(S'\x07\xdd\x01\x17'
tRp6031
sg14
L110L
sg15
L0L
sg16
L1L
ssg17
(lp6032
VCommonData
p6033
aV2013-01-23
p6034
asg21
Nsa(dp6035
g7
V2013-01-24
p6036
sg9
(dp6037
g11
g12
(S'\x07\xdd\x01\x18'
tRp6038
sg14
L105L
sg15
L0L
sg16
L1L
ssg17
(lp6039
VCommonData
p6040
aV2013-01-24
p6041
asg21
Nsa(dp6042
g7
V2013-01-25
p6043
sg9
(dp6044
g11
g12
(S'\x07\xdd\x01\x19'
tRp6045
sg14
L103L
sg15
L0L
sg16
L1L
ssg17
(lp6046
VCommonData
p6047
aV2013-01-25
p6048
asg21
Nsa(dp6049
g7
V2013-01-26
p6050
sg9
(dp6051
g11
g12
(S'\x07\xdd\x01\x1a'
tRp6052
sg14
L101L
sg15
L3L
sg16
L6L
ssg17
(lp6053
VCommonData
p6054
aV2013-01-26
p6055
asg21
Nsa(dp6056
g7
V2013-01-27
p6057
sg9
(dp6058
g11
g12
(S'\x07\xdd\x01\x1b'
tRp6059
sg14
L99L
sg15
L1L
sg16
L18L
ssg17
(lp6060
VCommonData
p6061
aV2013-01-27
p6062
asg21
Nsa(dp6063
g7
V2013-01-28
p6064
sg9
(dp6065
g11
g12
(S'\x07\xdd\x01\x1c'
tRp6066
sg14
L98L
sg15
L1L
sg16
L6L
ssg17
(lp6067
VCommonData
p6068
aV2013-01-28
p6069
asg21
Nsa(dp6070
g7
V2013-01-29
p6071
sg9
(dp6072
g11
g12
(S'\x07\xdd\x01\x1d'
tRp6073
sg14
L98L
sg15
L1L
sg16
L4L
ssg17
(lp6074
VCommonData
p6075
aV2013-01-29
p6076
asg21
Nsa(dp6077
g7
V2013-01-30
p6078
sg9
(dp6079
g11
g12
(S'\x07\xdd\x01\x1e'
tRp6080
sg14
L95L
sg15
L0L
sg16
L2L
ssg17
(lp6081
VCommonData
p6082
aV2013-01-30
p6083
asg21
Nsa(dp6084
g7
V2013-01-31
p6085
sg9
(dp6086
g11
g12
(S'\x07\xdd\x01\x1f'
tRp6087
sg14
L97L
sg15
L0L
sg16
L2L
ssg17
(lp6088
VCommonData
p6089
aV2013-01-31
p6090
asg21
Nsa(dp6091
g7
V2013-02-01
p6092
sg9
(dp6093
g11
g12
(S'\x07\xdd\x02\x01'
tRp6094
sg14
L103L
sg15
L1L
sg16
L1L
ssg17
(lp6095
VCommonData
p6096
aV2013-02-01
p6097
asg21
Nsa(dp6098
g7
V2013-02-02
p6099
sg9
(dp6100
g11
g12
(S'\x07\xdd\x02\x02'
tRp6101
sg14
L104L
sg15
L1L
sg16
L4L
ssg17
(lp6102
VCommonData
p6103
aV2013-02-02
p6104
asg21
Nsa(dp6105
g7
V2013-02-03
p6106
sg9
(dp6107
g11
g12
(S'\x07\xdd\x02\x03'
tRp6108
sg14
L112L
sg15
L1L
sg16
L9L
ssg17
(lp6109
VCommonData
p6110
aV2013-02-03
p6111
asg21
Nsa(dp6112
g7
V2013-02-04
p6113
sg9
(dp6114
g11
g12
(S'\x07\xdd\x02\x04'
tRp6115
sg14
L111L
sg15
L1L
sg16
L4L
ssg17
(lp6116
VCommonData
p6117
aV2013-02-04
p6118
asg21
Nsa(dp6119
g7
V2013-02-05
p6120
sg9
(dp6121
g11
g12
(S'\x07\xdd\x02\x05'
tRp6122
sg14
L107L
sg15
L0L
sg16
L4L
ssg17
(lp6123
VCommonData
p6124
aV2013-02-05
p6125
asg21
Nsa(dp6126
g7
V2013-02-06
p6127
sg9
(dp6128
g11
g12
(S'\x07\xdd\x02\x06'
tRp6129
sg14
L105L
sg15
L0L
sg16
L2L
ssg17
(lp6130
VCommonData
p6131
aV2013-02-06
p6132
asg21
Nsa(dp6133
g7
V2013-02-07
p6134
sg9
(dp6135
g11
g12
(S'\x07\xdd\x02\x07'
tRp6136
sg14
L104L
sg15
L2L
sg16
L2L
ssg17
(lp6137
VCommonData
p6138
aV2013-02-07
p6139
asg21
Nsa(dp6140
g7
V2013-02-08
p6141
sg9
(dp6142
g11
g12
(S'\x07\xdd\x02\x08'
tRp6143
sg14
L103L
sg15
L3L
sg16
L6L
ssg17
(lp6144
VCommonData
p6145
aV2013-02-08
p6146
asg21
Nsa(dp6147
g7
V2013-02-09
p6148
sg9
(dp6149
g11
g12
(S'\x07\xdd\x02\t'
tRp6150
sg14
L104L
sg15
L0L
sg16
L7L
ssg17
(lp6151
VCommonData
p6152
aV2013-02-09
p6153
asg21
Nsa(dp6154
g7
V2013-02-10
p6155
sg9
(dp6156
g11
g12
(S'\x07\xdd\x02\n'
tRp6157
sg14
L108L
sg15
L0L
sg16
L3L
ssg17
(lp6158
VCommonData
p6159
aV2013-02-10
p6160
asg21
Nsa(dp6161
g7
V2013-02-11
p6162
sg9
(dp6163
g11
g12
(S'\x07\xdd\x02\x0b'
tRp6164
sg14
L106L
sg15
L0L
sg16
L4L
ssg17
(lp6165
VCommonData
p6166
aV2013-02-11
p6167
asg21
Nsa(dp6168
g7
V2013-02-12
p6169
sg9
(dp6170
g11
g12
(S'\x07\xdd\x02\x0c'
tRp6171
sg14
L105L
sg15
L1L
sg16
L4L
ssg17
(lp6172
VCommonData
p6173
aV2013-02-12
p6174
asg21
Nsa(dp6175
g7
V2013-02-13
p6176
sg9
(dp6177
g11
g12
(S'\x07\xdd\x02\r'
tRp6178
sg14
L102L
sg15
L1L
sg16
L4L
ssg17
(lp6179
VCommonData
p6180
aV2013-02-13
p6181
asg21
Nsa(dp6182
g7
V2013-02-14
p6183
sg9
(dp6184
g11
g12
(S'\x07\xdd\x02\x0e'
tRp6185
sg14
L100L
sg15
L2L
sg16
L11L
ssg17
(lp6186
VCommonData
p6187
aV2013-02-14
p6188
asg21
Nsa(dp6189
g7
V2013-02-15
p6190
sg9
(dp6191
g11
g12
(S'\x07\xdd\x02\x0f'
tRp6192
sg14
L100L
sg15
L1L
sg16
L10L
ssg17
(lp6193
VCommonData
p6194
aV2013-02-15
p6195
asg21
Nsa(dp6196
g7
V2013-02-16
p6197
sg9
(dp6198
g11
g12
(S'\x07\xdd\x02\x10'
tRp6199
sg14
L100L
sg15
L2L
sg16
L4L
ssg17
(lp6200
VCommonData
p6201
aV2013-02-16
p6202
asg21
Nsa(dp6203
g7
V2013-02-17
p6204
sg9
(dp6205
g11
g12
(S'\x07\xdd\x02\x11'
tRp6206
sg14
L103L
sg15
L3L
sg16
L8L
ssg17
(lp6207
VCommonData
p6208
aV2013-02-17
p6209
asg21
Nsa(dp6210
g7
V2013-02-18
p6211
sg9
(dp6212
g11
g12
(S'\x07\xdd\x02\x12'
tRp6213
sg14
L106L
sg15
L0L
sg16
L8L
ssg17
(lp6214
VCommonData
p6215
aV2013-02-18
p6216
asg21
Nsa(dp6217
g7
V2013-02-19
p6218
sg9
(dp6219
g11
g12
(S'\x07\xdd\x02\x13'
tRp6220
sg14
L105L
sg15
L2L
sg16
L4L
ssg17
(lp6221
VCommonData
p6222
aV2013-02-19
p6223
asg21
Nsa(dp6224
g7
V2013-02-20
p6225
sg9
(dp6226
g11
g12
(S'\x07\xdd\x02\x14'
tRp6227
sg14
L112L
sg15
L2L
sg16
L6L
ssg17
(lp6228
VCommonData
p6229
aV2013-02-20
p6230
asg21
Nsa(dp6231
g7
V2013-02-21
p6232
sg9
(dp6233
g11
g12
(S'\x07\xdd\x02\x15'
tRp6234
sg14
L114L
sg15
L1L
sg16
L5L
ssg17
(lp6235
VCommonData
p6236
aV2013-02-21
p6237
asg21
Nsa(dp6238
g7
V2013-02-22
p6239
sg9
(dp6240
g11
g12
(S'\x07\xdd\x02\x16'
tRp6241
sg14
L109L
sg15
L2L
sg16
L6L
ssg17
(lp6242
VCommonData
p6243
aV2013-02-22
p6244
asg21
Nsa(dp6245
g7
V2013-02-23
p6246
sg9
(dp6247
g11
g12
(S'\x07\xdd\x02\x17'
tRp6248
sg14
L107L
sg15
L2L
sg16
L9L
ssg17
(lp6249
VCommonData
p6250
aV2013-02-23
p6251
asg21
Nsa(dp6252
g7
V2013-02-24
p6253
sg9
(dp6254
g11
g12
(S'\x07\xdd\x02\x18'
tRp6255
sg14
L100L
sg15
L1L
sg16
L6L
ssg17
(lp6256
VCommonData
p6257
aV2013-02-24
p6258
asg21
Nsa(dp6259
g7
V2013-02-25
p6260
sg9
(dp6261
g11
g12
(S'\x07\xdd\x02\x19'
tRp6262
sg14
L95L
sg15
L1L
sg16
L3L
ssg17
(lp6263
VCommonData
p6264
aV2013-02-25
p6265
asg21
Nsa(dp6266
g7
V2013-02-26
p6267
sg9
(dp6268
g11
g12
(S'\x07\xdd\x02\x1a'
tRp6269
sg14
L95L
sg15
L1L
sg16
L3L
ssg17
(lp6270
VCommonData
p6271
aV2013-02-26
p6272
asg21
Nsa(dp6273
g7
V2013-02-27
p6274
sg9
(dp6275
g11
g12
(S'\x07\xdd\x02\x1b'
tRp6276
sg14
L99L
sg15
L1L
sg16
L5L
ssg17
(lp6277
VCommonData
p6278
aV2013-02-27
p6279
asg21
Nsa(dp6280
g7
V2013-02-28
p6281
sg9
(dp6282
g11
g12
(S'\x07\xdd\x02\x1c'
tRp6283
sg14
L102L
sg15
L1L
sg16
L4L
ssg17
(lp6284
VCommonData
p6285
aV2013-02-28
p6286
asg21
Nsa(dp6287
g7
V2013-03-01
p6288
sg9
(dp6289
g11
g12
(S'\x07\xdd\x03\x01'
tRp6290
sg14
L106L
sg15
L4L
sg16
L7L
ssg17
(lp6291
VCommonData
p6292
aV2013-03-01
p6293
asg21
Nsa(dp6294
g7
V2013-03-02
p6295
sg9
(dp6296
g11
g12
(S'\x07\xdd\x03\x02'
tRp6297
sg14
L113L
sg15
L2L
sg16
L27L
ssg17
(lp6298
VCommonData
p6299
aV2013-03-02
p6300
asg21
Nsa(dp6301
g7
V2013-03-03
p6302
sg9
(dp6303
g11
g12
(S'\x07\xdd\x03\x03'
tRp6304
sg14
L111L
sg15
L2L
sg16
L12L
ssg17
(lp6305
VCommonData
p6306
aV2013-03-03
p6307
asg21
Nsa(dp6308
g7
V2013-03-04
p6309
sg9
(dp6310
g11
g12
(S'\x07\xdd\x03\x04'
tRp6311
sg14
L112L
sg15
L1L
sg16
L7L
ssg17
(lp6312
VCommonData
p6313
aV2013-03-04
p6314
asg21
Nsa(dp6315
g7
V2013-03-05
p6316
sg9
(dp6317
g11
g12
(S'\x07\xdd\x03\x05'
tRp6318
sg14
L114L
sg15
L0L
sg16
L4L
ssg17
(lp6319
VCommonData
p6320
aV2013-03-05
p6321
asg21
Nsa(dp6322
g7
V2013-03-06
p6323
sg9
(dp6324
g11
g12
(S'\x07\xdd\x03\x06'
tRp6325
sg14
L118L
sg15
L1L
sg16
L4L
ssg17
(lp6326
VCommonData
p6327
aV2013-03-06
p6328
asg21
Nsa(dp6329
g7
V2013-03-07
p6330
sg9
(dp6331
g11
g12
(S'\x07\xdd\x03\x07'
tRp6332
sg14
L114L
sg15
L1L
sg16
L3L
ssg17
(lp6333
VCommonData
p6334
aV2013-03-07
p6335
asg21
Nsa(dp6336
g7
V2013-03-08
p6337
sg9
(dp6338
g11
g12
(S'\x07\xdd\x03\x08'
tRp6339
sg14
L114L
sg15
L1L
sg16
L4L
ssg17
(lp6340
VCommonData
p6341
aV2013-03-08
p6342
asg21
Nsa(dp6343
g7
V2013-03-09
p6344
sg9
(dp6345
g11
g12
(S'\x07\xdd\x03\t'
tRp6346
sg14
L115L
sg15
L1L
sg16
L3L
ssg17
(lp6347
VCommonData
p6348
aV2013-03-09
p6349
asg21
Nsa(dp6350
g7
V2013-03-10
p6351
sg9
(dp6352
g11
g12
(S'\x07\xdd\x03\n'
tRp6353
sg14
L116L
sg15
L1L
sg16
L6L
ssg17
(lp6354
VCommonData
p6355
aV2013-03-10
p6356
asg21
Nsa(dp6357
g7
V2013-03-11
p6358
sg9
(dp6359
g11
g12
(S'\x07\xdd\x03\x0b'
tRp6360
sg14
L119L
sg15
L1L
sg16
L4L
ssg17
(lp6361
VCommonData
p6362
aV2013-03-11
p6363
asg21
Nsa(dp6364
g7
V2013-03-12
p6365
sg9
(dp6366
g11
g12
(S'\x07\xdd\x03\x0c'
tRp6367
sg14
L120L
sg15
L1L
sg16
L5L
ssg17
(lp6368
VCommonData
p6369
aV2013-03-12
p6370
asg21
Nsa(dp6371
g7
V2013-03-13
p6372
sg9
(dp6373
g11
g12
(S'\x07\xdd\x03\r'
tRp6374
sg14
L123L
sg15
L1L
sg16
L5L
ssg17
(lp6375
VCommonData
p6376
aV2013-03-13
p6377
asg21
Nsa(dp6378
g7
V2013-03-14
p6379
sg9
(dp6380
g11
g12
(S'\x07\xdd\x03\x0e'
tRp6381
sg14
L123L
sg15
L1L
sg16
L4L
ssg17
(lp6382
VCommonData
p6383
aV2013-03-14
p6384
asg21
Nsa(dp6385
g7
V2013-03-15
p6386
sg9
(dp6387
g11
g12
(S'\x07\xdd\x03\x0f'
tRp6388
sg14
L123L
sg15
L1L
sg16
L5L
ssg17
(lp6389
VCommonData
p6390
aV2013-03-15
p6391
asg21
Nsa(dp6392
g7
V2013-03-16
p6393
sg9
(dp6394
g11
g12
(S'\x07\xdd\x03\x10'
tRp6395
sg14
L123L
sg15
L2L
sg16
L6L
ssg17
(lp6396
VCommonData
p6397
aV2013-03-16
p6398
asg21
Nsa(dp6399
g7
V2013-03-17
p6400
sg9
(dp6401
g11
g12
(S'\x07\xdd\x03\x11'
tRp6402
sg14
L126L
sg15
L6L
sg16
L10L
ssg17
(lp6403
VCommonData
p6404
aV2013-03-17
p6405
asg21
Nsa(dp6406
g7
V2013-03-18
p6407
sg9
(dp6408
g11
g12
(S'\x07\xdd\x03\x12'
tRp6409
sg14
L126L
sg15
L1L
sg16
L46L
ssg17
(lp6410
VCommonData
p6411
aV2013-03-18
p6412
asg21
Nsa(dp6413
g7
V2013-03-19
p6414
sg9
(dp6415
g11
g12
(S'\x07\xdd\x03\x13'
tRp6416
sg14
L118L
sg15
L1L
sg16
L7L
ssg17
(lp6417
VCommonData
p6418
aV2013-03-19
p6419
asg21
Nsa(dp6420
g7
V2013-03-20
p6421
sg9
(dp6422
g11
g12
(S'\x07\xdd\x03\x14'
tRp6423
sg14
L110L
sg15
L2L
sg16
L5L
ssg17
(lp6424
VCommonData
p6425
aV2013-03-20
p6426
asg21
Nsa(dp6427
g7
V2013-03-21
p6428
sg9
(dp6429
g11
g12
(S'\x07\xdd\x03\x15'
tRp6430
sg14
L108L
sg15
L1L
sg16
L9L
ssg17
(lp6431
VCommonData
p6432
aV2013-03-21
p6433
asg21
Nsa(dp6434
g7
V2013-03-22
p6435
sg9
(dp6436
g11
g12
(S'\x07\xdd\x03\x16'
tRp6437
sg14
L106L
sg15
L1L
sg16
L12L
ssg17
(lp6438
VCommonData
p6439
aV2013-03-22
p6440
asg21
Nsa(dp6441
g7
V2013-03-23
p6442
sg9
(dp6443
g11
g12
(S'\x07\xdd\x03\x17'
tRp6444
sg14
L101L
sg15
L2L
sg16
L4L
ssg17
(lp6445
VCommonData
p6446
aV2013-03-23
p6447
asg21
Nsa(dp6448
g7
V2013-03-24
p6449
sg9
(dp6450
g11
g12
(S'\x07\xdd\x03\x18'
tRp6451
sg14
L98L
sg15
L1L
sg16
L11L
ssg17
(lp6452
VCommonData
p6453
aV2013-03-24
p6454
asg21
Nsa(dp6455
g7
V2013-03-25
p6456
sg9
(dp6457
g11
g12
(S'\x07\xdd\x03\x19'
tRp6458
sg14
L96L
sg15
L1L
sg16
L5L
ssg17
(lp6459
VCommonData
p6460
aV2013-03-25
p6461
asg21
Nsa(dp6462
g7
V2013-03-26
p6463
sg9
(dp6464
g11
g12
(S'\x07\xdd\x03\x1a'
tRp6465
sg14
L93L
sg15
L1L
sg16
L4L
ssg17
(lp6466
VCommonData
p6467
aV2013-03-26
p6468
asg21
Nsa(dp6469
g7
V2013-03-27
p6470
sg9
(dp6471
g11
g12
(S'\x07\xdd\x03\x1b'
tRp6472
sg14
L92L
sg15
L4L
sg16
L3L
ssg17
(lp6473
VCommonData
p6474
aV2013-03-27
p6475
asg21
Nsa(dp6476
g7
V2013-03-28
p6477
sg9
(dp6478
g11
g12
(S'\x07\xdd\x03\x1c'
tRp6479
sg14
L93L
sg15
L2L
sg16
L14L
ssg17
(lp6480
VCommonData
p6481
aV2013-03-28
p6482
asg21
Nsa(dp6483
g7
V2013-03-29
p6484
sg9
(dp6485
g11
g12
(S'\x07\xdd\x03\x1d'
tRp6486
sg14
L99L
sg15
L5L
sg16
L9L
ssg17
(lp6487
VCommonData
p6488
aV2013-03-29
p6489
asg21
Nsa(dp6490
g7
V2013-03-30
p6491
sg9
(dp6492
g11
g12
(S'\x07\xdd\x03\x1e'
tRp6493
sg14
L105L
sg15
L2L
sg16
L23L
ssg17
(lp6494
VCommonData
p6495
aV2013-03-30
p6496
asg21
Nsa(dp6497
g7
V2013-03-31
p6498
sg9
(dp6499
g11
g12
(S'\x07\xdd\x03\x1f'
tRp6500
sg14
L108L
sg15
L2L
sg16
L17L
ssg17
(lp6501
VCommonData
p6502
aV2013-03-31
p6503
asg21
Nsa(dp6504
g7
V2013-04-01
p6505
sg9
(dp6506
g11
g12
(S'\x07\xdd\x04\x01'
tRp6507
sg14
L113L
sg15
L1L
sg16
L4L
ssg17
(lp6508
VCommonData
p6509
aV2013-04-01
p6510
asg21
Nsa(dp6511
g7
V2013-04-02
p6512
sg9
(dp6513
g11
g12
(S'\x07\xdd\x04\x02'
tRp6514
sg14
L119L
sg15
L1L
sg16
L6L
ssg17
(lp6515
VCommonData
p6516
aV2013-04-02
p6517
asg21
Nsa(dp6518
g7
V2013-04-03
p6519
sg9
(dp6520
g11
g12
(S'\x07\xdd\x04\x03'
tRp6521
sg14
L122L
sg15
L1L
sg16
L4L
ssg17
(lp6522
VCommonData
p6523
aV2013-04-03
p6524
asg21
Nsa(dp6525
g7
V2013-04-04
p6526
sg9
(dp6527
g11
g12
(S'\x07\xdd\x04\x04'
tRp6528
sg14
L127L
sg15
L1L
sg16
L3L
ssg17
(lp6529
VCommonData
p6530
aV2013-04-04
p6531
asg21
Nsa(dp6532
g7
V2013-04-05
p6533
sg9
(dp6534
g11
g12
(S'\x07\xdd\x04\x05'
tRp6535
sg14
L129L
sg15
L1L
sg16
L4L
ssg17
(lp6536
VCommonData
p6537
aV2013-04-05
p6538
asg21
Nsa(dp6539
g7
V2013-04-06
p6540
sg9
(dp6541
g11
g12
(S'\x07\xdd\x04\x06'
tRp6542
sg14
L134L
sg15
L1L
sg16
L3L
ssg17
(lp6543
VCommonData
p6544
aV2013-04-06
p6545
asg21
Nsa(dp6546
g7
V2013-04-07
p6547
sg9
(dp6548
g11
g12
(S'\x07\xdd\x04\x07'
tRp6549
sg14
L137L
sg15
L2L
sg16
L5L
ssg17
(lp6550
VCommonData
p6551
aV2013-04-07
p6552
asg21
Nsa(dp6553
g7
V2013-04-08
p6554
sg9
(dp6555
g11
g12
(S'\x07\xdd\x04\x08'
tRp6556
sg14
L138L
sg15
L1L
sg16
L5L
ssg17
(lp6557
VCommonData
p6558
aV2013-04-08
p6559
asg21
Nsa(dp6560
g7
V2013-04-09
p6561
sg9
(dp6562
g11
g12
(S'\x07\xdd\x04\t'
tRp6563
sg14
L139L
sg15
L1L
sg16
L3L
ssg17
(lp6564
VCommonData
p6565
aV2013-04-09
p6566
asg21
Nsa(dp6567
g7
V2013-04-10
p6568
sg9
(dp6569
g11
g12
(S'\x07\xdd\x04\n'
tRp6570
sg14
L147L
sg15
L1L
sg16
L4L
ssg17
(lp6571
VCommonData
p6572
aV2013-04-10
p6573
asg21
Nsa(dp6574
g7
V2013-04-11
p6575
sg9
(dp6576
g11
g12
(S'\x07\xdd\x04\x0b'
tRp6577
sg14
L148L
sg15
L2L
sg16
L5L
ssg17
(lp6578
VCommonData
p6579
aV2013-04-11
p6580
asg21
Nsa(dp6581
g7
V2013-04-12
p6582
sg9
(dp6583
g11
g12
(S'\x07\xdd\x04\x0c'
tRp6584
sg14
L137L
sg15
L1L
sg16
L5L
ssg17
(lp6585
VCommonData
p6586
aV2013-04-12
p6587
asg21
Nsa(dp6588
g7
V2013-04-13
p6589
sg9
(dp6590
g11
g12
(S'\x07\xdd\x04\r'
tRp6591
sg14
L138L
sg15
L1L
sg16
L5L
ssg17
(lp6592
VCommonData
p6593
aV2013-04-13
p6594
asg21
Nsa(dp6595
g7
V2013-04-14
p6596
sg9
(dp6597
g11
g12
(S'\x07\xdd\x04\x0e'
tRp6598
sg14
L125L
sg15
L3L
sg16
L6L
ssg17
(lp6599
VCommonData
p6600
aV2013-04-14
p6601
asg21
Nsa(dp6602
g7
V2013-04-15
p6603
sg9
(dp6604
g11
g12
(S'\x07\xdd\x04\x0f'
tRp6605
sg14
L117L
sg15
L0L
sg16
L10L
ssg17
(lp6606
VCommonData
p6607
aV2013-04-15
p6608
asg21
Nsa(dp6609
g7
V2013-04-16
p6610
sg9
(dp6611
g11
g12
(S'\x07\xdd\x04\x10'
tRp6612
sg14
L113L
sg15
L1L
sg16
L5L
ssg17
(lp6613
VCommonData
p6614
aV2013-04-16
p6615
asg21
Nsa(dp6616
g7
V2013-04-17
p6617
sg9
(dp6618
g11
g12
(S'\x07\xdd\x04\x11'
tRp6619
sg14
L113L
sg15
L1L
sg16
L3L
ssg17
(lp6620
VCommonData
p6621
aV2013-04-17
p6622
asg21
Nsa(dp6623
g7
V2013-04-18
p6624
sg9
(dp6625
g11
g12
(S'\x07\xdd\x04\x12'
tRp6626
sg14
L108L
sg15
L1L
sg16
L3L
ssg17
(lp6627
VCommonData
p6628
aV2013-04-18
p6629
asg21
Nsa(dp6630
g7
V2013-04-19
p6631
sg9
(dp6632
g11
g12
(S'\x07\xdd\x04\x13'
tRp6633
sg14
L105L
sg15
L1L
sg16
L3L
ssg17
(lp6634
VCommonData
p6635
aV2013-04-19
p6636
asg21
Nsa(dp6637
g7
V2013-04-20
p6638
sg9
(dp6639
g11
g12
(S'\x07\xdd\x04\x14'
tRp6640
sg14
L99L
sg15
L1L
sg16
L2L
ssg17
(lp6641
VCommonData
p6642
aV2013-04-20
p6643
asg21
Nsa(dp6644
g7
V2013-04-21
p6645
sg9
(dp6646
g11
g12
(S'\x07\xdd\x04\x15'
tRp6647
sg14
L105L
sg15
L2L
sg16
L4L
ssg17
(lp6648
VCommonData
p6649
aV2013-04-21
p6650
asg21
Nsa(dp6651
g7
V2013-04-22
p6652
sg9
(dp6653
g11
g12
(S'\x07\xdd\x04\x16'
tRp6654
sg14
L109L
sg15
L1L
sg16
L3L
ssg17
(lp6655
VCommonData
p6656
aV2013-04-22
p6657
asg21
Nsa(dp6658
g7
V2013-04-23
p6659
sg9
(dp6660
g11
g12
(S'\x07\xdd\x04\x17'
tRp6661
sg14
L113L
sg15
L2L
sg16
L4L
ssg17
(lp6662
VCommonData
p6663
aV2013-04-23
p6664
asg21
Nsa(dp6665
g7
V2013-04-24
p6666
sg9
(dp6667
g11
g12
(S'\x07\xdd\x04\x18'
tRp6668
sg14
L118L
sg15
L3L
sg16
L7L
ssg17
(lp6669
VCommonData
p6670
aV2013-04-24
p6671
asg21
Nsa(dp6672
g7
V2013-04-25
p6673
sg9
(dp6674
g11
g12
(S'\x07\xdd\x04\x19'
tRp6675
sg14
L115L
sg15
L2L
sg16
L19L
ssg17
(lp6676
VCommonData
p6677
aV2013-04-25
p6678
asg21
Nsa(dp6679
g7
V2013-04-26
p6680
sg9
(dp6681
g11
g12
(S'\x07\xdd\x04\x1a'
tRp6682
sg14
L119L
sg15
L2L
sg16
L8L
ssg17
(lp6683
VCommonData
p6684
aV2013-04-26
p6685
asg21
Nsa(dp6686
g7
V2013-04-27
p6687
sg9
(dp6688
g11
g12
(S'\x07\xdd\x04\x1b'
tRp6689
sg14
L122L
sg15
L1L
sg16
L17L
ssg17
(lp6690
VCommonData
p6691
aV2013-04-27
p6692
asg21
Nsa(dp6693
g7
V2013-04-28
p6694
sg9
(dp6695
g11
g12
(S'\x07\xdd\x04\x1c'
tRp6696
sg14
L127L
sg15
L1L
sg16
L6L
ssg17
(lp6697
VCommonData
p6698
aV2013-04-28
p6699
asg21
Nsa(dp6700
g7
V2013-04-29
p6701
sg9
(dp6702
g11
g12
(S'\x07\xdd\x04\x1d'
tRp6703
sg14
L132L
sg15
L1L
sg16
L5L
ssg17
(lp6704
VCommonData
p6705
aV2013-04-29
p6706
asg21
Nsa(dp6707
g7
V2013-04-30
p6708
sg9
(dp6709
g11
g12
(S'\x07\xdd\x04\x1e'
tRp6710
sg14
L142L
sg15
L2L
sg16
L5L
ssg17
(lp6711
VCommonData
p6712
aV2013-04-30
p6713
asg21
Nsa(dp6714
g7
V2013-05-01
p6715
sg9
(dp6716
g11
g12
(S'\x07\xdd\x05\x01'
tRp6717
sg14
L154L
sg15
L3L
sg16
L7L
ssg17
(lp6718
VCommonData
p6719
aV2013-05-01
p6720
asg21
Nsa(dp6721
g7
V2013-05-02
p6722
sg9
(dp6723
g11
g12
(S'\x07\xdd\x05\x02'
tRp6724
sg14
L159L
sg15
L2L
sg16
L21L
ssg17
(lp6725
VCommonData
p6726
aV2013-05-02
p6727
asg21
Nsa(dp6728
g7
V2013-05-03
p6729
sg9
(dp6730
g11
g12
(S'\x07\xdd\x05\x03'
tRp6731
sg14
L149L
sg15
L2L
sg16
L13L
ssg17
(lp6732
VCommonData
p6733
aV2013-05-03
p6734
asg21
Nsa(dp6735
g7
V2013-05-04
p6736
sg9
(dp6737
g11
g12
(S'\x07\xdd\x05\x04'
tRp6738
sg14
L148L
sg15
L2L
sg16
L6L
ssg17
(lp6739
VCommonData
p6740
aV2013-05-04
p6741
asg21
Nsa(dp6742
g7
V2013-05-05
p6743
sg9
(dp6744
g11
g12
(S'\x07\xdd\x05\x05'
tRp6745
sg14
L142L
sg15
L3L
sg16
L5L
ssg17
(lp6746
VCommonData
p6747
aV2013-05-05
p6748
asg21
Nsa(dp6749
g7
V2013-05-06
p6750
sg9
(dp6751
g11
g12
(S'\x07\xdd\x05\x06'
tRp6752
sg14
L137L
sg15
L2L
sg16
L7L
ssg17
(lp6753
VCommonData
p6754
aV2013-05-06
p6755
asg21
Nsa(dp6756
g7
V2013-05-07
p6757
sg9
(dp6758
g11
g12
(S'\x07\xdd\x05\x07'
tRp6759
sg14
L131L
sg15
L2L
sg16
L8L
ssg17
(lp6760
VCommonData
p6761
aV2013-05-07
p6762
asg21
Nsa(dp6763
g7
V2013-05-08
p6764
sg9
(dp6765
g11
g12
(S'\x07\xdd\x05\x08'
tRp6766
sg14
L129L
sg15
L2L
sg16
L10L
ssg17
(lp6767
VCommonData
p6768
aV2013-05-08
p6769
asg21
Nsa(dp6770
g7
V2013-05-09
p6771
sg9
(dp6772
g11
g12
(S'\x07\xdd\x05\t'
tRp6773
sg14
L127L
sg15
L1L
sg16
L7L
ssg17
(lp6774
VCommonData
p6775
aV2013-05-09
p6776
asg21
Nsa(dp6777
g7
V2013-05-10
p6778
sg9
(dp6779
g11
g12
(S'\x07\xdd\x05\n'
tRp6780
sg14
L128L
sg15
L1L
sg16
L5L
ssg17
(lp6781
VCommonData
p6782
aV2013-05-10
p6783
asg21
Nsa(dp6784
g7
V2013-05-11
p6785
sg9
(dp6786
g11
g12
(S'\x07\xdd\x05\x0b'
tRp6787
sg14
L125L
sg15
L1L
sg16
L5L
ssg17
(lp6788
VCommonData
p6789
aV2013-05-11
p6790
asg21
Nsa(dp6791
g7
V2013-05-12
p6792
sg9
(dp6793
g11
g12
(S'\x07\xdd\x05\x0c'
tRp6794
sg14
L137L
sg15
L2L
sg16
L4L
ssg17
(lp6795
VCommonData
p6796
aV2013-05-12
p6797
asg21
Nsa(dp6798
g7
V2013-05-13
p6799
sg9
(dp6800
g11
g12
(S'\x07\xdd\x05\r'
tRp6801
sg14
L147L
sg15
L1L
sg16
L5L
ssg17
(lp6802
VCommonData
p6803
aV2013-05-13
p6804
asg21
Nsa(dp6805
g7
V2013-05-15
p6806
sg9
(dp6807
g11
g12
(S'\x07\xdd\x05\x0f'
tRp6808
sg14
L148L
sg15
L2L
sg16
L8L
ssg17
(lp6809
VCommonData
p6810
aV2013-05-15
p6811
asg21
Nsa(dp6812
g7
V2013-05-16
p6813
sg9
(dp6814
g11
g12
(S'\x07\xdd\x05\x10'
tRp6815
sg14
L146L
sg15
L4L
sg16
L9L
ssg17
(lp6816
VCommonData
p6817
aV2013-05-16
p6818
asg21
Nsa(dp6819
g7
V2013-05-17
p6820
sg9
(dp6821
g11
g12
(S'\x07\xdd\x05\x11'
tRp6822
sg14
L145L
sg15
L3L
sg16
L14L
ssg17
(lp6823
VCommonData
p6824
aV2013-05-17
p6825
asg21
Nsa(dp6826
g7
V2013-05-18
p6827
sg9
(dp6828
g11
g12
(S'\x07\xdd\x05\x12'
tRp6829
sg14
L136L
sg15
L2L
sg16
L9L
ssg17
(lp6830
VCommonData
p6831
aV2013-05-18
p6832
asg21
Nsa(dp6833
g7
V2013-05-19
p6834
sg9
(dp6835
g11
g12
(S'\x07\xdd\x05\x13'
tRp6836
sg14
L132L
sg15
L3L
sg16
L21L
ssg17
(lp6837
VCommonData
p6838
aV2013-05-19
p6839
asg21
Nsa(dp6840
g7
V2013-05-20
p6841
sg9
(dp6842
g11
g12
(S'\x07\xdd\x05\x14'
tRp6843
sg14
L135L
sg15
L2L
sg16
L12L
ssg17
(lp6844
VCommonData
p6845
aV2013-05-20
p6846
asg21
Nsa(dp6847
g7
V2013-05-21
p6848
sg9
(dp6849
g11
g12
(S'\x07\xdd\x05\x15'
tRp6850
sg14
L132L
sg15
L1L
sg16
L7L
ssg17
(lp6851
VCommonData
p6852
aV2013-05-21
p6853
asg21
Nsa(dp6854
g7
V2013-05-22
p6855
sg9
(dp6856
g11
g12
(S'\x07\xdd\x05\x16'
tRp6857
sg14
L125L
sg15
L3L
sg16
L7L
ssg17
(lp6858
VCommonData
p6859
aV2013-05-22
p6860
asg21
Nsa(dp6861
g7
V2013-05-23
p6862
sg9
(dp6863
g11
g12
(S'\x07\xdd\x05\x17'
tRp6864
sg14
L133L
sg15
L2L
sg16
L12L
ssg17
(lp6865
VCommonData
p6866
aV2013-05-23
p6867
asg21
Nsa(dp6868
g7
V2013-05-24
p6869
sg9
(dp6870
g11
g12
(S'\x07\xdd\x05\x18'
tRp6871
sg14
L135L
sg15
L2L
sg16
L7L
ssg17
(lp6872
VCommonData
p6873
aV2013-05-24
p6874
asg21
Nsa(dp6875
g7
V2013-05-25
p6876
sg9
(dp6877
g11
g12
(S'\x07\xdd\x05\x19'
tRp6878
sg14
L127L
sg15
L5L
sg16
L20L
ssg17
(lp6879
VCommonData
p6880
aV2013-05-25
p6881
asg21
Nsa(dp6882
g7
V2013-05-26
p6883
sg9
(dp6884
g11
g12
(S'\x07\xdd\x05\x1a'
tRp6885
sg14
L121L
sg15
L3L
sg16
L32L
ssg17
(lp6886
VCommonData
p6887
aV2013-05-26
p6888
asg21
Nsa(dp6889
g7
V2013-05-27
p6890
sg9
(dp6891
g11
g12
(S'\x07\xdd\x05\x1b'
tRp6892
sg14
L120L
sg15
L3L
sg16
L18L
ssg17
(lp6893
VCommonData
p6894
aV2013-05-27
p6895
asg21
Nsas.
