(dp1
S'entities'
p2
(lp3
(dp4
S'fields'
p5
(dp6
S'date'
p7
cdatetime
date
p8
(S'\x07\xdd\x05\x1c'
tRp9
sS'mean_planetary_A_index'
p10
L13L
sS'mean_planetary_Kp_index'
p11
L1L
sS'solar_radio_flux'
p12
L110L
ssS'keyname'
p13
V2013-05-28
p14
sS'parent'
p15
NsS'key'
p16
(lp17
VCommonData
p18
aV2013-05-28
p19
asa(dp20
g5
(dp21
g7
g8
(S'\x07\xdd\x05\x1d'
tRp22
sg10
L8L
sg11
L1L
sg12
L105L
ssg13
V2013-05-29
p23
sg15
Nsg16
(lp24
VCommonData
p25
aV2013-05-29
p26
asa(dp27
g5
(dp28
g7
g8
(S'\x07\xdd\x05\x1e'
tRp29
sg10
L2L
sg11
L1L
sg12
L107L
ssg13
V2013-05-30
p30
sg15
Nsg16
(lp31
VCommonData
p32
aV2013-05-30
p33
asa(dp34
g5
(dp35
g7
g8
(S'\x07\xdd\x05\x1f'
tRp36
sg10
L3L
sg11
L3L
sg12
L104L
ssg13
V2013-05-31
p37
sg15
Nsg16
(lp38
VCommonData
p39
aV2013-05-31
p40
asa(dp41
g5
(dp42
g7
g8
(S'\x07\xdd\x06\x01'
tRp43
sg10
L9L
sg11
L4L
sg12
L102L
ssg13
V2013-06-01
p44
sg15
Nsg16
(lp45
VCommonData
p46
aV2013-06-01
p47
asa(dp48
g5
(dp49
g7
g8
(S'\x07\xdd\x06\x02'
tRp50
sg10
L49L
sg11
L3L
sg12
L106L
ssg13
V2013-06-02
p51
sg15
Nsg16
(lp52
VCommonData
p53
aV2013-06-02
p54
asa(dp55
g5
(dp56
g7
g8
(S'\x07\xdd\x06\x03'
tRp57
sg10
L19L
sg11
L2L
sg12
L111L
ssg13
V2013-06-03
p58
sg15
Nsg16
(lp59
VCommonData
p60
aV2013-06-03
p61
asa(dp62
g5
(dp63
g7
g8
(S'\x07\xdd\x06\x04'
tRp64
sg10
L10L
sg11
L1L
sg12
L112L
ssg13
V2013-06-04
p65
sg15
Nsg16
(lp66
VCommonData
p67
aV2013-06-04
p68
asa(dp69
g5
(dp70
g7
g8
(S'\x07\xdd\x06\x05'
tRp71
sg10
L10L
sg11
L1L
sg12
L110L
ssg13
V2013-06-05
p72
sg15
Nsg16
(lp73
VCommonData
p74
aV2013-06-05
p75
asa(dp76
g5
(dp77
g7
g8
(S'\x07\xdd\x06\x06'
tRp78
sg10
L6L
sg11
L4L
sg12
L109L
ssg13
V2013-06-06
p79
sg15
Nsg16
(lp80
VCommonData
p81
aV2013-06-06
p82
asa(dp83
g5
(dp84
g7
g8
(S'\x07\xdd\x06\x07'
tRp85
sg10
L17L
sg11
L2L
sg12
L109L
ssg13
V2013-06-07
p86
sg15
Nsg16
(lp87
VCommonData
p88
aV2013-06-07
p89
asa(dp90
g5
(dp91
g7
g8
(S'\x07\xdd\x06\x08'
tRp92
sg10
L32L
sg11
L1L
sg12
L110L
ssg13
V2013-06-08
p93
sg15
Nsg16
(lp94
VCommonData
p95
aV2013-06-08
p96
asa(dp97
g5
(dp98
g7
g8
(S'\x07\xdd\x06\t'
tRp99
sg10
L10L
sg11
L3L
sg12
L103L
ssg13
V2013-06-09
p100
sg15
Nsg16
(lp101
VCommonData
p102
aV2013-06-09
p103
asa(dp104
g5
(dp105
g7
g8
(S'\x07\xdd\x06\n'
tRp106
sg10
L9L
sg11
L2L
sg12
L96L
ssg13
V2013-06-10
p107
sg15
Nsg16
(lp108
VCommonData
p109
aV2013-06-10
p110
asa(dp111
g5
(dp112
g7
g8
(S'\x07\xdd\x06\x0b'
tRp113
sg10
L13L
sg11
L3L
sg12
L93L
ssg13
V2013-06-11
p114
sg15
Nsg16
(lp115
VCommonData
p116
aV2013-06-11
p117
asa(dp118
g5
(dp119
g7
g8
(S'\x07\xdd\x06\x0c'
tRp120
sg10
L6L
sg11
L1L
sg12
L90L
ssg13
V2013-06-12
p121
sg15
Nsg16
(lp122
VCommonData
p123
aV2013-06-12
p124
asa(dp125
g5
(dp126
g7
g8
(S'\x07\xdd\x06\r'
tRp127
sg10
L5L
sg11
L1L
sg12
L93L
ssg13
V2013-06-13
p128
sg15
Nsg16
(lp129
VCommonData
p130
aV2013-06-13
p131
asa(dp132
g5
(dp133
g7
g8
(S'\x07\xdd\x06\x0e'
tRp134
sg10
L4L
sg11
L1L
sg12
L99L
ssg13
V2013-06-14
p135
sg15
Nsg16
(lp136
VCommonData
p137
aV2013-06-14
p138
asa(dp139
g5
(dp140
g7
g8
(S'\x07\xdd\x06\x0f'
tRp141
sg10
L4L
sg11
L1L
sg12
L109L
ssg13
V2013-06-15
p142
sg15
Nsg16
(lp143
VCommonData
p144
aV2013-06-15
p145
asa(dp146
g5
(dp147
g7
g8
(S'\x07\xdd\x06\x10'
tRp148
sg10
L5L
sg11
L1L
sg12
L111L
ssg13
V2013-06-16
p149
sg15
Nsg16
(lp150
VCommonData
p151
aV2013-06-16
p152
asa(dp153
g5
(dp154
g7
g8
(S'\x07\xdd\x06\x11'
tRp155
sg10
L3L
sg11
L1L
sg12
L116L
ssg13
V2013-06-17
p156
sg15
Nsg16
(lp157
VCommonData
p158
aV2013-06-17
p159
asa(dp160
g5
(dp161
g7
g8
(S'\x07\xdd\x06\x12'
tRp162
sg10
L4L
sg11
L2L
sg12
L124L
ssg13
V2013-06-18
p163
sg15
Nsg16
(lp164
VCommonData
p165
aV2013-06-18
p166
asa(dp167
g5
(dp168
g7
g8
(S'\x07\xdd\x06\x13'
tRp169
sg10
L5L
sg11
L2L
sg12
L125L
ssg13
V2013-06-19
p170
sg15
Nsg16
(lp171
VCommonData
p172
aV2013-06-19
p173
asa(dp174
g5
(dp175
g7
g8
(S'\x07\xdd\x06\x14'
tRp176
sg10
L5L
sg11
L2L
sg12
L123L
ssg13
V2013-06-20
p177
sg15
Nsg16
(lp178
VCommonData
p179
aV2013-06-20
p180
asa(dp181
g5
(dp182
g7
g8
(S'\x07\xdd\x06\x15'
tRp183
sg10
L11L
sg11
L3L
sg12
L126L
ssg13
V2013-06-21
p184
sg15
Nsg16
(lp185
VCommonData
p186
aV2013-06-21
p187
asa(dp188
g5
(dp189
g7
g8
(S'\x07\xdd\x06\x16'
tRp190
sg10
L17L
sg11
L2L
sg12
L133L
ssg13
V2013-06-22
p191
sg15
Nsg16
(lp192
VCommonData
p193
aV2013-06-22
p194
asa(dp195
g5
(dp196
g7
g8
(S'\x07\xdd\x06\x17'
tRp197
sg10
L14L
sg11
L3L
sg12
L130L
ssg13
V2013-06-23
p198
sg15
Nsg16
(lp199
VCommonData
p200
aV2013-06-23
p201
asa(dp202
g5
(dp203
g7
g8
(S'\x07\xdd\x06\x18'
tRp204
sg10
L15L
sg11
L3L
sg12
L128L
ssg13
V2013-06-24
p205
sg15
Nsg16
(lp206
VCommonData
p207
aV2013-06-24
p208
asa(dp209
g5
(dp210
g7
g8
(S'\x07\xdd\x06\x19'
tRp211
sg10
L15L
sg11
L2L
sg12
L121L
ssg13
V2013-06-25
p212
sg15
Nsg16
(lp213
VCommonData
p214
aV2013-06-25
p215
asa(dp216
g5
(dp217
g7
g8
(S'\x07\xdd\x06\x1a'
tRp218
sg10
L8L
sg11
L1L
sg12
L109L
ssg13
V2013-06-26
p219
sg15
Nsg16
(lp220
VCommonData
p221
aV2013-06-26
p222
asa(dp223
g5
(dp224
g7
g8
(S'\x07\xdd\x06\x1b'
tRp225
sg10
L4L
sg11
L2L
sg12
L107L
ssg13
V2013-06-27
p226
sg15
Nsg16
(lp227
VCommonData
p228
aV2013-06-27
p229
asa(dp230
g5
(dp231
g7
g8
(S'\x07\xdd\x06\x1c'
tRp232
sg10
L8L
sg11
L4L
sg12
L100L
ssg13
V2013-06-28
p233
sg15
Nsg16
(lp234
VCommonData
p235
aV2013-06-28
p236
asa(dp237
g5
(dp238
g7
g8
(S'\x07\xdd\x06\x1d'
tRp239
sg10
L22L
sg11
L3L
sg12
L101L
ssg13
V2013-06-29
p240
sg15
Nsg16
(lp241
VCommonData
p242
aV2013-06-29
p243
asa(dp244
g5
(dp245
g7
g8
(S'\x07\xdd\x06\x1e'
tRp246
sg10
L51L
sg11
L2L
sg12
L100L
ssg13
V2013-06-30
p247
sg15
Nsg16
(lp248
VCommonData
p249
aV2013-06-30
p250
asa(dp251
g5
(dp252
g7
g8
(S'\x07\xdd\x07\x01'
tRp253
sg10
L11L
sg11
L1L
sg12
L103L
ssg13
V2013-07-01
p254
sg15
Nsg16
(lp255
VCommonData
p256
aV2013-07-01
p257
asa(dp258
g5
(dp259
g7
g8
(S'\x07\xdd\x07\x02'
tRp260
sg10
L8L
sg11
L1L
sg12
L108L
ssg13
V2013-07-02
p261
sg15
Nsg16
(lp262
VCommonData
p263
aV2013-07-02
p264
asa(dp265
g5
(dp266
g7
g8
(S'\x07\xdd\x07\x03'
tRp267
sg10
L4L
sg11
L1L
sg12
L114L
ssg13
V2013-07-03
p268
sg15
Nsg16
(lp269
VCommonData
p270
aV2013-07-03
p271
asa(dp272
g5
(dp273
g7
g8
(S'\x07\xdd\x07\x04'
tRp274
sg10
L4L
sg11
L2L
sg12
L125L
ssg13
V2013-07-04
p275
sg15
Nsg16
(lp276
VCommonData
p277
aV2013-07-04
p278
asa(dp279
g5
(dp280
g7
g8
(S'\x07\xdd\x07\x05'
tRp281
sg10
L5L
sg11
L2L
sg12
L138L
ssg13
V2013-07-05
p282
sg15
Nsg16
(lp283
VCommonData
p284
aV2013-07-05
p285
asa(dp286
g5
(dp287
g7
g8
(S'\x07\xdd\x07\x06'
tRp288
sg10
L9L
sg11
L3L
sg12
L141L
ssg13
V2013-07-06
p289
sg15
Nsg16
(lp290
VCommonData
p291
aV2013-07-06
p292
asa(dp293
g5
(dp294
g7
g8
(S'\x07\xdd\x07\x07'
tRp295
sg10
L21L
sg11
L2L
sg12
L134L
ssg13
V2013-07-07
p296
sg15
Nsg16
(lp297
VCommonData
p298
aV2013-07-07
p299
asa(dp300
g5
(dp301
g7
g8
(S'\x07\xdd\x07\x08'
tRp302
sg10
L8L
sg11
L2L
sg12
L126L
ssg13
V2013-07-08
p303
sg15
Nsg16
(lp304
VCommonData
p305
aV2013-07-08
p306
asa(dp307
g5
(dp308
g7
g8
(S'\x07\xdd\x07\t'
tRp309
sg10
L6L
sg11
L3L
sg12
L119L
ssg13
V2013-07-09
p310
sg15
Nsg16
(lp311
VCommonData
p312
aV2013-07-09
p313
asa(dp314
g5
(dp315
g7
g8
(S'\x07\xdd\x07\n'
tRp316
sg10
L9L
sg11
L3L
sg12
L120L
ssg13
V2013-07-10
p317
sg15
Nsg16
(lp318
VCommonData
p319
aV2013-07-10
p320
asa(dp321
g5
(dp322
g7
g8
(S'\x07\xdd\x07\x0b'
tRp323
sg10
L25L
sg11
L3L
sg12
L118L
ssg13
V2013-07-11
p324
sg15
Nsg16
(lp325
VCommonData
p326
aV2013-07-11
p327
asa(dp328
g5
(dp329
g7
g8
(S'\x07\xdd\x07\x0c'
tRp330
sg10
L18L
sg11
L2L
sg12
L113L
ssg13
V2013-07-12
p331
sg15
Nsg16
(lp332
VCommonData
p333
aV2013-07-12
p334
asa(dp335
g5
(dp336
g7
g8
(S'\x07\xdd\x07\r'
tRp337
sg10
L9L
sg11
L2L
sg12
L118L
ssg13
V2013-07-13
p338
sg15
Nsg16
(lp339
VCommonData
p340
aV2013-07-13
p341
asa(dp342
g5
(dp343
g7
g8
(S'\x07\xdd\x07\x0e'
tRp344
sg10
L10L
sg11
L4L
sg12
L114L
ssg13
V2013-07-14
p345
sg15
Nsg16
(lp346
VCommonData
p347
aV2013-07-14
p348
asa(dp349
g5
(dp350
g7
g8
(S'\x07\xdd\x07\x0f'
tRp351
sg10
L20L
sg11
L3L
sg12
L113L
ssg13
V2013-07-15
p352
sg15
Nsg16
(lp353
VCommonData
p354
aV2013-07-15
p355
asa(dp356
g5
(dp357
g7
g8
(S'\x07\xdd\x07\x10'
tRp358
sg10
L25L
sg11
L2L
sg12
L114L
ssg13
V2013-07-16
p359
sg15
Nsg16
(lp360
VCommonData
p361
aV2013-07-16
p362
asa(dp363
g5
(dp364
g7
g8
(S'\x07\xdd\x07\x11'
tRp365
sg10
L5L
sg11
L1L
sg12
L114L
ssg13
V2013-07-17
p366
sg15
Nsg16
(lp367
VCommonData
p368
aV2013-07-17
p369
asa(dp370
g5
(dp371
g7
g8
(S'\x07\xdd\x07\x12'
tRp372
sg10
L5L
sg11
L4L
sg12
L111L
ssg13
V2013-07-18
p373
sg15
Nsg16
(lp374
VCommonData
p375
aV2013-07-18
p376
asa(dp377
g5
(dp378
g7
g8
(S'\x07\xdd\x07\x13'
tRp379
sg10
L15L
sg11
L3L
sg12
L115L
ssg13
V2013-07-19
p380
sg15
Nsg16
(lp381
VCommonData
p382
aV2013-07-19
p383
asa(dp384
g5
(dp385
g7
g8
(S'\x07\xdd\x07\x14'
tRp386
sg10
L14L
sg11
L1L
sg12
L114L
ssg13
V2013-07-20
p387
sg15
Nsg16
(lp388
VCommonData
p389
aV2013-07-20
p390
asa(dp391
g5
(dp392
g7
g8
(S'\x07\xdd\x07\x15'
tRp393
sg10
L6L
sg11
L2L
sg12
L113L
ssg13
V2013-07-21
p394
sg15
Nsg16
(lp395
VCommonData
p396
aV2013-07-21
p397
asa(dp398
g5
(dp399
g7
g8
(S'\x07\xdd\x07\x16'
tRp400
sg10
L5L
sg11
L2L
sg12
L109L
ssg13
V2013-07-22
p401
sg15
Nsg16
(lp402
VCommonData
p403
aV2013-07-22
p404
asa(dp405
g5
(dp406
g7
g8
(S'\x07\xdd\x07\x17'
tRp407
sg10
L6L
sg11
L2L
sg12
L110L
ssg13
V2013-07-23
p408
sg15
Nsg16
(lp409
VCommonData
p410
aV2013-07-23
p411
asa(dp412
g5
(dp413
g7
g8
(S'\x07\xdd\x07\x18'
tRp414
sg10
L5L
sg11
L2L
sg12
L107L
ssg13
V2013-07-24
p415
sg15
Nsg16
(lp416
VCommonData
p417
aV2013-07-24
p418
asa(dp419
g5
(dp420
g7
g8
(S'\x07\xdd\x07\x19'
tRp421
sg10
L5L
sg11
L3L
sg12
L108L
ssg13
V2013-07-25
p422
sg15
Nsg16
(lp423
VCommonData
p424
aV2013-07-25
p425
asa(dp426
g5
(dp427
g7
g8
(S'\x07\xdd\x07\x1a'
tRp428
sg10
L11L
sg11
L2L
sg12
L107L
ssg13
V2013-07-26
p429
sg15
Nsg16
(lp430
VCommonData
p431
aV2013-07-26
p432
asa(dp433
g5
(dp434
g7
g8
(S'\x07\xdd\x07\x1b'
tRp435
sg10
L14L
sg11
L3L
sg12
L110L
ssg13
V2013-07-27
p436
sg15
Nsg16
(lp437
VCommonData
p438
aV2013-07-27
p439
asa(dp440
g5
(dp441
g7
g8
(S'\x07\xdd\x07\x1c'
tRp442
sg10
L11L
sg11
L1L
sg12
L108L
ssg13
V2013-07-28
p443
sg15
Nsg16
(lp444
VCommonData
p445
aV2013-07-28
p446
asa(dp447
g5
(dp448
g7
g8
(S'\x07\xdd\x07\x1d'
tRp449
sg10
L7L
sg11
L2L
sg12
L109L
ssg13
V2013-07-29
p450
sg15
Nsg16
(lp451
VCommonData
p452
aV2013-07-29
p453
asa(dp454
g5
(dp455
g7
g8
(S'\x07\xdd\x07\x1e'
tRp456
sg10
L6L
sg11
L2L
sg12
L112L
ssg13
V2013-07-30
p457
sg15
Nsg16
(lp458
VCommonData
p459
aV2013-07-30
p460
asa(dp461
g5
(dp462
g7
g8
(S'\x07\xdd\x07\x1f'
tRp463
sg10
L6L
sg11
L1L
sg12
L113L
ssg13
V2013-07-31
p464
sg15
Nsg16
(lp465
VCommonData
p466
aV2013-07-31
p467
asa(dp468
g5
(dp469
g7
g8
(S'\x07\xdd\x08\x01'
tRp470
sg10
L5L
sg11
L2L
sg12
L109L
ssg13
V2013-08-01
p471
sg15
Nsg16
(lp472
VCommonData
p473
aV2013-08-01
p474
asa(dp475
g5
(dp476
g7
g8
(S'\x07\xdd\x08\x02'
tRp477
sg10
L5L
sg11
L1L
sg12
L112L
ssg13
V2013-08-02
p478
sg15
Nsg16
(lp479
VCommonData
p480
aV2013-08-02
p481
asa(dp482
g5
(dp483
g7
g8
(S'\x07\xdd\x08\x03'
tRp484
sg10
L4L
sg11
L1L
sg12
L113L
ssg13
V2013-08-03
p485
sg15
Nsg16
(lp486
VCommonData
p487
aV2013-08-03
p488
asa(dp489
g5
(dp490
g7
g8
(S'\x07\xdd\x08\x04'
tRp491
sg10
L5L
sg11
L5L
sg12
L107L
ssg13
V2013-08-04
p492
sg15
Nsg16
(lp493
VCommonData
p494
aV2013-08-04
p495
asa(dp496
g5
(dp497
g7
g8
(S'\x07\xdd\x08\x05'
tRp498
sg10
L16L
sg11
L2L
sg12
L105L
ssg13
V2013-08-05
p499
sg15
Nsg16
(lp500
VCommonData
p501
aV2013-08-05
p502
asa(dp503
g5
(dp504
g7
g8
(S'\x07\xdd\x08\x06'
tRp505
sg10
L16L
sg11
L1L
sg12
L104L
ssg13
V2013-08-06
p506
sg15
Nsg16
(lp507
VCommonData
p508
aV2013-08-06
p509
asa(dp510
g5
(dp511
g7
g8
(S'\x07\xdd\x08\x07'
tRp512
sg10
L7L
sg11
L1L
sg12
L104L
ssg13
V2013-08-07
p513
sg15
Nsg16
(lp514
VCommonData
p515
aV2013-08-07
p516
asa(dp517
g5
(dp518
g7
g8
(S'\x07\xdd\x08\x08'
tRp519
sg10
L4L
sg11
L1L
sg12
L106L
ssg13
V2013-08-08
p520
sg15
Nsg16
(lp521
VCommonData
p522
aV2013-08-08
p523
asa(dp524
g5
(dp525
g7
g8
(S'\x07\xdd\x08\t'
tRp526
sg10
L5L
sg11
L2L
sg12
L104L
ssg13
V2013-08-09
p527
sg15
Nsg16
(lp528
VCommonData
p529
aV2013-08-09
p530
asa(dp531
g5
(dp532
g7
g8
(S'\x07\xdd\x08\n'
tRp533
sg10
L9L
sg11
L2L
sg12
L104L
ssg13
V2013-08-10
p534
sg15
Nsg16
(lp535
VCommonData
p536
aV2013-08-10
p537
asa(dp538
g5
(dp539
g7
g8
(S'\x07\xdd\x08\x0b'
tRp540
sg10
L6L
sg11
L2L
sg12
L103L
ssg13
V2013-08-11
p541
sg15
Nsg16
(lp542
VCommonData
p543
aV2013-08-11
p544
asa(dp545
g5
(dp546
g7
g8
(S'\x07\xdd\x08\x0c'
tRp547
sg10
L6L
sg11
L1L
sg12
L110L
ssg13
V2013-08-12
p548
sg15
Nsg16
(lp549
VCommonData
p550
aV2013-08-12
p551
asa(dp552
g5
(dp553
g7
g8
(S'\x07\xdd\x08\r'
tRp554
sg10
L6L
sg11
L4L
sg12
L114L
ssg13
V2013-08-13
p555
sg15
Nsg16
(lp556
VCommonData
p557
aV2013-08-13
p558
asa(dp559
g5
(dp560
g7
g8
(S'\x07\xdd\x08\x0e'
tRp561
sg10
L9L
sg11
L2L
sg12
L122L
ssg13
V2013-08-14
p562
sg15
Nsg16
(lp563
VCommonData
p564
aV2013-08-14
p565
asa(dp566
g5
(dp567
g7
g8
(S'\x07\xdd\x08\x0f'
tRp568
sg10
L10L
sg11
L4L
sg12
L125L
ssg13
V2013-08-15
p569
sg15
Nsg16
(lp570
VCommonData
p571
aV2013-08-15
p572
asa(dp573
g5
(dp574
g7
g8
(S'\x07\xdd\x08\x10'
tRp575
sg10
L15L
sg11
L4L
sg12
L123L
ssg13
V2013-08-16
p576
sg15
Nsg16
(lp577
VCommonData
p578
aV2013-08-16
p579
asa(dp580
g5
(dp581
g7
g8
(S'\x07\xdd\x08\x11'
tRp582
sg10
L23L
sg11
L2L
sg12
L120L
ssg13
V2013-08-17
p583
sg15
Nsg16
(lp584
VCommonData
p585
aV2013-08-17
p586
asa(dp587
g5
(dp588
g7
g8
(S'\x07\xdd\x08\x12'
tRp589
sg10
L7L
sg11
L2L
sg12
L125L
ssg13
V2013-08-18
p590
sg15
Nsg16
(lp591
VCommonData
p592
aV2013-08-18
p593
asa(dp594
g5
(dp595
g7
g8
(S'\x07\xdd\x08\x13'
tRp596
sg10
L6L
sg11
L2L
sg12
L126L
ssg13
V2013-08-19
p597
sg15
Nsg16
(lp598
VCommonData
p599
aV2013-08-19
p600
asa(dp601
g5
(dp602
g7
g8
(S'\x07\xdd\x08\x14'
tRp603
sg10
L5L
sg11
L1L
sg12
L128L
ssg13
V2013-08-20
p604
sg15
Nsg16
(lp605
VCommonData
p606
aV2013-08-20
p607
asa(dp608
g5
(dp609
g7
g8
(S'\x07\xdd\x08\x15'
tRp610
sg10
L5L
sg11
L3L
sg12
L132L
ssg13
V2013-08-21
p611
sg15
Nsg16
(lp612
VCommonData
p613
aV2013-08-21
p614
asa(dp615
g5
(dp616
g7
g8
(S'\x07\xdd\x08\x16'
tRp617
sg10
L18L
sg11
L2L
sg12
L130L
ssg13
V2013-08-22
p618
sg15
Nsg16
(lp619
VCommonData
p620
aV2013-08-22
p621
asa(dp622
g5
(dp623
g7
g8
(S'\x07\xdd\x08\x17'
tRp624
sg10
L13L
sg11
L2L
sg12
L132L
ssg13
V2013-08-23
p625
sg15
Nsg16
(lp626
VCommonData
p627
aV2013-08-23
p628
asa(dp629
g5
(dp630
g7
g8
(S'\x07\xdd\x08\x18'
tRp631
sg10
L15L
sg11
L2L
sg12
L124L
ssg13
V2013-08-24
p632
sg15
Nsg16
(lp633
VCommonData
p634
aV2013-08-24
p635
asa(dp636
g5
(dp637
g7
g8
(S'\x07\xdd\x08\x19'
tRp638
sg10
L7L
sg11
L2L
sg12
L117L
ssg13
V2013-08-25
p639
sg15
Nsg16
(lp640
VCommonData
p641
aV2013-08-25
p642
asa(dp643
g5
(dp644
g7
g8
(S'\x07\xdd\x08\x1a'
tRp645
sg10
L7L
sg11
L1L
sg12
L113L
ssg13
V2013-08-26
p646
sg15
Nsg16
(lp647
VCommonData
p648
aV2013-08-26
p649
asa(dp650
g5
(dp651
g7
g8
(S'\x07\xdd\x08\x1b'
tRp652
sg10
L5L
sg11
L2L
sg12
L111L
ssg13
V2013-08-27
p653
sg15
Nsg16
(lp654
VCommonData
p655
aV2013-08-27
p656
asa(dp657
g5
(dp658
g7
g8
(S'\x07\xdd\x08\x1c'
tRp659
sg10
L15L
sg11
L1L
sg12
L110L
ssg13
V2013-08-28
p660
sg15
Nsg16
(lp661
VCommonData
p662
aV2013-08-28
p663
asa(dp664
g5
(dp665
g7
g8
(S'\x07\xdd\x08\x1d'
tRp666
sg10
L9L
sg11
L1L
sg12
L108L
ssg13
V2013-08-29
p667
sg15
Nsg16
(lp668
VCommonData
p669
aV2013-08-29
p670
asa(dp671
g5
(dp672
g7
g8
(S'\x07\xdd\x08\x1e'
tRp673
sg10
L3L
sg11
L2L
sg12
L109L
ssg13
V2013-08-30
p674
sg15
Nsg16
(lp675
VCommonData
p676
aV2013-08-30
p677
asa(dp678
g5
(dp679
g7
g8
(S'\x07\xdd\x08\x1f'
tRp680
sg10
L8L
sg11
L2L
sg12
L108L
ssg13
V2013-08-31
p681
sg15
Nsg16
(lp682
VCommonData
p683
aV2013-08-31
p684
asa(dp685
g5
(dp686
g7
g8
(S'\x07\xdd\t\x01'
tRp687
sg10
L11L
sg11
L2L
sg12
L108L
ssg13
V2013-09-01
p688
sg15
Nsg16
(lp689
VCommonData
p690
aV2013-09-01
p691
asa(dp692
g5
(dp693
g7
g8
(S'\x07\xdd\t\x02'
tRp694
sg10
L9L
sg11
L2L
sg12
L104L
ssg13
V2013-09-02
p695
sg15
Nsg16
(lp696
VCommonData
p697
aV2013-09-02
p698
asa(dp699
g5
(dp700
g7
g8
(S'\x07\xdd\t\x03'
tRp701
sg10
L10L
sg11
L1L
sg12
L106L
ssg13
V2013-09-03
p702
sg15
Nsg16
(lp703
VCommonData
p704
aV2013-09-03
p705
asa(dp706
g5
(dp707
g7
g8
(S'\x07\xdd\t\x04'
tRp708
sg10
L7L
sg11
L1L
sg12
L106L
ssg13
V2013-09-04
p709
sg15
Nsg16
(lp710
VCommonData
p711
aV2013-09-04
p712
asa(dp713
g5
(dp714
g7
g8
(S'\x07\xdd\t\x05'
tRp715
sg10
L6L
sg11
L1L
sg12
L109L
ssg13
V2013-09-05
p716
sg15
Nsg16
(lp717
VCommonData
p718
aV2013-09-05
p719
asa(dp720
g5
(dp721
g7
g8
(S'\x07\xdd\t\x06'
tRp722
sg10
L4L
sg11
L1L
sg12
L110L
ssg13
V2013-09-06
p723
sg15
Nsg16
(lp724
VCommonData
p725
aV2013-09-06
p726
asa(dp727
g5
(dp728
g7
g8
(S'\x07\xdd\t\x07'
tRp729
sg10
L5L
sg11
L1L
sg12
L101L
ssg13
V2013-09-07
p730
sg15
Nsg16
(lp731
VCommonData
p732
aV2013-09-07
p733
asa(dp734
g5
(dp735
g7
g8
(S'\x07\xdd\t\x08'
tRp736
sg10
L4L
sg11
L2L
sg12
L99L
ssg13
V2013-09-08
p737
sg15
Nsg16
(lp738
VCommonData
p739
aV2013-09-08
p740
asa(dp741
g5
(dp742
g7
g8
(S'\x07\xdd\t\t'
tRp743
sg10
L6L
sg11
L1L
sg12
L96L
ssg13
V2013-09-09
p744
sg15
Nsg16
(lp745
VCommonData
p746
aV2013-09-09
p747
asa(dp748
g5
(dp749
g7
g8
(S'\x07\xdd\t\n'
tRp750
sg10
L4L
sg11
L3L
sg12
L94L
ssg13
V2013-09-10
p751
sg15
Nsg16
(lp752
VCommonData
p753
aV2013-09-10
p754
asa(dp755
g5
(dp756
g7
g8
(S'\x07\xdd\t\x0b'
tRp757
sg10
L7L
sg11
L2L
sg12
L95L
ssg13
V2013-09-11
p758
sg15
Nsg16
(lp759
VCommonData
p760
aV2013-09-11
p761
asa(dp762
g5
(dp763
g7
g8
(S'\x07\xdd\t\x0c'
tRp764
sg10
L6L
sg11
L1L
sg12
L93L
ssg13
V2013-09-12
p765
sg15
Nsg16
(lp766
VCommonData
p767
aV2013-09-12
p768
asa(dp769
g5
(dp770
g7
g8
(S'\x07\xdd\t\r'
tRp771
sg10
L7L
sg11
L4L
sg12
L93L
ssg13
V2013-09-13
p772
sg15
Nsg16
(lp773
VCommonData
p774
aV2013-09-13
p775
asa(dp776
g5
(dp777
g7
g8
(S'\x07\xdd\t\x0e'
tRp778
sg10
L9L
sg11
L1L
sg12
L92L
ssg13
V2013-09-14
p779
sg15
Nsg16
(lp780
VCommonData
p781
aV2013-09-14
p782
asa(dp783
g5
(dp784
g7
g8
(S'\x07\xdd\t\x0f'
tRp785
sg10
L6L
sg11
L1L
sg12
L93L
ssg13
V2013-09-15
p786
sg15
Nsg16
(lp787
VCommonData
p788
aV2013-09-15
p789
asa(dp790
g5
(dp791
g7
g8
(S'\x07\xdd\t\x10'
tRp792
sg10
L2L
sg11
L1L
sg12
L93L
ssg13
V2013-09-16
p793
sg15
Nsg16
(lp794
VCommonData
p795
aV2013-09-16
p796
asa(dp797
g5
(dp798
g7
g8
(S'\x07\xdd\t\x11'
tRp799
sg10
L5L
sg11
L2L
sg12
L95L
ssg13
V2013-09-17
p800
sg15
Nsg16
(lp801
VCommonData
p802
aV2013-09-17
p803
asa(dp804
g5
(dp805
g7
g8
(S'\x07\xdd\t\x12'
tRp806
sg10
L8L
sg11
L2L
sg12
L99L
ssg13
V2013-09-18
p807
sg15
Nsg16
(lp808
VCommonData
p809
aV2013-09-18
p810
asa(dp811
g5
(dp812
g7
g8
(S'\x07\xdd\t\x13'
tRp813
sg10
L7L
sg11
L2L
sg12
L104L
ssg13
V2013-09-19
p814
sg15
Nsg16
(lp815
VCommonData
p816
aV2013-09-19
p817
asa(dp818
g5
(dp819
g7
g8
(S'\x07\xdd\t\x14'
tRp820
sg10
L11L
sg11
L1L
sg12
L108L
ssg13
V2013-09-20
p821
sg15
Nsg16
(lp822
VCommonData
p823
aV2013-09-20
p824
asa(dp825
g5
(dp826
g7
g8
(S'\x07\xdd\t\x15'
tRp827
sg10
L6L
sg11
L2L
sg12
L109L
ssg13
V2013-09-21
p828
sg15
Nsg16
(lp829
VCommonData
p830
aV2013-09-21
p831
asa(dp832
g5
(dp833
g7
g8
(S'\x07\xdd\t\x16'
tRp834
sg10
L7L
sg11
L1L
sg12
L110L
ssg13
V2013-09-22
p835
sg15
Nsg16
(lp836
VCommonData
p837
aV2013-09-22
p838
asa(dp839
g5
(dp840
g7
g8
(S'\x07\xdd\t\x17'
tRp841
sg10
L5L
sg11
L1L
sg12
L111L
ssg13
V2013-09-23
p842
sg15
Nsg16
(lp843
VCommonData
p844
aV2013-09-23
p845
asa(dp846
g5
(dp847
g7
g8
(S'\x07\xdd\t\x18'
tRp848
sg10
L5L
sg11
L3L
sg12
L108L
ssg13
V2013-09-24
p849
sg15
Nsg16
(lp850
VCommonData
p851
aV2013-09-24
p852
asa(dp853
g5
(dp854
g7
g8
(S'\x07\xdd\t\x19'
tRp855
sg10
L9L
sg11
L1L
sg12
L110L
ssg13
V2013-09-25
p856
sg15
Nsg16
(lp857
VCommonData
p858
aV2013-09-25
p859
asa(dp860
g5
(dp861
g7
g8
(S'\x07\xdd\t\x1a'
tRp862
sg10
L4L
sg11
L0L
sg12
L111L
ssg13
V2013-09-26
p863
sg15
Nsg16
(lp864
VCommonData
p865
aV2013-09-26
p866
asa(dp867
g5
(dp868
g7
g8
(S'\x07\xdd\t\x1b'
tRp869
sg10
L2L
sg11
L0L
sg12
L110L
ssg13
V2013-09-27
p870
sg15
Nsg16
(lp871
VCommonData
p872
aV2013-09-27
p873
asa(dp874
g5
(dp875
g7
g8
(S'\x07\xdd\t\x1c'
tRp876
sg10
L2L
sg11
L1L
sg12
L108L
ssg13
V2013-09-28
p877
sg15
Nsg16
(lp878
VCommonData
p879
aV2013-09-28
p880
asa(dp881
g5
(dp882
g7
g8
(S'\x07\xdd\t\x1d'
tRp883
sg10
L2L
sg11
L1L
sg12
L106L
ssg13
V2013-09-29
p884
sg15
Nsg16
(lp885
VCommonData
p886
aV2013-09-29
p887
asa(dp888
g5
(dp889
g7
g8
(S'\x07\xdd\t\x1e'
tRp890
sg10
L3L
sg11
L1L
sg12
L103L
ssg13
V2013-09-30
p891
sg15
Nsg16
(lp892
VCommonData
p893
aV2013-09-30
p894
asa(dp895
g5
(dp896
g7
g8
(S'\x07\xdd\n\x01'
tRp897
sg10
L3L
sg11
L1L
sg12
L105L
ssg13
V2013-10-01
p898
sg15
Nsg16
(lp899
VCommonData
p900
aV2013-10-01
p901
asa(dp902
g5
(dp903
g7
g8
(S'\x07\xdd\n\x02'
tRp904
sg10
L5L
sg11
L3L
sg12
L107L
ssg13
V2013-10-02
p905
sg15
Nsg16
(lp906
VCommonData
p907
aV2013-10-02
p908
asa(dp909
g5
(dp910
g7
g8
(S'\x07\xdd\n\x03'
tRp911
sg10
L39L
sg11
L2L
sg12
L108L
ssg13
V2013-10-03
p912
sg15
Nsg16
(lp913
VCommonData
p914
aV2013-10-03
p915
asa(dp916
g5
(dp917
g7
g8
(S'\x07\xdd\n\x04'
tRp918
sg10
L6L
sg11
L1L
sg12
L114L
ssg13
V2013-10-04
p919
sg15
Nsg16
(lp920
VCommonData
p921
aV2013-10-04
p922
asa(dp923
g5
(dp924
g7
g8
(S'\x07\xdd\n\x05'
tRp925
sg10
L2L
sg11
L1L
sg12
L109L
ssg13
V2013-10-05
p926
sg15
Nsg16
(lp927
VCommonData
p928
aV2013-10-05
p929
asa(dp930
g5
(dp931
g7
g8
(S'\x07\xdd\n\x06'
tRp932
sg10
L1L
sg11
L1L
sg12
L106L
ssg13
V2013-10-06
p933
sg15
Nsg16
(lp934
VCommonData
p935
aV2013-10-06
p936
asa(dp937
g5
(dp938
g7
g8
(S'\x07\xdd\n\x07'
tRp939
sg10
L2L
sg11
L1L
sg12
L107L
ssg13
V2013-10-07
p940
sg15
Nsg16
(lp941
VCommonData
p942
aV2013-10-07
p943
asa(dp944
g5
(dp945
g7
g8
(S'\x07\xdd\n\x08'
tRp946
sg10
L6L
sg11
L1L
sg12
L112L
ssg13
V2013-10-08
p947
sg15
Nsg16
(lp948
VCommonData
p949
aV2013-10-08
p950
asa(dp951
g5
(dp952
g7
g8
(S'\x07\xdd\n\t'
tRp953
sg10
L16L
sg11
L3L
sg12
L112L
ssg13
V2013-10-09
p954
sg15
Nsg16
(lp955
VCommonData
p956
aV2013-10-09
p957
asa(dp958
g5
(dp959
g7
g8
(S'\x07\xdd\n\n'
tRp960
sg10
L24L
sg11
L1L
sg12
L113L
ssg13
V2013-10-10
p961
sg15
Nsg16
(lp962
VCommonData
p963
aV2013-10-10
p964
asa(dp965
g5
(dp966
g7
g8
(S'\x07\xdd\n\x0b'
tRp967
sg10
L9L
sg11
L1L
sg12
L121L
ssg13
V2013-10-11
p968
sg15
Nsg16
(lp969
VCommonData
p970
aV2013-10-11
p971
asa(dp972
g5
(dp973
g7
g8
(S'\x07\xdd\n\x0c'
tRp974
sg10
L5L
sg11
L1L
sg12
L129L
ssg13
V2013-10-12
p975
sg15
Nsg16
(lp976
VCommonData
p977
aV2013-10-12
p978
asa(dp979
g5
(dp980
g7
g8
(S'\x07\xdd\n\r'
tRp981
sg10
L5L
sg11
L1L
sg12
L128L
ssg13
V2013-10-13
p982
sg15
Nsg16
(lp983
VCommonData
p984
aV2013-10-13
p985
asa(dp986
g5
(dp987
g7
g8
(S'\x07\xdd\n\x0e'
tRp988
sg10
L2L
sg11
L3L
sg12
L129L
ssg13
V2013-10-14
p989
sg15
Nsg16
(lp990
VCommonData
p991
aV2013-10-14
p992
asa(dp993
g5
(dp994
g7
g8
(S'\x07\xdd\n\x0f'
tRp995
sg10
L13L
sg11
L1L
sg12
L125L
ssg13
V2013-10-15
p996
sg15
Nsg16
(lp997
VCommonData
p998
aV2013-10-15
p999
asa(dp1000
g5
(dp1001
g7
g8
(S'\x07\xdd\n\x10'
tRp1002
sg10
L14L
sg11
L2L
sg12
L125L
ssg13
V2013-10-16
p1003
sg15
Nsg16
(lp1004
VCommonData
p1005
aV2013-10-16
p1006
asa(dp1007
g5
(dp1008
g7
g8
(S'\x07\xdd\n\x11'
tRp1009
sg10
L9L
sg11
L2L
sg12
L128L
ssg13
V2013-10-17
p1010
sg15
Nsg16
(lp1011
VCommonData
p1012
aV2013-10-17
p1013
asa(dp1014
g5
(dp1015
g7
g8
(S'\x07\xdd\n\x12'
tRp1016
sg10
L9L
sg11
L1L
sg12
L136L
ssg13
V2013-10-18
p1017
sg15
Nsg16
(lp1018
VCommonData
p1019
aV2013-10-18
p1020
asa(dp1021
g5
(dp1022
g7
g8
(S'\x07\xdd\n\x13'
tRp1023
sg10
L3L
sg11
L1L
sg12
L140L
ssg13
V2013-10-19
p1024
sg15
Nsg16
(lp1025
VCommonData
p1026
aV2013-10-19
p1027
asa(dp1028
g5
(dp1029
g7
g8
(S'\x07\xdd\n\x14'
tRp1030
sg10
L3L
sg11
L0L
sg12
L133L
ssg13
V2013-10-20
p1031
sg15
Nsg16
(lp1032
VCommonData
p1033
aV2013-10-20
p1034
asasS'model'
p1035
VCommonData
p1036
s.