(dp1
S'model'
p2
VProp
p3
sS'entities'
p4
(lp5
(dp6
S'parent'
p7
(lp8
VUser
p9
aVVPKulesh@gmail.com
p10
asS'key'
p11
(lp12
VUser
p13
aVVPKulesh@gmail.com
p14
aVProp
p15
aL1002L
asS'keyname'
p16
NsS'fields'
p17
(dp18
S'user'
p19
(g11
(lp20
VUser
p21
aVVPKulesh@gmail.com
p22
atp23
sS'prop_kind'
p24
Vsimple
p25
sS'prop_name'
p26
V\u041f\u043e\u043a\u0430\u0437\u0430\u0442\u0435\u043b\u044c\u043d\u043e\u0435 \u0440\u0430\u0441\u043f\u0440\u0435\u0434\u0435\u043b\u0435\u043d\u0438\u0435 \u03bb=1
p27
sS'prop_comment'
p28
Nssa(dp29
g7
(lp30
VUser
p31
aVVPKulesh@gmail.com
p32
asg11
(lp33
VUser
p34
aVVPKulesh@gmail.com
p35
aVProp
p36
aL3002L
asg16
Nsg17
(dp37
g19
(g11
(lp38
VUser
p39
aVVPKulesh@gmail.com
p40
atp41
sg24
Vsimple
p42
sg26
V\u0411\u0435\u0442\u0430 \u0440\u0430\u0441\u043f\u0440\u0435\u0434\u0435\u043b\u0435\u043d\u0438\u0435 \u03b1=0.5 \u03b2=0.5
p43
sg28
Nssa(dp44
g7
(lp45
VUser
p46
aVVPKulesh@gmail.com
p47
asg11
(lp48
VUser
p49
aVVPKulesh@gmail.com
p50
aVProp
p51
aL5002L
asg16
Nsg17
(dp52
g19
(g11
(lp53
VUser
p54
aVVPKulesh@gmail.com
p55
atp56
sg24
Vcomplex
p57
sg26
V\u0420\u0435\u0430\u043b\u044c\u043d\u044b\u0435 \u0434\u0430\u043d\u043d\u044b\u0435
p58
sg28
Nssa(dp59
g7
(lp60
VUser
p61
aVVPKulesh@gmail.com
p62
asg11
(lp63
VUser
p64
aVVPKulesh@gmail.com
p65
aVProp
p66
aL10002L
asg16
Nsg17
(dp67
g19
(g11
(lp68
VUser
p69
aVVPKulesh@gmail.com
p70
atp71
sg24
Vsimple
p72
sg26
V\u0420\u0430\u0432\u043d\u043e\u043c\u0435\u0440\u043d\u043e\u0435 \u0440\u0430\u0441\u043f\u0440\u0435\u0434\u0435\u043b\u0435\u043d\u0438\u0435
p73
sg28
Nssa(dp74
g7
(lp75
VUser
p76
aVVPKulesh@gmail.com
p77
asg11
(lp78
VUser
p79
aVVPKulesh@gmail.com
p80
aVProp
p81
aL12002L
asg16
Nsg17
(dp82
g19
(g11
(lp83
VUser
p84
aVVPKulesh@gmail.com
p85
atp86
sg24
Vsimple
p87
sg26
V\u041d\u043e\u0440\u043c\u0430\u043b\u044c\u043d\u043e\u0435 \u0440\u0430\u0441\u043f\u0440\u0435\u0434\u0435\u043b\u0435\u043d\u0438\u0435 \u03bc=5 \u03c3=1.5
p88
sg28
Nssa(dp89
g7
(lp90
VUser
p91
aVVPKulesh@gmail.com
p92
asg11
(lp93
VUser
p94
aVVPKulesh@gmail.com
p95
aVProp
p96
aL14002L
asg16
Nsg17
(dp97
g19
(g11
(lp98
VUser
p99
aVVPKulesh@gmail.com
p100
atp101
sg24
Vsimple
p102
sg26
V\u0421\u0430\u043c\u043e\u0447\u0443\u0432\u0441\u0442\u0432\u0438\u0435
p103
sg28
Nssa(dp104
g7
(lp105
VUser
p106
aVddmitriev@gmail.com
p107
asg11
(lp108
VUser
p109
aVddmitriev@gmail.com
p110
aVProp
p111
aL3001L
asg16
Nsg17
(dp112
g19
(g11
(lp113
VUser
p114
aVddmitriev@gmail.com
p115
atp116
sg24
Vcomplex
p117
sg26
V\u041f\u0430\u0440 2
p118
sg28
Nssa(dp119
g7
(lp120
VUser
p121
aVddmitriev@gmail.com
p122
asg11
(lp123
VUser
p124
aVddmitriev@gmail.com
p125
aVProp
p126
aL5001L
asg16
Nsg17
(dp127
g19
(g11
(lp128
VUser
p129
aVddmitriev@gmail.com
p130
atp131
sg24
Vempty_complex
p132
sg26
V\u041f\u0430\u0440 1
p133
sg28
Nssa(dp134
g7
(lp135
VUser
p136
aVpokrovskiy.a@gmail.com
p137
asg11
(lp138
VUser
p139
aVpokrovskiy.a@gmail.com
p140
aVProp
p141
aL1002L
asg16
Nsg17
(dp142
g19
(g11
(lp143
VUser
p144
aVpokrovskiy.a@gmail.com
p145
atp146
sg24
Vsimple
p147
sg26
V\u043a\u043e\u043c\u043c\u0435\u0440\u0446\u0438\u044f
p148
sg28
Nssa(dp149
g7
(lp150
VUser
p151
aVpokrovskiy.a@gmail.com
p152
asg11
(lp153
VUser
p154
aVpokrovskiy.a@gmail.com
p155
aVProp
p156
aL3002L
asg16
Nsg17
(dp157
g19
(g11
(lp158
VUser
p159
aVpokrovskiy.a@gmail.com
p160
atp161
sg24
Vsimple
p162
sg26
V\u043e\u0431\u0449\u0435\u0435 \u0441\u043e\u0441\u0442\u043e\u044f\u0438\u0435
p163
sg28
Nssa(dp164
g7
(lp165
VUser
p166
aVpokrovskiy.a@gmail.com
p167
asg11
(lp168
VUser
p169
aVpokrovskiy.a@gmail.com
p170
aVProp
p171
aL5002L
asg16
Nsg17
(dp172
g19
(g11
(lp173
VUser
p174
aVpokrovskiy.a@gmail.com
p175
atp176
sg24
Vsimple
p177
sg26
V\u0421\u043f\u043e\u0440\u0442
p178
sg28
Nssa(dp179
g7
(lp180
VUser
p181
aVpokrovskiy.a@gmail.com
p182
asg11
(lp183
VUser
p184
aVpokrovskiy.a@gmail.com
p185
aVProp
p186
aL7002L
asg16
Nsg17
(dp187
g19
(g11
(lp188
VUser
p189
aVpokrovskiy.a@gmail.com
p190
atp191
sg24
Vsimple
p192
sg26
V\u0417. \u0438 \u0421.
p193
sg28
Nssa(dp194
g7
(lp195
VUser
p196
aVpokrovskiy.a@gmail.com
p197
asg11
(lp198
VUser
p199
aVpokrovskiy.a@gmail.com
p200
aVProp
p201
aL12001L
asg16
Nsg17
(dp202
g19
(g11
(lp203
VUser
p204
aVpokrovskiy.a@gmail.com
p205
atp206
sg24
Vsimple
p207
sg26
V\u0428\u0430\u0445\u043c\u0432\u0442\u044b
p208
sg28
V\u0448\u0430\u0445\u043c\u0430\u0442\u044b
p209
ssa(dp210
g7
(lp211
VUser
p212
aVpokrovskiy.a@gmail.com
p213
asg11
(lp214
VUser
p215
aVpokrovskiy.a@gmail.com
p216
aVProp
p217
aL14001L
asg16
Nsg17
(dp218
g19
(g11
(lp219
VUser
p220
aVpokrovskiy.a@gmail.com
p221
atp222
sg24
Vsimple
p223
sg26
V\u041e.\u0421.
p224
sg28
Nssa(dp225
g7
(lp226
VUser
p227
aVsolution@boomst.ru
p228
asg11
(lp229
VUser
p230
aVsolution@boomst.ru
p231
aVProp
p232
aL2001L
asg16
Nsg17
(dp233
g19
(g11
(lp234
VUser
p235
aVsolution@boomst.ru
p236
atp237
sg24
Vsimple
p238
sg26
V\u0432\u0440\u0435\u043c\u044f
p239
sg28
Nssa(dp240
g7
(lp241
VUser
p242
aVwind29121982@gmail.com
p243
asg11
(lp244
VUser
p245
aVwind29121982@gmail.com
p246
aVProp
p247
aL5001L
asg16
Nsg17
(dp248
g19
(g11
(lp249
VUser
p250
aVwind29121982@gmail.com
p251
atp252
sg24
Vcomplex
p253
sg26
Vpokerth
p254
sg28
V\u0418\u0433\u0440\u0430 "\u041f\u043e\u043a\u0435\u0440" (\u0442\u0435\u0445\u0430\u0441\u0441\u043a\u0438\u0439 \u0445\u043e\u043b\u0434\u0435\u043c)
p255
ssas.
