(dp1
S'entities'
p2
(lp3
(dp4
S'fields'
p5
(dp6
S'url'
p7
Vhttp://rp5.ru/\u041f\u043e\u0433\u043e\u0434\u0430_\u0432_\u0417\u0435\u043b\u0435\u043d\u043e\u0433\u043e\u0440\u0441\u043a\u0435,_\u0421\u0430\u043d\u043a\u0442-\u041f\u0435\u0442\u0435\u0440\u0431\u0443\u0440\u0433
p8
sS'id'
p9
L3328L
sS'name'
p10
V\u0417\u0435\u043b\u0435\u043d\u043e\u0433\u043e\u0440\u0441\u043a
p11
sS'archive_url'
p12
Vhttp://rp5.ru/\u0410\u0440\u0445\u0438\u0432_\u043f\u043e\u0433\u043e\u0434\u044b_\u0432_\u041e\u0437\u0435\u0440\u043a\u0430\u0445
p13
ssS'keyname'
p14
Vid_3328
p15
sS'parent'
p16
NsS'key'
p17
(lp18
VResidence
p19
aVid_3328
p20
asa(dp21
g5
(dp22
g7
Vhttp://rp5.ru/\u041f\u043e\u0433\u043e\u0434\u0430_\u0432_\u0421\u0430\u043d\u043a\u0442-\u041f\u0435\u0442\u0435\u0440\u0431\u0443\u0440\u0433\u0435
p23
sg9
L7285L
sg10
V\u0421\u0430\u043d\u043a\u0442-\u041f\u0435\u0442\u0435\u0440\u0431\u0443\u0440\u0433
p24
sg12
Vhttp://rp5.ru/\u0410\u0440\u0445\u0438\u0432_\u043f\u043e\u0433\u043e\u0434\u044b_\u0432_\u0421\u0430\u043d\u043a\u0442-\u041f\u0435\u0442\u0435\u0440\u0431\u0443\u0440\u0433\u0435
p25
ssg14
Vid_7285
p26
sg16
Nsg17
(lp27
VResidence
p28
aVid_7285
p29
asa(dp30
g5
(dp31
g7
Vhttp://rp5.ru/\u041f\u043e\u0433\u043e\u0434\u0430_\u0432\u043e_\u0424\u0440\u044f\u0437\u0438\u043d\u043e,_\u0424\u0440\u044f\u0437\u0438\u043d\u043e
p32
sg9
L8717L
sg10
V\u0424\u0440\u044f\u0437\u0438\u043d\u043e
p33
sg12
Vhttp://rp5.ru/\u0410\u0440\u0445\u0438\u0432_\u043f\u043e\u0433\u043e\u0434\u044b_\u0432_\u041c\u043e\u0441\u043a\u0432\u0435_(\u0412\u0412\u0426)
p34
ssg14
Vid_8717
p35
sg16
Nsg17
(lp36
VResidence
p37
aVid_8717
p38
asa(dp39
g5
(dp40
g7
Vhttp://rp5.ru/\u041f\u043e\u0433\u043e\u0434\u0430_\u0432_\u0421\u0430\u043d\u043a\u0442-\u041f\u0435\u0442\u0435\u0440\u0431\u0443\u0440\u0433\u0435_(\u0441\u0435\u0432-\u0432\u043e\u0441\u0442\u043e\u043a)
p41
sg9
L9485L
sg10
V\u0421\u0430\u043d\u043a\u0442-\u041f\u0435\u0442\u0435\u0440\u0431\u0443\u0440\u0433 (\u0441\u0435\u0432\u0435\u0440\u043e-\u0432\u043e\u0441\u0442\u043e\u043a)
p42
sg12
Vhttp://rp5.ru/\u0410\u0440\u0445\u0438\u0432_\u043f\u043e\u0433\u043e\u0434\u044b_\u0432_\u0421\u0430\u043d\u043a\u0442-\u041f\u0435\u0442\u0435\u0440\u0431\u0443\u0440\u0433\u0435
p43
ssg14
Vid_9485
p44
sg16
Nsg17
(lp45
VResidence
p46
aVid_9485
p47
asasS'model'
p48
VResidence
p49
s.