(dp1
S'entities'
p2
(lp3
(dp4
S'keyname'
p5
VVPKulesh_20120101
p6
sS'key'
p7
(lp8
VUser
p9
aVVPKulesh@gmail.com
p10
aVUserTrend
p11
aVVPKulesh_20120101
p12
asS'fields'
p13
(dp14
S'item6002'
p15
L13438L
sS'item9002'
p16
F3.7999999999999998
sS'item8002'
p17
F1629.8099999999999
sS'item2002'
p18
L0L
sS'item11002'
p19
L0L
sS'item7001'
p20
L5L
sS'item4002'
p21
L1L
sS'date'
p22
cdatetime
date
p23
(S'\x07\xdc\x01\x01'
tRp24
sS'item7002'
p25
F41.671399999999998
sS'user'
p26
(g7
(lp27
VUser
p28
aVVPKulesh@gmail.com
p29
atp30
sS'commoncitydata_key'
p31
NssS'parent'
p32
(lp33
VUser
p34
aVVPKulesh@gmail.com
p35
asa(dp36
g5
VVPKulesh_20120102
p37
sg7
(lp38
VUser
p39
aVVPKulesh@gmail.com
p40
aVUserTrend
p41
aVVPKulesh_20120102
p42
asg13
(dp43
g15
L13398L
sg16
F-5.5
sg18
L0L
sg19
L4L
sg20
L4L
sg21
L8L
sg22
g23
(S'\x07\xdc\x01\x02'
tRp44
sg26
(g7
(lp45
VUser
p46
aVVPKulesh@gmail.com
p47
atp48
sg31
Nssg32
(lp49
VUser
p50
aVVPKulesh@gmail.com
p51
asa(dp52
g5
VVPKulesh_20120103
p53
sg7
(lp54
VUser
p55
aVVPKulesh@gmail.com
p56
aVUserTrend
p57
aVVPKulesh_20120103
p58
asg13
(dp59
g15
L13419L
sg16
F-14
sg18
L1L
sg19
L3L
sg20
L8L
sg21
L5L
sg22
g23
(S'\x07\xdc\x01\x03'
tRp60
sg26
(g7
(lp61
VUser
p62
aVVPKulesh@gmail.com
p63
atp64
sg31
Nssg32
(lp65
VUser
p66
aVVPKulesh@gmail.com
p67
asa(dp68
g5
VVPKulesh_20120104
p69
sg7
(lp70
VUser
p71
aVVPKulesh@gmail.com
p72
aVUserTrend
p73
aVVPKulesh_20120104
p74
asg13
(dp75
g15
L13430L
sg16
F-6.4000000000000004
sg18
L0L
sg19
L6L
sg20
L5L
sg21
L8L
sg22
g23
(S'\x07\xdc\x01\x04'
tRp76
sg26
(g7
(lp77
VUser
p78
aVVPKulesh@gmail.com
p79
atp80
sg31
Nssg32
(lp81
VUser
p82
aVVPKulesh@gmail.com
p83
asa(dp84
g5
VVPKulesh_20120105
p85
sg7
(lp86
VUser
p87
aVVPKulesh@gmail.com
p88
aVUserTrend
p89
aVVPKulesh_20120105
p90
asg13
(dp91
g15
L13439L
sg16
F0.10000000000000001
sg18
L2L
sg19
L8L
sg20
L5L
sg21
L1L
sg22
g23
(S'\x07\xdc\x01\x05'
tRp92
sg26
(g7
(lp93
VUser
p94
aVVPKulesh@gmail.com
p95
atp96
sg31
Nssg32
(lp97
VUser
p98
aVVPKulesh@gmail.com
p99
asa(dp100
g5
VVPKulesh_20120106
p101
sg7
(lp102
VUser
p103
aVVPKulesh@gmail.com
p104
aVUserTrend
p105
aVVPKulesh_20120106
p106
asg13
(dp107
g15
L13467L
sg16
F5.2000000000000002
sg18
L3L
sg19
L6L
sg20
L3L
sg21
L1L
sg22
g23
(S'\x07\xdc\x01\x06'
tRp108
sg26
(g7
(lp109
VUser
p110
aVVPKulesh@gmail.com
p111
atp112
sg31
Nssg32
(lp113
VUser
p114
aVVPKulesh@gmail.com
p115
asa(dp116
g5
VVPKulesh_20120107
p117
sg7
(lp118
VUser
p119
aVVPKulesh@gmail.com
p120
aVUserTrend
p121
aVVPKulesh_20120107
p122
asg13
(dp123
g15
L13467L
sg16
F4.0999999999999996
sg18
L1L
sg19
L10L
sg20
L5L
sg21
L1L
sg22
g23
(S'\x07\xdc\x01\x07'
tRp124
sg26
(g7
(lp125
VUser
p126
aVVPKulesh@gmail.com
p127
atp128
sg31
Nssg32
(lp129
VUser
p130
aVVPKulesh@gmail.com
p131
asa(dp132
g5
VVPKulesh_20120108
p133
sg7
(lp134
VUser
p135
aVVPKulesh@gmail.com
p136
aVUserTrend
p137
aVVPKulesh_20120108
p138
asg13
(dp139
g15
L13473L
sg16
F-2.3999999999999999
sg18
L4L
sg19
L1L
sg20
L4L
sg21
L0L
sg22
g23
(S'\x07\xdc\x01\x08'
tRp140
sg26
(g7
(lp141
VUser
p142
aVVPKulesh@gmail.com
p143
atp144
sg31
Nssg32
(lp145
VUser
p146
aVVPKulesh@gmail.com
p147
asa(dp148
g5
VVPKulesh_20120109
p149
sg7
(lp150
VUser
p151
aVVPKulesh@gmail.com
p152
aVUserTrend
p153
aVVPKulesh_20120109
p154
asg13
(dp155
g15
L13475L
sg16
F0.90000000000000002
sg18
L1L
sg19
L9L
sg20
L6L
sg21
L10L
sg22
g23
(S'\x07\xdc\x01\t'
tRp156
sg26
(g7
(lp157
VUser
p158
aVVPKulesh@gmail.com
p159
atp160
sg31
Nssg32
(lp161
VUser
p162
aVVPKulesh@gmail.com
p163
asa(dp164
g5
VVPKulesh_20120110
p165
sg7
(lp166
VUser
p167
aVVPKulesh@gmail.com
p168
aVUserTrend
p169
aVVPKulesh_20120110
p170
asg13
(dp171
g15
L13474L
sg16
F3.5
sg18
L2L
sg19
L6L
sg20
L5L
sg21
L9L
sg22
g23
(S'\x07\xdc\x01\n'
tRp172
sg26
(g7
(lp173
VUser
p174
aVVPKulesh@gmail.com
p175
atp176
sg31
Nssg32
(lp177
VUser
p178
aVVPKulesh@gmail.com
p179
asa(dp180
g5
VVPKulesh_20120111
p181
sg7
(lp182
VUser
p183
aVVPKulesh@gmail.com
p184
aVUserTrend
p185
aVVPKulesh_20120111
p186
asg13
(dp187
g15
L13531L
sg16
F3.8999999999999999
sg17
F1667.25
sg18
L2L
sg19
L4L
sg20
L4L
sg21
L3L
sg22
g23
(S'\x07\xdc\x01\x0b'
tRp188
sg25
F40.759099999999997
sg26
(g7
(lp189
VUser
p190
aVVPKulesh@gmail.com
p191
atp192
sg31
Nssg32
(lp193
VUser
p194
aVVPKulesh@gmail.com
p195
asa(dp196
g5
VVPKulesh_20120112
p197
sg7
(lp198
VUser
p199
aVVPKulesh@gmail.com
p200
aVUserTrend
p201
aVVPKulesh_20120112
p202
asg13
(dp203
g15
L13553L
sg16
F3.2999999999999998
sg17
F1671.8699999999999
sg18
L1L
sg19
L4L
sg20
L5L
sg21
L1L
sg22
g23
(S'\x07\xdc\x01\x0c'
tRp204
sg25
F40.406100000000002
sg26
(g7
(lp205
VUser
p206
aVVPKulesh@gmail.com
p207
atp208
sg31
Nssg32
(lp209
VUser
p210
aVVPKulesh@gmail.com
p211
asa(dp212
g5
VVPKulesh_20120113
p213
sg7
(lp214
VUser
p215
aVVPKulesh@gmail.com
p216
aVUserTrend
p217
aVVPKulesh_20120113
p218
asg13
(dp219
g15
L13554L
sg16
F-1.7
sg17
F1683.1700000000001
sg18
L2L
sg19
L3L
sg20
L5L
sg21
L0L
sg22
g23
(S'\x07\xdc\x01\r'
tRp220
sg25
F40.285200000000003
sg26
(g7
(lp221
VUser
p222
aVVPKulesh@gmail.com
p223
atp224
sg31
Nssg32
(lp225
VUser
p226
aVVPKulesh@gmail.com
p227
asa(dp228
g5
VVPKulesh_20120114
p229
sg7
(lp230
VUser
p231
aVVPKulesh@gmail.com
p232
aVUserTrend
p233
aVVPKulesh_20120114
p234
asg13
(dp235
g15
L13577L
sg16
F-11.300000000000001
sg17
F1667.3099999999999
sg18
L2L
sg19
L1L
sg20
L4L
sg21
L5L
sg22
g23
(S'\x07\xdc\x01\x0e'
tRp236
sg25
F40.618899999999996
sg26
(g7
(lp237
VUser
p238
aVVPKulesh@gmail.com
p239
atp240
sg31
Nssg32
(lp241
VUser
p242
aVVPKulesh@gmail.com
p243
asa(dp244
g5
VVPKulesh_20120115
p245
sg7
(lp246
VUser
p247
aVVPKulesh@gmail.com
p248
aVUserTrend
p249
aVVPKulesh_20120115
p250
asg13
(dp251
g15
L13577L
sg16
F-11.4
sg18
L0L
sg19
L7L
sg20
L2L
sg21
L4L
sg22
g23
(S'\x07\xdc\x01\x0f'
tRp252
sg26
(g7
(lp253
VUser
p254
aVVPKulesh@gmail.com
p255
atp256
sg31
Nssg32
(lp257
VUser
p258
aVVPKulesh@gmail.com
p259
asa(dp260
g5
VVPKulesh_20120116
p261
sg7
(lp262
VUser
p263
aVVPKulesh@gmail.com
p264
aVUserTrend
p265
aVVPKulesh_20120116
p266
asg13
(dp267
g15
L13548L
sg16
F-1.3999999999999999
sg18
L1L
sg19
L6L
sg20
L4L
sg21
L4L
sg22
g23
(S'\x07\xdc\x01\x10'
tRp268
sg26
(g7
(lp269
VUser
p270
aVVPKulesh@gmail.com
p271
atp272
sg31
Nssg32
(lp273
VUser
p274
aVVPKulesh@gmail.com
p275
asa(dp276
g5
VVPKulesh_20120117
p277
sg7
(lp278
VUser
p279
aVVPKulesh@gmail.com
p280
aVUserTrend
p281
aVVPKulesh_20120117
p282
asg13
(dp283
g15
L13563L
sg16
F3.2000000000000002
sg17
F1687.4000000000001
sg18
L0L
sg19
L8L
sg20
L5L
sg21
L3L
sg22
g23
(S'\x07\xdc\x01\x11'
tRp284
sg25
F40.3842
sg26
(g7
(lp285
VUser
p286
aVVPKulesh@gmail.com
p287
atp288
sg31
Nssg32
(lp289
VUser
p290
aVVPKulesh@gmail.com
p291
asa(dp292
g5
VVPKulesh_20120118
p293
sg7
(lp294
VUser
p295
aVVPKulesh@gmail.com
p296
aVUserTrend
p297
aVVPKulesh_20120118
p298
asg13
(dp299
g15
L13567L
sg16
F-5.9000000000000004
sg17
F1685.5599999999999
sg18
L1L
sg19
L9L
sg20
L4L
sg21
L7L
sg22
g23
(S'\x07\xdc\x01\x12'
tRp300
sg25
F40.168799999999997
sg26
(g7
(lp301
VUser
p302
aVVPKulesh@gmail.com
p303
atp304
sg31
Nssg32
(lp305
VUser
p306
aVVPKulesh@gmail.com
p307
asa(dp308
g5
VVPKulesh_20120119
p309
sg7
(lp310
VUser
p311
aVVPKulesh@gmail.com
p312
aVUserTrend
p313
aVVPKulesh_20120119
p314
asg13
(dp315
g15
L13583L
sg16
F-6.2999999999999998
sg17
F1680.4000000000001
sg18
L1L
sS'item13002'
p316
L5L
sg19
L8L
sg21
L2L
sg22
g23
(S'\x07\xdc\x01\x13'
tRp317
sg25
F40.261200000000002
sg26
(g7
(lp318
VUser
p319
aVVPKulesh@gmail.com
p320
atp321
sg31
Nssg32
(lp322
VUser
p323
aVVPKulesh@gmail.com
p324
asa(dp325
g5
VVPKulesh_20120120
p326
sg7
(lp327
VUser
p328
aVVPKulesh@gmail.com
p329
aVUserTrend
p330
aVVPKulesh_20120120
p331
asg13
(dp332
g15
L13594L
sg16
F-9.0999999999999996
sg17
F1684.02
sg18
L4L
sg316
L5L
sg19
L7L
sg21
L4L
sg22
g23
(S'\x07\xdc\x01\x14'
tRp333
sg25
F40.477200000000003
sg26
(g7
(lp334
VUser
p335
aVVPKulesh@gmail.com
p336
atp337
sg31
Nssg32
(lp338
VUser
p339
aVVPKulesh@gmail.com
p340
asa(dp341
g5
VVPKulesh_20120121
p342
sg7
(lp343
VUser
p344
aVVPKulesh@gmail.com
p345
aVUserTrend
p346
aVVPKulesh_20120121
p347
asg13
(dp348
g15
L13605L
sg16
F-6.2999999999999998
sg17
F1655.76
sg18
L1L
sg316
L4L
sg19
L10L
sg21
L0L
sg22
g23
(S'\x07\xdc\x01\x15'
tRp349
sg25
F40.5867
sg26
(g7
(lp350
VUser
p351
aVVPKulesh@gmail.com
p352
atp353
sg31
Nssg32
(lp354
VUser
p355
aVVPKulesh@gmail.com
p356
asa(dp357
g5
VVPKulesh_20120122
p358
sg7
(lp359
VUser
p360
aVVPKulesh@gmail.com
p361
aVUserTrend
p362
aVVPKulesh_20120122
p363
asg13
(dp364
g15
L13611L
sg16
F-3.6000000000000001
sg18
L0L
sg316
L6L
sg19
L8L
sg21
L6L
sg22
g23
(S'\x07\xdc\x01\x16'
tRp365
sg26
(g7
(lp366
VUser
p367
aVVPKulesh@gmail.com
p368
atp369
sg31
Nssg32
(lp370
VUser
p371
aVVPKulesh@gmail.com
p372
asa(dp373
g5
VVPKulesh_20120123
p374
sg7
(lp375
VUser
p376
aVVPKulesh@gmail.com
p377
aVUserTrend
p378
aVVPKulesh_20120123
p379
asg13
(dp380
g15
L13616L
sg16
F4.7999999999999998
sg18
L1L
sg316
L6L
sg19
L1L
sg21
L0L
sg22
g23
(S'\x07\xdc\x01\x17'
tRp381
sg26
(g7
(lp382
VUser
p383
aVVPKulesh@gmail.com
p384
atp385
sg31
Nssg32
(lp386
VUser
p387
aVVPKulesh@gmail.com
p388
asa(dp389
g5
VVPKulesh_20120124
p390
sg7
(lp391
VUser
p392
aVVPKulesh@gmail.com
p393
aVUserTrend
p394
aVVPKulesh_20120124
p395
asg13
(dp396
g15
L13633L
sg16
F0.20000000000000001
sg17
F1687.3299999999999
sg18
L0L
sg316
L6L
sg19
L6L
sg21
L6L
sg22
g23
(S'\x07\xdc\x01\x18'
tRp397
sg25
F40.406399999999998
sg26
(g7
(lp398
VUser
p399
aVVPKulesh@gmail.com
p400
atp401
sg31
Nssg32
(lp402
VUser
p403
aVVPKulesh@gmail.com
p404
asa(dp405
g5
VVPKulesh_20120125
p406
sg7
(lp407
VUser
p408
aVVPKulesh@gmail.com
p409
aVUserTrend
p410
aVVPKulesh_20120125
p411
asg13
(dp412
g15
L13645L
sg16
F-1.5
sg17
F1656.75
sg18
L1L
sg316
L7L
sg19
L4L
sg21
L0L
sg22
g23
(S'\x07\xdc\x01\x19'
tRp413
sg25
F40.187199999999997
sg26
(g7
(lp414
VUser
p415
aVVPKulesh@gmail.com
p416
atp417
sg31
Nssg32
(lp418
VUser
p419
aVVPKulesh@gmail.com
p420
asa(dp421
g5
VVPKulesh_20120126
p422
sg7
(lp423
VUser
p424
aVVPKulesh@gmail.com
p425
aVUserTrend
p426
aVVPKulesh_20120126
p427
asg13
(dp428
g15
L13656L
sg16
F0.10000000000000001
sg17
F1635.72
sg18
L1L
sg316
L8L
sg19
L9L
sg21
L7L
sg22
g23
(S'\x07\xdc\x01\x1a'
tRp429
sg25
F39.9499
sg26
(g7
(lp430
VUser
p431
aVVPKulesh@gmail.com
p432
atp433
sg31
Nssg32
(lp434
VUser
p435
aVVPKulesh@gmail.com
p436
asa(dp437
g5
VVPKulesh_20120127
p438
sg7
(lp439
VUser
p440
aVVPKulesh@gmail.com
p441
aVUserTrend
p442
aVVPKulesh_20120127
p443
asg13
(dp444
g15
L13660L
sg16
F1.3999999999999999
sg17
F1672.05
sg18
L0L
sg316
L4L
sg19
L4L
sg21
L5L
sg22
g23
(S'\x07\xdc\x01\x1b'
tRp445
sg25
F39.8384
sg26
(g7
(lp446
VUser
p447
aVVPKulesh@gmail.com
p448
atp449
sg31
Nssg32
(lp450
VUser
p451
aVVPKulesh@gmail.com
p452
asa(dp453
g5
VVPKulesh_20120128
p454
sg7
(lp455
VUser
p456
aVVPKulesh@gmail.com
p457
aVUserTrend
p458
aVVPKulesh_20120128
p459
asg13
(dp460
g15
L13677L
sg16
F-0.40000000000000002
sg17
F1680.98
sg18
L2L
sg316
L3L
sg19
L0L
sg21
L10L
sg22
g23
(S'\x07\xdc\x01\x1c'
tRp461
sg25
F39.784100000000002
sg26
(g7
(lp462
VUser
p463
aVVPKulesh@gmail.com
p464
atp465
sg31
Nssg32
(lp466
VUser
p467
aVVPKulesh@gmail.com
p468
asa(dp469
g5
VVPKulesh_20120129
p470
sg7
(lp471
VUser
p472
aVVPKulesh@gmail.com
p473
aVUserTrend
p474
aVVPKulesh_20120129
p475
asg13
(dp476
g15
L13678L
sg16
F-2.6000000000000001
sg18
L0L
sg316
L4L
sg19
L8L
sg21
L4L
sg22
g23
(S'\x07\xdc\x01\x1d'
tRp477
sg26
(g7
(lp478
VUser
p479
aVVPKulesh@gmail.com
p480
atp481
sg31
Nssg32
(lp482
VUser
p483
aVVPKulesh@gmail.com
p484
asa(dp485
g5
VVPKulesh_20120130
p486
sg7
(lp487
VUser
p488
aVVPKulesh@gmail.com
p489
aVUserTrend
p490
aVVPKulesh_20120130
p491
asg13
(dp492
g15
L13653L
sg16
F-2.7000000000000002
sg18
L0L
sg316
L5L
sg19
L4L
sg21
L1L
sg22
g23
(S'\x07\xdc\x01\x1e'
tRp493
sg26
(g7
(lp494
VUser
p495
aVVPKulesh@gmail.com
p496
atp497
sg31
Nssg32
(lp498
VUser
p499
aVVPKulesh@gmail.com
p500
asa(dp501
g5
VVPKulesh_20120131
p502
sg7
(lp503
VUser
p504
aVVPKulesh@gmail.com
p505
aVUserTrend
p506
aVVPKulesh_20120131
p507
asg13
(dp508
g15
L13674L
sg16
F4.9000000000000004
sg17
F1679.6300000000001
sg18
L1L
sg316
L6L
sg19
L5L
sg21
L1L
sg22
g23
(S'\x07\xdc\x01\x1f'
tRp509
sg25
F39.969099999999997
sg26
(g7
(lp510
VUser
p511
aVVPKulesh@gmail.com
p512
atp513
sg31
Nssg32
(lp514
VUser
p515
aVVPKulesh@gmail.com
p516
asa(dp517
g5
VVPKulesh_20120201
p518
sg7
(lp519
VUser
p520
aVVPKulesh@gmail.com
p521
aVUserTrend
p522
aVVPKulesh_20120201
p523
asg13
(dp524
g15
L13688L
sg16
F5.2999999999999998
sg17
F1693.8299999999999
sg18
L1L
sg316
L4L
sg19
L0L
sg21
L1L
sg22
g23
(S'\x07\xdc\x02\x01'
tRp525
sg25
F39.967799999999997
sg26
(g7
(lp526
VUser
p527
aVVPKulesh@gmail.com
p528
atp529
sg31
Nssg32
(lp530
VUser
p531
aVVPKulesh@gmail.com
p532
asa(dp533
g5
VVPKulesh_20120202
p534
sg7
(lp535
VUser
p536
aVVPKulesh@gmail.com
p537
aVUserTrend
p538
aVVPKulesh_20120202
p539
asg13
(dp540
g15
L13728L
sg16
F-0.5
sg17
F1704.9300000000001
sg18
L0L
sg316
L3L
sg19
L3L
sg21
L6L
sg22
g23
(S'\x07\xdc\x02\x02'
tRp541
sg25
F39.677700000000002
sg26
(g7
(lp542
VUser
p543
aVVPKulesh@gmail.com
p544
atp545
sg31
Nssg32
(lp546
VUser
p547
aVVPKulesh@gmail.com
p548
asa(dp549
g5
VVPKulesh_20120203
p550
sg7
(lp551
VUser
p552
aVVPKulesh@gmail.com
p553
aVUserTrend
p554
aVVPKulesh_20120203
p555
asg13
(dp556
g15
L13740L
sg16
F0.5
sg17
F1695.9200000000001
sg18
L2L
sg316
L4L
sg19
L5L
sg21
L1L
sg22
g23
(S'\x07\xdc\x02\x03'
tRp557
sg25
F39.766399999999997
sg26
(g7
(lp558
VUser
p559
aVVPKulesh@gmail.com
p560
atp561
sg31
Nssg32
(lp562
VUser
p563
aVVPKulesh@gmail.com
p564
asa(dp565
g5
VVPKulesh_20120204
p566
sg7
(lp567
VUser
p568
aVVPKulesh@gmail.com
p569
aVUserTrend
p570
aVVPKulesh_20120204
p571
asg13
(dp572
g15
L13747L
sg16
F-0.10000000000000001
sg17
F1710.5699999999999
sg18
L0L
sg316
L4L
sg19
L7L
sg21
L1L
sg22
g23
(S'\x07\xdc\x02\x04'
tRp573
sg25
F39.7425
sg26
(g7
(lp574
VUser
p575
aVVPKulesh@gmail.com
p576
atp577
sg31
Nssg32
(lp578
VUser
p579
aVVPKulesh@gmail.com
p580
asa(dp581
g5
VVPKulesh_20120205
p582
sg7
(lp583
VUser
p584
aVVPKulesh@gmail.com
p585
aVUserTrend
p586
aVVPKulesh_20120205
p587
asg13
(dp588
g15
L13747L
sg16
F1.3
sg18
L0L
sg316
L6L
sg19
L4L
sg21
L7L
sg22
g23
(S'\x07\xdc\x02\x05'
tRp589
sg26
(g7
(lp590
VUser
p591
aVVPKulesh@gmail.com
p592
atp593
sg31
Nssg32
(lp594
VUser
p595
aVVPKulesh@gmail.com
p596
asa(dp597
g5
VVPKulesh_20120206
p598
sg7
(lp599
VUser
p600
aVVPKulesh@gmail.com
p601
aVUserTrend
p602
aVVPKulesh_20120206
p603
asg13
(dp604
g15
L13731L
sg16
F3.6000000000000001
sg18
L2L
sg316
L6L
sg19
L2L
sg21
L10L
sg22
g23
(S'\x07\xdc\x02\x06'
tRp605
sg26
(g7
(lp606
VUser
p607
aVVPKulesh@gmail.com
p608
atp609
sg31
Nssg32
(lp610
VUser
p611
aVVPKulesh@gmail.com
p612
asa(dp613
g5
VVPKulesh_20120207
p614
sg7
(lp615
VUser
p616
aVVPKulesh@gmail.com
p617
aVUserTrend
p618
aVVPKulesh_20120207
p619
asg13
(dp620
g15
L13746L
sg16
F-2.2999999999999998
sg17
F1668.9100000000001
sg18
L0L
sg316
L6L
sg19
L7L
sg21
L4L
sg22
g23
(S'\x07\xdc\x02\x07'
tRp621
sg25
F39.5137
sg26
(g7
(lp622
VUser
p623
aVVPKulesh@gmail.com
p624
atp625
sg31
Nssg32
(lp626
VUser
p627
aVVPKulesh@gmail.com
p628
asa(dp629
g5
VVPKulesh_20120208
p630
sg7
(lp631
VUser
p632
aVVPKulesh@gmail.com
p633
aVUserTrend
p634
aVVPKulesh_20120208
p635
asg13
(dp636
g15
L13744L
sg16
F-2.6000000000000001
sg17
F1663.79
sg18
L3L
sg316
L5L
sg19
L10L
sg21
L0L
sg22
g23
(S'\x07\xdc\x02\x08'
tRp637
sg25
F39.459200000000003
sg26
(g7
(lp638
VUser
p639
aVVPKulesh@gmail.com
p640
atp641
sg31
Nssg32
(lp642
VUser
p643
aVVPKulesh@gmail.com
p644
asa(dp645
g5
VVPKulesh_20120209
p646
sg7
(lp647
VUser
p648
aVVPKulesh@gmail.com
p649
aVUserTrend
p650
aVVPKulesh_20120209
p651
asg13
(dp652
g15
L13785L
sg16
F0.5
sg17
F1663.96
sg18
L0L
sg316
L7L
sg19
L8L
sg21
L9L
sg22
g23
(S'\x07\xdc\x02\t'
tRp653
sg25
F39.411499999999997
sg26
(g7
(lp654
VUser
p655
aVVPKulesh@gmail.com
p656
atp657
sg31
Nssg32
(lp658
VUser
p659
aVVPKulesh@gmail.com
p660
asa(dp661
g5
VVPKulesh_20120210
p662
sg7
(lp663
VUser
p664
aVVPKulesh@gmail.com
p665
aVUserTrend
p666
aVVPKulesh_20120210
p667
asg13
(dp668
g15
L13791L
sg16
F-3.3999999999999999
sg17
F1653.6600000000001
sg18
L2L
sg316
L4L
sg19
L1L
sg21
L0L
sg22
g23
(S'\x07\xdc\x02\n'
tRp669
sg25
F39.476700000000001
sg26
(g7
(lp670
VUser
p671
aVVPKulesh@gmail.com
p672
atp673
sg31
Nssg32
(lp674
VUser
p675
aVVPKulesh@gmail.com
p676
asa(dp677
g5
VVPKulesh_20120211
p678
sg7
(lp679
VUser
p680
aVVPKulesh@gmail.com
p681
aVUserTrend
p682
aVVPKulesh_20120211
p683
asg13
(dp684
g15
L13811L
sg16
F-10.5
sg17
F1648.7
sg18
L1L
sg316
L3L
sg19
L10L
sg21
L1L
sg22
g23
(S'\x07\xdc\x02\x0b'
tRp685
sg25
F39.6282
sg26
(g7
(lp686
VUser
p687
aVVPKulesh@gmail.com
p688
atp689
sg31
Nssg32
(lp690
VUser
p691
aVVPKulesh@gmail.com
p692
asa(dp693
g5
VVPKulesh_20120212
p694
sg7
(lp695
VUser
p696
aVVPKulesh@gmail.com
p697
aVUserTrend
p698
aVVPKulesh_20120212
p699
asg13
(dp700
g15
L13811L
sg16
F-6.2000000000000002
sg18
L1L
sg316
L4L
sg19
L7L
sg21
L4L
sg22
g23
(S'\x07\xdc\x02\x0c'
tRp701
sg26
(g7
(lp702
VUser
p703
aVVPKulesh@gmail.com
p704
atp705
sg31
Nssg32
(lp706
VUser
p707
aVVPKulesh@gmail.com
p708
asa(dp709
g5
VVPKulesh_20120213
p710
sg7
(lp711
VUser
p712
aVVPKulesh@gmail.com
p713
aVUserTrend
p714
aVVPKulesh_20120213
p715
asg13
(dp716
g15
L13798L
sg16
F-1.8999999999999999
sg18
L1L
sg316
L4L
sg19
L8L
sg21
L2L
sg22
g23
(S'\x07\xdc\x02\r'
tRp717
sg26
(g7
(lp718
VUser
p719
aVVPKulesh@gmail.com
p720
atp721
sg31
Nssg32
(lp722
VUser
p723
aVVPKulesh@gmail.com
p724
asa(dp725
g5
VVPKulesh_20120214
p726
sg7
(lp727
VUser
p728
aVVPKulesh@gmail.com
p729
aVUserTrend
p730
aVVPKulesh_20120214
p731
asg13
(dp732
g15
L13808L
sg16
F-0.20000000000000001
sg17
F1659.47
sg18
L0L
sg316
L4L
sg19
L0L
sg21
L8L
sg22
g23
(S'\x07\xdc\x02\x0e'
tRp733
sg25
F39.603700000000003
sg26
(g7
(lp734
VUser
p735
aVVPKulesh@gmail.com
p736
atp737
sg31
Nssg32
(lp738
VUser
p739
aVVPKulesh@gmail.com
p740
asa(dp741
g5
VVPKulesh_20120215
p742
sg7
(lp743
VUser
p744
aVVPKulesh@gmail.com
p745
aVUserTrend
p746
aVVPKulesh_20120215
p747
asg13
(dp748
g15
L13834L
sg16
F1.6000000000000001
sg17
F1664.74
sg18
L2L
sg316
L3L
sg19
L0L
sg21
L10L
sg22
g23
(S'\x07\xdc\x02\x0f'
tRp749
sg25
F39.543100000000003
sg26
(g7
(lp750
VUser
p751
aVVPKulesh@gmail.com
p752
atp753
sg31
Nssg32
(lp754
VUser
p755
aVVPKulesh@gmail.com
p756
asa(dp757
g5
VVPKulesh_20120216
p758
sg7
(lp759
VUser
p760
aVVPKulesh@gmail.com
p761
aVUserTrend
p762
aVVPKulesh_20120216
p763
asg13
(dp764
g15
L13822L
sg16
F2.8999999999999999
sg17
F1661.1800000000001
sg18
L4L
sg316
L2L
sg19
L6L
sg21
L7L
sg22
g23
(S'\x07\xdc\x02\x10'
tRp765
sg25
F39.4572
sg26
(g7
(lp766
VUser
p767
aVVPKulesh@gmail.com
p768
atp769
sg31
Nssg32
(lp770
VUser
p771
aVVPKulesh@gmail.com
p772
asa(dp773
g5
VVPKulesh_20120217
p774
sg7
(lp775
VUser
p776
aVVPKulesh@gmail.com
p777
aVUserTrend
p778
aVVPKulesh_20120217
p779
asg13
(dp780
g15
L13840L
sg16
F1.2
sg17
F1666.6900000000001
sg18
L1L
sg316
L2L
sg19
L9L
sg21
L3L
sg22
g23
(S'\x07\xdc\x02\x11'
tRp781
sg25
F39.318100000000001
sg26
(g7
(lp782
VUser
p783
aVVPKulesh@gmail.com
p784
atp785
sg31
Nssg32
(lp786
VUser
p787
aVVPKulesh@gmail.com
p788
asa(dp789
g5
VVPKulesh_20120218
p790
sg7
(lp791
VUser
p792
aVVPKulesh@gmail.com
p793
aVUserTrend
p794
aVVPKulesh_20120218
p795
asg13
(dp796
g15
L13860L
sg16
F-0.69999999999999996
sg17
F1670.45
sg18
L0L
sg316
L4L
sg19
L0L
sg21
L0L
sg22
g23
(S'\x07\xdc\x02\x12'
tRp797
sg25
F39.384599999999999
sg26
(g7
(lp798
VUser
p799
aVVPKulesh@gmail.com
p800
atp801
sg31
Nssg32
(lp802
VUser
p803
aVVPKulesh@gmail.com
p804
asa(dp805
g5
VVPKulesh_20120219
p806
sg7
(lp807
VUser
p808
aVVPKulesh@gmail.com
p809
aVUserTrend
p810
aVVPKulesh_20120219
p811
asg13
(dp812
g15
L13865L
sg16
F-3.7999999999999998
sg18
L1L
sg316
L5L
sg19
L10L
sg21
L0L
sg22
g23
(S'\x07\xdc\x02\x13'
tRp813
sg26
(g7
(lp814
VUser
p815
aVVPKulesh@gmail.com
p816
atp817
sg31
Nssg32
(lp818
VUser
p819
aVVPKulesh@gmail.com
p820
asa(dp821
g5
VVPKulesh_20120220
p822
sg7
(lp823
VUser
p824
aVVPKulesh@gmail.com
p825
aVUserTrend
p826
aVVPKulesh_20120220
p827
asg13
(dp828
g15
L13863L
sg16
F-2.7999999999999998
sg18
L5L
sg316
L4L
sg19
L7L
sg21
L1L
sg22
g23
(S'\x07\xdc\x02\x14'
tRp829
sg26
(g7
(lp830
VUser
p831
aVVPKulesh@gmail.com
p832
atp833
sg31
Nssg32
(lp834
VUser
p835
aVVPKulesh@gmail.com
p836
asa(dp837
g5
VVPKulesh_20120221
p838
sg7
(lp839
VUser
p840
aVVPKulesh@gmail.com
p841
aVUserTrend
p842
aVVPKulesh_20120221
p843
asg13
(dp844
g15
L13891L
sg16
F1.2
sg17
F1655.9400000000001
sg18
L1L
sg316
L2L
sg19
L5L
sg21
L9L
sg22
g23
(S'\x07\xdc\x02\x15'
tRp845
sg25
F39.331099999999999
sg26
(g7
(lp846
VUser
p847
aVVPKulesh@gmail.com
p848
atp849
sg31
Nssg32
(lp850
VUser
p851
aVVPKulesh@gmail.com
p852
asa(dp853
g5
VVPKulesh_20120222
p854
sg7
(lp855
VUser
p856
aVVPKulesh@gmail.com
p857
aVUserTrend
p858
aVVPKulesh_20120222
p859
asg13
(dp860
g15
L13904L
sg16
F3.2999999999999998
sg17
F1663.0699999999999
sg18
L0L
sg316
L4L
sg19
L8L
sg21
L9L
sg22
g23
(S'\x07\xdc\x02\x16'
tRp861
sg25
F39.523499999999999
sg26
(g7
(lp862
VUser
p863
aVVPKulesh@gmail.com
p864
atp865
sg31
Nssg32
(lp866
VUser
p867
aVVPKulesh@gmail.com
p868
asa(dp869
g5
VVPKulesh_20120223
p870
sg7
(lp871
VUser
p872
aVVPKulesh@gmail.com
p873
aVUserTrend
p874
aVVPKulesh_20120223
p875
asg13
(dp876
g15
L13897L
sg16
F2.8999999999999999
sg17
F1679.47
sg18
L2L
sg316
L7L
sg19
L8L
sg21
L8L
sg22
g23
(S'\x07\xdc\x02\x17'
tRp877
sg25
F39.4114
sg26
(g7
(lp878
VUser
p879
aVVPKulesh@gmail.com
p880
atp881
sg31
Nssg32
(lp882
VUser
p883
aVVPKulesh@gmail.com
p884
asa(dp885
g5
VVPKulesh_20120224
p886
sg7
(lp887
VUser
p888
aVVPKulesh@gmail.com
p889
aVUserTrend
p890
aVVPKulesh_20120224
p891
asg13
(dp892
g15
L13933L
sg16
F2.2999999999999998
sg18
L1L
sg316
L6L
sg19
L5L
sg21
L2L
sg22
g23
(S'\x07\xdc\x02\x18'
tRp893
sg26
(g7
(lp894
VUser
p895
aVVPKulesh@gmail.com
p896
atp897
sg31
Nssg32
(lp898
VUser
p899
aVVPKulesh@gmail.com
p900
asa(dp901
g5
VVPKulesh_20120225
p902
sg7
(lp903
VUser
p904
aVVPKulesh@gmail.com
p905
aVUserTrend
p906
aVVPKulesh_20120225
p907
asg13
(dp908
g15
L13939L
sg16
F-2.8999999999999999
sg17
F1683.9000000000001
sg18
L1L
sg316
L7L
sg19
L3L
sg21
L8L
sg22
g23
(S'\x07\xdc\x02\x19'
tRp909
sg25
F39.3645
sg26
(g7
(lp910
VUser
p911
aVVPKulesh@gmail.com
p912
atp913
sg31
Nssg32
(lp914
VUser
p915
aVVPKulesh@gmail.com
p916
asa(dp917
g5
VVPKulesh_20120226
p918
sg7
(lp919
VUser
p920
aVVPKulesh@gmail.com
p921
aVUserTrend
p922
aVVPKulesh_20120226
p923
asg13
(dp924
g15
L13939L
sg16
F-3.6000000000000001
sg18
L2L
sg316
L3L
sg19
L9L
sg21
L9L
sg22
g23
(S'\x07\xdc\x02\x1a'
tRp925
sg26
(g7
(lp926
VUser
p927
aVVPKulesh@gmail.com
p928
atp929
sg31
Nssg32
(lp930
VUser
p931
aVVPKulesh@gmail.com
p932
asa(dp933
g5
VVPKulesh_20120227
p934
sg7
(lp935
VUser
p936
aVVPKulesh@gmail.com
p937
aVUserTrend
p938
aVVPKulesh_20120227
p939
asg13
(dp940
g15
L13910L
sg16
F4.0999999999999996
sg18
L1L
sg316
L5L
sg19
L1L
sg21
L5L
sg22
g23
(S'\x07\xdc\x02\x1b'
tRp941
sg26
(g7
(lp942
VUser
p943
aVVPKulesh@gmail.com
p944
atp945
sg31
Nssg32
(lp946
VUser
p947
aVVPKulesh@gmail.com
p948
asa(dp949
g5
VVPKulesh_20120228
p950
sg7
(lp951
VUser
p952
aVVPKulesh@gmail.com
p953
aVUserTrend
p954
aVVPKulesh_20120228
p955
asg13
(dp956
g15
L13908L
sg16
F0.20000000000000001
sg17
F1652.8099999999999
sg18
L0L
sg316
L3L
sg19
L9L
sg21
L1L
sg22
g23
(S'\x07\xdc\x02\x1c'
tRp957
sg25
F39.151699999999998
sg26
(g7
(lp958
VUser
p959
aVVPKulesh@gmail.com
p960
atp961
sg31
Nssg32
(lp962
VUser
p963
aVVPKulesh@gmail.com
p964
asa(dp965
g5
VVPKulesh_20120229
p966
sg7
(lp967
VUser
p968
aVVPKulesh@gmail.com
p969
aVUserTrend
p970
aVVPKulesh_20120229
p971
asg13
(dp972
g15
L13924L
sg16
F0.90000000000000002
sg17
F1651.8900000000001
sg18
L0L
sg316
L6L
sg19
L10L
sg21
L7L
sg22
g23
(S'\x07\xdc\x02\x1d'
tRp973
sg25
F38.912100000000002
sg26
(g7
(lp974
VUser
p975
aVVPKulesh@gmail.com
p976
atp977
sg31
Nssg32
(lp978
VUser
p979
aVVPKulesh@gmail.com
p980
asa(dp981
g5
VVPKulesh_20120301
p982
sg7
(lp983
VUser
p984
aVVPKulesh@gmail.com
p985
aVUserTrend
p986
aVVPKulesh_20120301
p987
asg13
(dp988
g15
L13929L
sg16
F2.5
sg17
F1668.53
sg18
L1L
sg316
L4L
sg19
L6L
sg21
L1L
sg22
g23
(S'\x07\xdc\x03\x01'
tRp989
sg25
F39.102899999999998
sg26
(g7
(lp990
VUser
p991
aVVPKulesh@gmail.com
p992
atp993
sg31
Nssg32
(lp994
VUser
p995
aVVPKulesh@gmail.com
p996
asa(dp997
g5
VVPKulesh_20120302
p998
sg7
(lp999
VUser
p1000
aVVPKulesh@gmail.com
p1001
aVUserTrend
p1002
aVVPKulesh_20120302
p1003
asg13
(dp1004
g15
L13941L
sg16
F3.8999999999999999
sg17
F1620.5999999999999
sg18
L0L
sg316
L6L
sg19
L6L
sg21
L9L
sg22
g23
(S'\x07\xdc\x03\x02'
tRp1005
sg25
F39.071399999999997
sg26
(g7
(lp1006
VUser
p1007
aVVPKulesh@gmail.com
p1008
atp1009
sg31
Nssg32
(lp1010
VUser
p1011
aVVPKulesh@gmail.com
p1012
asa(dp1013
g5
VVPKulesh_20120303
p1014
sg7
(lp1015
VUser
p1016
aVVPKulesh@gmail.com
p1017
aVUserTrend
p1018
aVVPKulesh_20120303
p1019
asg13
(dp1020
g15
L13933L
sg16
F3.7000000000000002
sg17
F1614.8699999999999
sg18
L0L
sg316
L5L
sg19
L7L
sg21
L9L
sg22
g23
(S'\x07\xdc\x03\x03'
tRp1021
sg25
F38.948999999999998
sg26
(g7
(lp1022
VUser
p1023
aVVPKulesh@gmail.com
p1024
atp1025
sg31
Nssg32
(lp1026
VUser
p1027
aVVPKulesh@gmail.com
p1028
asa(dp1029
g5
VVPKulesh_20120304
p1030
sg7
(lp1031
VUser
p1032
aVVPKulesh@gmail.com
p1033
aVUserTrend
p1034
aVVPKulesh_20120304
p1035
asg13
(dp1036
g15
L13949L
sg16
F-6.7999999999999998
sg18
L0L
sg316
L6L
sg19
L2L
sg21
L10L
sg22
g23
(S'\x07\xdc\x03\x04'
tRp1037
sg26
(g7
(lp1038
VUser
p1039
aVVPKulesh@gmail.com
p1040
atp1041
sg31
Nssg32
(lp1042
VUser
p1043
aVVPKulesh@gmail.com
p1044
asa(dp1045
g5
VVPKulesh_20120305
p1046
sg7
(lp1047
VUser
p1048
aVVPKulesh@gmail.com
p1049
aVUserTrend
p1050
aVVPKulesh_20120305
p1051
asg13
(dp1052
g15
L13936L
sg16
F-8.4000000000000004
sg18
L0L
sg316
L5L
sg19
L10L
sg21
L8L
sg22
g23
(S'\x07\xdc\x03\x05'
tRp1053
sg26
(g7
(lp1054
VUser
p1055
aVVPKulesh@gmail.com
p1056
atp1057
sg31
Nssg32
(lp1058
VUser
p1059
aVVPKulesh@gmail.com
p1060
asa(dp1061
g5
VVPKulesh_20120306
p1062
sg7
(lp1063
VUser
p1064
aVVPKulesh@gmail.com
p1065
aVUserTrend
p1066
aVVPKulesh_20120306
p1067
asg13
(dp1068
g15
L13951L
sg16
F-2.3999999999999999
sg17
F1598.95
sg18
L0L
sg316
L6L
sg19
L4L
sg21
L2L
sg22
g23
(S'\x07\xdc\x03\x06'
tRp1069
sg25
F38.652999999999999
sg26
(g7
(lp1070
VUser
p1071
aVVPKulesh@gmail.com
p1072
atp1073
sg31
Nssg32
(lp1074
VUser
p1075
aVVPKulesh@gmail.com
p1076
asa(dp1077
g5
VVPKulesh_20120307
p1078
sg7
(lp1079
VUser
p1080
aVVPKulesh@gmail.com
p1081
aVUserTrend
p1082
aVVPKulesh_20120307
p1083
asg13
(dp1084
g15
L13970L
sg16
F9.5999999999999996
sg17
F1595.9400000000001
sg18
L0L
sg316
L4L
sg19
L7L
sg21
L4L
sg22
g23
(S'\x07\xdc\x03\x07'
tRp1085
sg25
F38.872100000000003
sg26
(g7
(lp1086
VUser
p1087
aVVPKulesh@gmail.com
p1088
atp1089
sg31
Nssg32
(lp1090
VUser
p1091
aVVPKulesh@gmail.com
p1092
asa(dp1093
g5
VVPKulesh_20120308
p1094
sg7
(lp1095
VUser
p1096
aVVPKulesh@gmail.com
p1097
aVUserTrend
p1098
aVVPKulesh_20120308
p1099
asg13
(dp1100
g15
L13935L
sg16
F6.7999999999999998
sg17
F1604.53
sg18
L1L
sg316
L5L
sg19
L3L
sg21
L5L
sg22
g23
(S'\x07\xdc\x03\x08'
tRp1101
sg25
F38.9938
sg26
(g7
(lp1102
VUser
p1103
aVVPKulesh@gmail.com
p1104
atp1105
sg31
Nssg32
(lp1106
VUser
p1107
aVVPKulesh@gmail.com
p1108
asa(dp1109
g5
VVPKulesh_20120309
p1110
sg7
(lp1111
VUser
p1112
aVVPKulesh@gmail.com
p1113
aVUserTrend
p1114
aVVPKulesh_20120309
p1115
asg13
(dp1116
g15
L13955L
sg16
F-1.8
sg18
L0L
sg316
L5L
sg19
L0L
sg21
L3L
sg22
g23
(S'\x07\xdc\x03\t'
tRp1117
sg26
(g7
(lp1118
VUser
p1119
aVVPKulesh@gmail.com
p1120
atp1121
sg31
Nssg32
(lp1122
VUser
p1123
aVVPKulesh@gmail.com
p1124
asa(dp1125
g5
VVPKulesh_20120310
p1126
sg7
(lp1127
VUser
p1128
aVVPKulesh@gmail.com
p1129
aVUserTrend
p1130
aVVPKulesh_20120310
p1131
asg13
(dp1132
g15
L13964L
sg16
F-3.6000000000000001
sg18
L1L
sg316
L4L
sg19
L4L
sg21
L10L
sg22
g23
(S'\x07\xdc\x03\n'
tRp1133
sg26
(g7
(lp1134
VUser
p1135
aVVPKulesh@gmail.com
p1136
atp1137
sg31
Nssg32
(lp1138
VUser
p1139
aVVPKulesh@gmail.com
p1140
asa(dp1141
g5
VVPKulesh_20120311
p1142
sg7
(lp1143
VUser
p1144
aVVPKulesh@gmail.com
p1145
aVUserTrend
p1146
aVVPKulesh_20120311
p1147
asg13
(dp1148
g15
L13964L
sg16
F9.5
sg18
L0L
sg316
L5L
sg19
L5L
sg21
L0L
sg22
g23
(S'\x07\xdc\x03\x0b'
tRp1149
sg26
(g7
(lp1150
VUser
p1151
aVVPKulesh@gmail.com
p1152
atp1153
sg31
Nssg32
(lp1154
VUser
p1155
aVVPKulesh@gmail.com
p1156
asa(dp1157
g5
VVPKulesh_20120312
p1158
sg7
(lp1159
VUser
p1160
aVVPKulesh@gmail.com
p1161
aVUserTrend
p1162
aVVPKulesh_20120312
p1163
asg13
(dp1164
g15
L13952L
sg16
F7.7000000000000002
sg17
F1602.71
sg18
L2L
sg316
L6L
sg19
L10L
sg21
L1L
sg22
g23
(S'\x07\xdc\x03\x0c'
tRp1165
sg25
F38.769100000000002
sg26
(g7
(lp1166
VUser
p1167
aVVPKulesh@gmail.com
p1168
atp1169
sg31
Nssg32
(lp1170
VUser
p1171
aVVPKulesh@gmail.com
p1172
asa(dp1173
g5
VVPKulesh_20120313
p1174
sg7
(lp1175
VUser
p1176
aVVPKulesh@gmail.com
p1177
aVUserTrend
p1178
aVVPKulesh_20120313
p1179
asg13
(dp1180
g15
L13956L
sg16
F10.4
sg17
F1626.47
sg18
L2L
sg316
L6L
sg19
L8L
sg21
L2L
sg22
g23
(S'\x07\xdc\x03\r'
tRp1181
sg25
F38.854300000000002
sg26
(g7
(lp1182
VUser
p1183
aVVPKulesh@gmail.com
p1184
atp1185
sg31
Nssg32
(lp1186
VUser
p1187
aVVPKulesh@gmail.com
p1188
asa(dp1189
g5
VVPKulesh_20120314
p1190
sg7
(lp1191
VUser
p1192
aVVPKulesh@gmail.com
p1193
aVUserTrend
p1194
aVVPKulesh_20120314
p1195
asg13
(dp1196
g15
L13966L
sg16
F9.3000000000000007
sg17
F1607.8800000000001
sg18
L1L
sg316
L6L
sg19
L2L
sg21
L0L
sg22
g23
(S'\x07\xdc\x03\x0e'
tRp1197
sg25
F38.851700000000001
sg26
(g7
(lp1198
VUser
p1199
aVVPKulesh@gmail.com
p1200
atp1201
sg31
Nssg32
(lp1202
VUser
p1203
aVVPKulesh@gmail.com
p1204
asa(dp1205
g5
VVPKulesh_20120315
p1206
sg7
(lp1207
VUser
p1208
aVVPKulesh@gmail.com
p1209
aVUserTrend
p1210
aVVPKulesh_20120315
p1211
asg13
(dp1212
g15
L13960L
sg16
F11.699999999999999
sg17
F1576.99
sg18
L1L
sg316
L6L
sg19
L0L
sg21
L6L
sg22
g23
(S'\x07\xdc\x03\x0f'
tRp1213
sg25
F38.484299999999998
sg26
(g7
(lp1214
VUser
p1215
aVVPKulesh@gmail.com
p1216
atp1217
sg31
Nssg32
(lp1218
VUser
p1219
aVVPKulesh@gmail.com
p1220
asa(dp1221
g5
VVPKulesh_20120316
p1222
sg7
(lp1223
VUser
p1224
aVVPKulesh@gmail.com
p1225
aVUserTrend
p1226
aVVPKulesh_20120316
p1227
asg13
(dp1228
g15
L13976L
sg16
F12.9
sg17
F1566.21
sg18
L1L
sg316
L4L
sg19
L4L
sg21
L5L
sg22
g23
(S'\x07\xdc\x03\x10'
tRp1229
sg25
F38.578099999999999
sg26
(g7
(lp1230
VUser
p1231
aVVPKulesh@gmail.com
p1232
atp1233
sg31
Nssg32
(lp1234
VUser
p1235
aVVPKulesh@gmail.com
p1236
asa(dp1237
g5
VVPKulesh_20120317
p1238
sg7
(lp1239
VUser
p1240
aVVPKulesh@gmail.com
p1241
aVUserTrend
p1242
aVVPKulesh_20120317
p1243
asg13
(dp1244
g15
L13991L
sg16
F8.5999999999999996
sg17
F1556.45
sg18
L1L
sg316
L5L
sg19
L0L
sg21
L7L
sg22
g23
(S'\x07\xdc\x03\x11'
tRp1245
sg25
F38.411700000000003
sg26
(g7
(lp1246
VUser
p1247
aVVPKulesh@gmail.com
p1248
atp1249
sg31
Nssg32
(lp1250
VUser
p1251
aVVPKulesh@gmail.com
p1252
asa(dp1253
g5
VVPKulesh_20120318
p1254
sg7
(lp1255
VUser
p1256
aVVPKulesh@gmail.com
p1257
aVUserTrend
p1258
aVVPKulesh_20120318
p1259
asg13
(dp1260
g15
L13993L
sg16
F13.6
sg18
L0L
sg316
L3L
sg19
L0L
sg21
L9L
sg22
g23
(S'\x07\xdc\x03\x12'
tRp1261
sg26
(g7
(lp1262
VUser
p1263
aVVPKulesh@gmail.com
p1264
atp1265
sg31
Nssg32
(lp1266
VUser
p1267
aVVPKulesh@gmail.com
p1268
asa(dp1269
g5
VVPKulesh_20120319
p1270
sg7
(lp1271
VUser
p1272
aVVPKulesh@gmail.com
p1273
aVUserTrend
p1274
aVVPKulesh_20120319
p1275
asg13
(dp1276
g15
L13976L
sg16
F16.100000000000001
sg18
L1L
sg316
L5L
sg19
L0L
sg21
L7L
sg22
g23
(S'\x07\xdc\x03\x13'
tRp1277
sg26
(g7
(lp1278
VUser
p1279
aVVPKulesh@gmail.com
p1280
atp1281
sg31
Nssg32
(lp1282
VUser
p1283
aVVPKulesh@gmail.com
p1284
asa(dp1285
g5
VVPKulesh_20120320
p1286
sg7
(lp1287
VUser
p1288
aVVPKulesh@gmail.com
p1289
aVUserTrend
p1290
aVVPKulesh_20120320
p1291
asg13
(dp1292
g15
L13970L
sg16
F15.4
sg17
F1553.97
sg18
L0L
sg316
L4L
sg19
L4L
sg21
L1L
sg22
g23
(S'\x07\xdc\x03\x14'
tRp1293
sg25
F38.4801
sg26
(g7
(lp1294
VUser
p1295
aVVPKulesh@gmail.com
p1296
atp1297
sg31
Nssg32
(lp1298
VUser
p1299
aVVPKulesh@gmail.com
p1300
asa(dp1301
g5
VVPKulesh_20120321
p1302
sg7
(lp1303
VUser
p1304
aVVPKulesh@gmail.com
p1305
aVUserTrend
p1306
aVVPKulesh_20120321
p1307
asg13
(dp1308
g15
L14002L
sg16
F16.699999999999999
sg17
F1545.77
sg18
L0L
sg316
L6L
sg19
L10L
sg21
L2L
sg22
g23
(S'\x07\xdc\x03\x15'
tRp1309
sg25
F38.600099999999998
sg26
(g7
(lp1310
VUser
p1311
aVVPKulesh@gmail.com
p1312
atp1313
sg31
Nssg32
(lp1314
VUser
p1315
aVVPKulesh@gmail.com
p1316
asa(dp1317
g5
VVPKulesh_20120322
p1318
sg7
(lp1319
VUser
p1320
aVVPKulesh@gmail.com
p1321
aVUserTrend
p1322
aVVPKulesh_20120322
p1323
asg13
(dp1324
g15
L13994L
sg16
F18.199999999999999
sg17
F1555.0799999999999
sg18
L2L
sg316
L7L
sg19
L1L
sg21
L10L
sg22
g23
(S'\x07\xdc\x03\x16'
tRp1325
sg25
F38.758899999999997
sg26
(g7
(lp1326
VUser
p1327
aVVPKulesh@gmail.com
p1328
atp1329
sg31
Nssg32
(lp1330
VUser
p1331
aVVPKulesh@gmail.com
p1332
asa(dp1333
g5
VVPKulesh_20120323
p1334
sg7
(lp1335
VUser
p1336
aVVPKulesh@gmail.com
p1337
aVUserTrend
p1338
aVVPKulesh_20120323
p1339
asg13
(dp1340
g15
L13995L
sg16
F14.699999999999999
sg17
F1538.23
sg18
L1L
sg316
L4L
sg19
L1L
sg21
L4L
sg22
g23
(S'\x07\xdc\x03\x17'
tRp1341
sg25
F38.7258
sg26
(g7
(lp1342
VUser
p1343
aVVPKulesh@gmail.com
p1344
atp1345
sg31
Nssg32
(lp1346
VUser
p1347
aVVPKulesh@gmail.com
p1348
asa(dp1349
g5
VVPKulesh_20120324
p1350
sg7
(lp1351
VUser
p1352
aVVPKulesh@gmail.com
p1353
aVUserTrend
p1354
aVVPKulesh_20120324
p1355
asg13
(dp1356
g15
L13996L
sg16
F9.5
sg17
F1560.78
sg18
L2L
sg316
L7L
sg19
L4L
sg21
L9L
sg22
g23
(S'\x07\xdc\x03\x18'
tRp1357
sg25
F38.818899999999999
sg26
(g7
(lp1358
VUser
p1359
aVVPKulesh@gmail.com
p1360
atp1361
sg31
Nssg32
(lp1362
VUser
p1363
aVVPKulesh@gmail.com
p1364
asa(dp1365
g5
VVPKulesh_20120325
p1366
sg7
(lp1367
VUser
p1368
aVVPKulesh@gmail.com
p1369
aVUserTrend
p1370
aVVPKulesh_20120325
p1371
asg13
(dp1372
g15
L14013L
sg16
F12.199999999999999
sg18
L0L
sg316
L8L
sg19
L8L
sg21
L8L
sg22
g23
(S'\x07\xdc\x03\x19'
tRp1373
sg26
(g7
(lp1374
VUser
p1375
aVVPKulesh@gmail.com
p1376
atp1377
sg31
Nssg32
(lp1378
VUser
p1379
aVVPKulesh@gmail.com
p1380
asa(dp1381
g5
VVPKulesh_20120326
p1382
sg7
(lp1383
VUser
p1384
aVVPKulesh@gmail.com
p1385
aVUserTrend
p1386
aVVPKulesh_20120326
p1387
asg13
(dp1388
g15
L14024L
sg16
F0.90000000000000002
sg18
L0L
sg316
L5L
sg19
L5L
sg21
L3L
sg22
g23
(S'\x07\xdc\x03\x1a'
tRp1389
sg26
(g7
(lp1390
VUser
p1391
aVVPKulesh@gmail.com
p1392
atp1393
sg31
Nssg32
(lp1394
VUser
p1395
aVVPKulesh@gmail.com
p1396
asa(dp1397
g5
VVPKulesh_20120327
p1398
sg7
(lp1399
VUser
p1400
aVVPKulesh@gmail.com
p1401
aVUserTrend
p1402
aVVPKulesh_20120327
p1403
asg13
(dp1404
g15
L14021L
sg16
F-0.20000000000000001
sg17
F1558.1900000000001
sg18
L0L
sg316
L4L
sg19
L10L
sg21
L2L
sg22
g23
(S'\x07\xdc\x03\x1b'
tRp1405
sg25
F38.742899999999999
sg26
(g7
(lp1406
VUser
p1407
aVVPKulesh@gmail.com
p1408
atp1409
sg31
Nssg32
(lp1410
VUser
p1411
aVVPKulesh@gmail.com
p1412
asa(dp1413
g5
VVPKulesh_20120328
p1414
sg7
(lp1415
VUser
p1416
aVVPKulesh@gmail.com
p1417
aVUserTrend
p1418
aVVPKulesh_20120328
p1419
asg13
(dp1420
g15
L14045L
sg16
F11.9
sg17
F1576.54
sg18
L0L
sg316
L4L
sg19
L2L
sg21
L4L
sg22
g23
(S'\x07\xdc\x03\x1c'
tRp1421
sg25
F38.626600000000003
sg26
(g7
(lp1422
VUser
p1423
aVVPKulesh@gmail.com
p1424
atp1425
sg31
Nssg32
(lp1426
VUser
p1427
aVVPKulesh@gmail.com
p1428
asa(dp1429
g5
VVPKulesh_20120329
p1430
sg7
(lp1431
VUser
p1432
aVVPKulesh@gmail.com
p1433
aVUserTrend
p1434
aVVPKulesh_20120329
p1435
asg13
(dp1436
g15
L14077L
sg16
F1.5
sg17
F1568.1400000000001
sg18
L1L
sg316
L3L
sg19
L6L
sg21
L4L
sg22
g23
(S'\x07\xdc\x03\x1d'
tRp1437
sg25
F38.769599999999997
sg26
(g7
(lp1438
VUser
p1439
aVVPKulesh@gmail.com
p1440
atp1441
sg31
Nssg32
(lp1442
VUser
p1443
aVVPKulesh@gmail.com
p1444
asa(dp1445
g5
VVPKulesh_20120330
p1446
sg7
(lp1447
VUser
p1448
aVVPKulesh@gmail.com
p1449
aVUserTrend
p1450
aVVPKulesh_20120330
p1451
asg13
(dp1452
g15
L14080L
sg16
F0.5
sg17
F1558.96
sg18
L2L
sg316
L5L
sg19
L8L
sg21
L2L
sg22
g23
(S'\x07\xdc\x03\x1e'
tRp1453
sg25
F39.040199999999999
sg26
(g7
(lp1454
VUser
p1455
aVVPKulesh@gmail.com
p1456
atp1457
sg31
Nssg32
(lp1458
VUser
p1459
aVVPKulesh@gmail.com
p1460
asa(dp1461
g5
VVPKulesh_20120331
p1462
sg7
(lp1463
VUser
p1464
aVVPKulesh@gmail.com
p1465
aVUserTrend
p1466
aVVPKulesh_20120331
p1467
asg13
(dp1468
g15
L14088L
sg16
F4.2000000000000002
sg17
F1565.96
sg18
L0L
sg316
L6L
sg19
L2L
sg21
L9L
sg22
g23
(S'\x07\xdc\x03\x1f'
tRp1469
sg25
F39.170699999999997
sg26
(g7
(lp1470
VUser
p1471
aVVPKulesh@gmail.com
p1472
atp1473
sg31
Nssg32
(lp1474
VUser
p1475
aVVPKulesh@gmail.com
p1476
asa(dp1477
g5
VVPKulesh_20120401
p1478
sg7
(lp1479
VUser
p1480
aVVPKulesh@gmail.com
p1481
aVUserTrend
p1482
aVVPKulesh_20120401
p1483
asg13
(dp1484
g15
L14088L
sg16
F3.7999999999999998
sg18
L2L
sg316
L6L
sg19
L0L
sg21
L8L
sg22
g23
(S'\x07\xdc\x04\x01'
tRp1485
sg26
(g7
(lp1486
VUser
p1487
aVVPKulesh@gmail.com
p1488
atp1489
sg31
Nssg32
(lp1490
VUser
p1491
aVVPKulesh@gmail.com
p1492
asa(dp1493
g5
VVPKulesh_20120402
p1494
sg7
(lp1495
VUser
p1496
aVVPKulesh@gmail.com
p1497
aVUserTrend
p1498
aVVPKulesh_20120402
p1499
asg13
(dp1500
g15
L14124L
sg16
F6.9000000000000004
sg18
L0L
sg316
L6L
sg19
L4L
sg21
L3L
sg22
g23
(S'\x07\xdc\x04\x02'
tRp1501
sg26
(g7
(lp1502
VUser
p1503
aVVPKulesh@gmail.com
p1504
atp1505
sg31
Nssg32
(lp1506
VUser
p1507
aVVPKulesh@gmail.com
p1508
asa(dp1509
g5
VVPKulesh_20120403
p1510
sg7
(lp1511
VUser
p1512
aVVPKulesh@gmail.com
p1513
aVUserTrend
p1514
aVVPKulesh_20120403
p1515
asg13
(dp1516
g15
L14101L
sg16
F5.5
sg17
F1570.0799999999999
sg18
L0L
sg316
L4L
sg19
L10L
sg21
L7L
sg22
g23
(S'\x07\xdc\x04\x03'
tRp1517
sg25
F39.167700000000004
sg26
(g7
(lp1518
VUser
p1519
aVVPKulesh@gmail.com
p1520
atp1521
sg31
Nssg32
(lp1522
VUser
p1523
aVVPKulesh@gmail.com
p1524
asa(dp1525
g5
VVPKulesh_20120404
p1526
sg7
(lp1527
VUser
p1528
aVVPKulesh@gmail.com
p1529
aVUserTrend
p1530
aVVPKulesh_20120404
p1531
asg13
(dp1532
g15
L14141L
sg16
F6.7999999999999998
sg17
F1577.3399999999999
sg18
L4L
sg316
L4L
sg19
L7L
sg21
L0L
sg22
g23
(S'\x07\xdc\x04\x04'
tRp1533
sg25
F39.084600000000002
sg26
(g7
(lp1534
VUser
p1535
aVVPKulesh@gmail.com
p1536
atp1537
sg31
Nssg32
(lp1538
VUser
p1539
aVVPKulesh@gmail.com
p1540
asa(dp1541
g5
VVPKulesh_20120405
p1542
sg7
(lp1543
VUser
p1544
aVVPKulesh@gmail.com
p1545
aVUserTrend
p1546
aVVPKulesh_20120405
p1547
asg13
(dp1548
g15
L14168L
sg16
F4.2999999999999998
sg17
F1543.8800000000001
sg18
L0L
sg316
L4L
sg19
L6L
sg21
L10L
sg22
g23
(S'\x07\xdc\x04\x05'
tRp1549
sg25
F38.836799999999997
sg26
(g7
(lp1550
VUser
p1551
aVVPKulesh@gmail.com
p1552
atp1553
sg31
Nssg32
(lp1554
VUser
p1555
aVVPKulesh@gmail.com
p1556
asa(dp1557
g5
VVPKulesh_20120406
p1558
sg7
(lp1559
VUser
p1560
aVVPKulesh@gmail.com
p1561
aVUserTrend
p1562
aVVPKulesh_20120406
p1563
asg13
(dp1564
g15
L14181L
sg16
F6.0999999999999996
sg17
F1535.22
sg18
L0L
sg316
L6L
sg19
L4L
sg21
L10L
sg22
g23
(S'\x07\xdc\x04\x06'
tRp1565
sg25
F38.709699999999998
sg26
(g7
(lp1566
VUser
p1567
aVVPKulesh@gmail.com
p1568
atp1569
sg31
Nssg32
(lp1570
VUser
p1571
aVVPKulesh@gmail.com
p1572
asa(dp1573
g5
VVPKulesh_20120407
p1574
sg7
(lp1575
VUser
p1576
aVVPKulesh@gmail.com
p1577
aVUserTrend
p1578
aVVPKulesh_20120407
p1579
asg13
(dp1580
g15
L14174L
sg16
F8
sg17
F1544.8499999999999
sg18
L1L
sg316
L5L
sg19
L10L
sg21
L2L
sg22
g23
(S'\x07\xdc\x04\x07'
tRp1581
sg25
F38.513800000000003
sg26
(g7
(lp1582
VUser
p1583
aVVPKulesh@gmail.com
p1584
atp1585
sg31
Nssg32
(lp1586
VUser
p1587
aVVPKulesh@gmail.com
p1588
asa(dp1589
g5
VVPKulesh_20120408
p1590
sg7
(lp1591
VUser
p1592
aVVPKulesh@gmail.com
p1593
aVUserTrend
p1594
aVVPKulesh_20120408
p1595
asg13
(dp1596
g15
L14174L
sg16
F7.7999999999999998
sg18
L0L
sg316
L4L
sg19
L0L
sg21
L9L
sg22
g23
(S'\x07\xdc\x04\x08'
tRp1597
sg26
(g7
(lp1598
VUser
p1599
aVVPKulesh@gmail.com
p1600
atp1601
sg31
Nssg32
(lp1602
VUser
p1603
aVVPKulesh@gmail.com
p1604
asa(dp1605
g5
VVPKulesh_20120409
p1606
sg7
(lp1607
VUser
p1608
aVVPKulesh@gmail.com
p1609
aVUserTrend
p1610
aVVPKulesh_20120409
p1611
asg13
(dp1612
g15
L14203L
sg16
F7.7999999999999998
sg18
L1L
sg316
L6L
sg19
L7L
sg21
L10L
sg22
g23
(S'\x07\xdc\x04\t'
tRp1613
sg26
(g7
(lp1614
VUser
p1615
aVVPKulesh@gmail.com
p1616
atp1617
sg31
Nssg32
(lp1618
VUser
p1619
aVVPKulesh@gmail.com
p1620
asa(dp1621
g5
VVPKulesh_20120410
p1622
sg7
(lp1623
VUser
p1624
aVVPKulesh@gmail.com
p1625
aVUserTrend
p1626
aVVPKulesh_20120410
p1627
asg13
(dp1628
g15
L14182L
sg16
F5.5
sg17
F1554.04
sg18
L1L
sg316
L7L
sg19
L2L
sg21
L1L
sg22
g23
(S'\x07\xdc\x04\n'
tRp1629
sg25
F38.719200000000001
sg26
(g7
(lp1630
VUser
p1631
aVVPKulesh@gmail.com
p1632
atp1633
sg31
Nssg32
(lp1634
VUser
p1635
aVVPKulesh@gmail.com
p1636
asa(dp1637
g5
VVPKulesh_20120411
p1638
sg7
(lp1639
VUser
p1640
aVVPKulesh@gmail.com
p1641
aVUserTrend
p1642
aVVPKulesh_20120411
p1643
asg13
(dp1644
g15
L14205L
sg16
F6.7999999999999998
sg17
F1566.1900000000001
sg18
L0L
sg316
L3L
sg19
L4L
sg21
L4L
sg22
g23
(S'\x07\xdc\x04\x0b'
tRp1645
sg25
F38.834899999999998
sg26
(g7
(lp1646
VUser
p1647
aVVPKulesh@gmail.com
p1648
atp1649
sg31
Nssg32
(lp1650
VUser
p1651
aVVPKulesh@gmail.com
p1652
asa(dp1653
g5
VVPKulesh_20120412
p1654
sg7
(lp1655
VUser
p1656
aVVPKulesh@gmail.com
p1657
aVUserTrend
p1658
aVVPKulesh_20120412
p1659
asg13
(dp1660
g15
L14208L
sg16
F7.0999999999999996
sg17
F1584.8599999999999
sg18
L0L
sg316
L4L
sg19
L2L
sg21
L10L
sg22
g23
(S'\x07\xdc\x04\x0c'
tRp1661
sg25
F39.078099999999999
sg26
(g7
(lp1662
VUser
p1663
aVVPKulesh@gmail.com
p1664
atp1665
sg31
Nssg32
(lp1666
VUser
p1667
aVVPKulesh@gmail.com
p1668
asa(dp1669
g5
VVPKulesh_20120413
p1670
sg7
(lp1671
VUser
p1672
aVVPKulesh@gmail.com
p1673
aVUserTrend
p1674
aVVPKulesh_20120413
p1675
asg13
(dp1676
g15
L14218L
sg16
F8.5999999999999996
sg17
F1573.8299999999999
sg18
L2L
sg316
L8L
sg19
L3L
sg21
L0L
sg22
g23
(S'\x07\xdc\x04\r'
tRp1677
sg25
F38.850700000000003
sg26
(g7
(lp1678
VUser
p1679
aVVPKulesh@gmail.com
p1680
atp1681
sg31
Nssg32
(lp1682
VUser
p1683
aVVPKulesh@gmail.com
p1684
asa(dp1685
g5
VVPKulesh_20120414
p1686
sg7
(lp1687
VUser
p1688
aVVPKulesh@gmail.com
p1689
aVUserTrend
p1690
aVVPKulesh_20120414
p1691
asg13
(dp1692
g15
L14237L
sg16
F10.199999999999999
sg17
F1582.8299999999999
sg18
L2L
sg316
L5L
sg19
L0L
sg21
L3L
sg22
g23
(S'\x07\xdc\x04\x0e'
tRp1693
sg25
F38.813400000000001
sg26
(g7
(lp1694
VUser
p1695
aVVPKulesh@gmail.com
p1696
atp1697
sg31
Nssg32
(lp1698
VUser
p1699
aVVPKulesh@gmail.com
p1700
asa(dp1701
g5
VVPKulesh_20120415
p1702
sg7
(lp1703
VUser
p1704
aVVPKulesh@gmail.com
p1705
aVUserTrend
p1706
aVVPKulesh_20120415
p1707
asg13
(dp1708
g15
L14237L
sg16
F15.699999999999999
sg18
L0L
sg316
L5L
sg19
L5L
sg21
L6L
sg22
g23
(S'\x07\xdc\x04\x0f'
tRp1709
sg26
(g7
(lp1710
VUser
p1711
aVVPKulesh@gmail.com
p1712
atp1713
sg31
Nssg32
(lp1714
VUser
p1715
aVVPKulesh@gmail.com
p1716
asa(dp1717
g5
VVPKulesh_20120416
p1718
sg7
(lp1719
VUser
p1720
aVVPKulesh@gmail.com
p1721
aVUserTrend
p1722
aVVPKulesh_20120416
p1723
asg13
(dp1724
g15
L14253L
sg16
F17.399999999999999
sg18
L0L
sg316
L5L
sg19
L0L
sg21
L9L
sg22
g23
(S'\x07\xdc\x04\x10'
tRp1725
sg26
(g7
(lp1726
VUser
p1727
aVVPKulesh@gmail.com
p1728
atp1729
sg31
Nssg32
(lp1730
VUser
p1731
aVVPKulesh@gmail.com
p1732
asa(dp1733
g5
VVPKulesh_20120417
p1734
sg7
(lp1735
VUser
p1736
aVVPKulesh@gmail.com
p1737
aVUserTrend
p1738
aVVPKulesh_20120417
p1739
asg13
(dp1740
g15
L14246L
sg16
F5.5
sg17
F1577.1300000000001
sg18
L1L
sg316
L4L
sg19
L2L
sg21
L7L
sg22
g23
(S'\x07\xdc\x04\x11'
tRp1741
sg25
F38.737400000000001
sg26
(g7
(lp1742
VUser
p1743
aVVPKulesh@gmail.com
p1744
atp1745
sg31
Nssg32
(lp1746
VUser
p1747
aVVPKulesh@gmail.com
p1748
asa(dp1749
g5
VVPKulesh_20120418
p1750
sg7
(lp1751
VUser
p1752
aVVPKulesh@gmail.com
p1753
aVUserTrend
p1754
aVVPKulesh_20120418
p1755
asg13
(dp1756
g15
L14264L
sg16
F3.7999999999999998
sg17
F1574.0999999999999
sg18
L1L
sg316
L5L
sg19
L2L
sg21
L6L
sg22
g23
(S'\x07\xdc\x04\x12'
tRp1757
sg25
F38.850900000000003
sg26
(g7
(lp1758
VUser
p1759
aVVPKulesh@gmail.com
p1760
atp1761
sg31
Nssg32
(lp1762
VUser
p1763
aVVPKulesh@gmail.com
p1764
asa(dp1765
g5
VVPKulesh_20120419
p1766
sg7
(lp1767
VUser
p1768
aVVPKulesh@gmail.com
p1769
aVUserTrend
p1770
aVVPKulesh_20120419
p1771
asg13
(dp1772
g15
L14292L
sg16
F14.1
sg17
F1561.5
sg18
L0L
sg316
L5L
sg19
L7L
sg21
L8L
sg22
g23
(S'\x07\xdc\x04\x13'
tRp1773
sg25
F38.671599999999998
sg26
(g7
(lp1774
VUser
p1775
aVVPKulesh@gmail.com
p1776
atp1777
sg31
Nssg32
(lp1778
VUser
p1779
aVVPKulesh@gmail.com
p1780
asa(dp1781
g5
VVPKulesh_20120420
p1782
sg7
(lp1783
VUser
p1784
aVVPKulesh@gmail.com
p1785
aVUserTrend
p1786
aVVPKulesh_20120420
p1787
asg13
(dp1788
g15
L14310L
sg16
F11.800000000000001
sg17
F1557.99
sg18
L2L
sg316
L6L
sg19
L9L
sg21
L8L
sg22
g23
(S'\x07\xdc\x04\x14'
tRp1789
sg25
F38.722999999999999
sg26
(g7
(lp1790
VUser
p1791
aVVPKulesh@gmail.com
p1792
atp1793
sg31
Nssg32
(lp1794
VUser
p1795
aVVPKulesh@gmail.com
p1796
asa(dp1797
g5
VVPKulesh_20120421
p1798
sg7
(lp1799
VUser
p1800
aVVPKulesh@gmail.com
p1801
aVUserTrend
p1802
aVVPKulesh_20120421
p1803
asg13
(dp1804
g15
L14310L
sg16
F5.4000000000000004
sg17
F1556.5799999999999
sg18
L1L
sg316
L5L
sg19
L5L
sg21
L2L
sg22
g23
(S'\x07\xdc\x04\x15'
tRp1805
sg25
F38.811799999999998
sg26
(g7
(lp1806
VUser
p1807
aVVPKulesh@gmail.com
p1808
atp1809
sg31
Nssg32
(lp1810
VUser
p1811
aVVPKulesh@gmail.com
p1812
asa(dp1813
g5
VVPKulesh_20120422
p1814
sg7
(lp1815
VUser
p1816
aVVPKulesh@gmail.com
p1817
aVUserTrend
p1818
aVVPKulesh_20120422
p1819
asg13
(dp1820
g15
L14310L
sg16
F6.5
sg18
L1L
sg316
L2L
sg19
L0L
sg21
L6L
sg22
g23
(S'\x07\xdc\x04\x16'
tRp1821
sg26
(g7
(lp1822
VUser
p1823
aVVPKulesh@gmail.com
p1824
atp1825
sg31
Nssg32
(lp1826
VUser
p1827
aVVPKulesh@gmail.com
p1828
asa(dp1829
g5
VVPKulesh_20120423
p1830
sg7
(lp1831
VUser
p1832
aVVPKulesh@gmail.com
p1833
aVUserTrend
p1834
aVVPKulesh_20120423
p1835
asg13
(dp1836
g15
L14332L
sg16
F4.2999999999999998
sg18
L1L
sg316
L6L
sg19
L8L
sg21
L1L
sg22
g23
(S'\x07\xdc\x04\x17'
tRp1837
sg26
(g7
(lp1838
VUser
p1839
aVVPKulesh@gmail.com
p1840
atp1841
sg31
Nssg32
(lp1842
VUser
p1843
aVVPKulesh@gmail.com
p1844
asa(dp1845
g5
VVPKulesh_20120424
p1846
sg7
(lp1847
VUser
p1848
aVVPKulesh@gmail.com
p1849
aVUserTrend
p1850
aVVPKulesh_20120424
p1851
asg13
(dp1852
g15
L14297L
sg16
F4.5
sg17
F1547.23
sg18
L2L
sg316
L6L
sg19
L0L
sg21
L4L
sg22
g23
(S'\x07\xdc\x04\x18'
tRp1853
sg25
F38.8386
sg26
(g7
(lp1854
VUser
p1855
aVVPKulesh@gmail.com
p1856
atp1857
sg31
Nssg32
(lp1858
VUser
p1859
aVVPKulesh@gmail.com
p1860
asa(dp1861
g5
VVPKulesh_20120425
p1862
sg7
(lp1863
VUser
p1864
aVVPKulesh@gmail.com
p1865
aVUserTrend
p1866
aVVPKulesh_20120425
p1867
asg13
(dp1868
g15
L14334L
sg16
F7.7000000000000002
sg17
F1551.8900000000001
sg18
L1L
sg316
L4L
sg19
L10L
sg21
L9L
sg22
g23
(S'\x07\xdc\x04\x19'
tRp1869
sg25
F38.795000000000002
sg26
(g7
(lp1870
VUser
p1871
aVVPKulesh@gmail.com
p1872
atp1873
sg31
Nssg32
(lp1874
VUser
p1875
aVVPKulesh@gmail.com
p1876
asa(dp1877
g5
VVPKulesh_20120426
p1878
sg7
(lp1879
VUser
p1880
aVVPKulesh@gmail.com
p1881
aVUserTrend
p1882
aVVPKulesh_20120426
p1883
asg13
(dp1884
g15
L14352L
sg16
F6.4000000000000004
sg17
F1545.8800000000001
sg18
L0L
sg316
L6L
sg19
L0L
sg21
L3L
sg22
g23
(S'\x07\xdc\x04\x1a'
tRp1885
sg25
F38.659300000000002
sg26
(g7
(lp1886
VUser
p1887
aVVPKulesh@gmail.com
p1888
atp1889
sg31
Nssg32
(lp1890
VUser
p1891
aVVPKulesh@gmail.com
p1892
asa(dp1893
g5
VVPKulesh_20120427
p1894
sg7
(lp1895
VUser
p1896
aVVPKulesh@gmail.com
p1897
aVUserTrend
p1898
aVVPKulesh_20120427
p1899
asg13
(dp1900
g15
L14330L
sg16
F4.5
sg17
F1551.46
sg18
L2L
sg316
L4L
sg19
L7L
sg21
L0L
sg22
g23
(S'\x07\xdc\x04\x1b'
tRp1901
sg25
F38.7393
sg26
(g7
(lp1902
VUser
p1903
aVVPKulesh@gmail.com
p1904
atp1905
sg31
Nssg32
(lp1906
VUser
p1907
aVVPKulesh@gmail.com
p1908
asa(dp1909
g5
VVPKulesh_20120428
p1910
sg7
(lp1911
VUser
p1912
aVVPKulesh@gmail.com
p1913
aVUserTrend
p1914
aVVPKulesh_20120428
p1915
asg13
(dp1916
g15
L14367L
sg16
F4
sg17
F1564.6600000000001
sg18
L1L
sg316
L6L
sg19
L3L
sg21
L3L
sg22
g23
(S'\x07\xdc\x04\x1c'
tRp1917
sg25
F38.747700000000002
sg26
(g7
(lp1918
VUser
p1919
aVVPKulesh@gmail.com
p1920
atp1921
sg31
Nssg32
(lp1922
VUser
p1923
aVVPKulesh@gmail.com
p1924
asa(dp1925
g5
VVPKulesh_20120429
p1926
sg7
(lp1927
VUser
p1928
aVVPKulesh@gmail.com
p1929
aVUserTrend
p1930
aVVPKulesh_20120429
p1931
asg13
(dp1932
g15
L14367L
sg16
F6.5999999999999996
sg17
F1570.4000000000001
sg18
L1L
sg316
L7L
sg19
L7L
sg21
L8L
sg22
g23
(S'\x07\xdc\x04\x1d'
tRp1933
sg25
F38.920299999999997
sg26
(g7
(lp1934
VUser
p1935
aVVPKulesh@gmail.com
p1936
atp1937
sg31
Nssg32
(lp1938
VUser
p1939
aVVPKulesh@gmail.com
p1940
asa(dp1941
g5
VVPKulesh_20120430
p1942
sg7
(lp1943
VUser
p1944
aVVPKulesh@gmail.com
p1945
aVUserTrend
p1946
aVVPKulesh_20120430
p1947
asg13
(dp1948
g15
L14381L
sg16
F4.9000000000000004
sg18
L2L
sg316
L7L
sg19
L4L
sg21
L6L
sg22
g23
(S'\x07\xdc\x04\x1e'
tRp1949
sg26
(g7
(lp1950
VUser
p1951
aVVPKulesh@gmail.com
p1952
atp1953
sg31
Nssg32
(lp1954
VUser
p1955
aVVPKulesh@gmail.com
p1956
asa(dp1957
g5
VVPKulesh_20120501
p1958
sg7
(lp1959
VUser
p1960
aVVPKulesh@gmail.com
p1961
aVUserTrend
p1962
aVVPKulesh_20120501
p1963
asg13
(dp1964
g15
L14370L
sg16
F10
sg18
L2L
sg316
L5L
sg19
L8L
sg21
L3L
sg22
g23
(S'\x07\xdc\x05\x01'
tRp1965
sg26
(g7
(lp1966
VUser
p1967
aVVPKulesh@gmail.com
p1968
atp1969
sg31
Nssg32
(lp1970
VUser
p1971
aVVPKulesh@gmail.com
p1972
asa(dp1973
g5
VVPKulesh_20120502
p1974
sg7
(lp1975
VUser
p1976
aVVPKulesh@gmail.com
p1977
aVUserTrend
p1978
aVVPKulesh_20120502
p1979
asg13
(dp1980
g15
L14402L
sg16
F11.300000000000001
sg18
L2L
sg316
L5L
sg19
L10L
sg21
L9L
sg22
g23
(S'\x07\xdc\x05\x02'
tRp1981
sg26
(g7
(lp1982
VUser
p1983
aVVPKulesh@gmail.com
p1984
atp1985
sg31
Nssg32
(lp1986
VUser
p1987
aVVPKulesh@gmail.com
p1988
asa(dp1989
g5
VVPKulesh_20120503
p1990
sg7
(lp1991
VUser
p1992
aVVPKulesh@gmail.com
p1993
aVUserTrend
p1994
aVVPKulesh_20120503
p1995
asg13
(dp1996
g15
L14394L
sg16
F15.199999999999999
sg17
F1560.4400000000001
sg18
L1L
sg316
L4L
sg19
L8L
sg21
L9L
sg22
g23
(S'\x07\xdc\x05\x03'
tRp1997
sg25
F38.822299999999998
sg26
(g7
(lp1998
VUser
p1999
aVVPKulesh@gmail.com
p2000
atp2001
sg31
Nssg32
(lp2002
VUser
p2003
aVVPKulesh@gmail.com
p2004
asa(dp2005
g5
VVPKulesh_20120504
p2006
sg7
(lp2007
VUser
p2008
aVVPKulesh@gmail.com
p2009
aVUserTrend
p2010
aVVPKulesh_20120504
p2011
asg13
(dp2012
g15
L14437L
sg16
F16.800000000000001
sg17
F1555.8699999999999
sg18
L1L
sg316
L5L
sg19
L0L
sg21
L7L
sg22
g23
(S'\x07\xdc\x05\x04'
tRp2013
sg25
F38.734999999999999
sg26
(g7
(lp2014
VUser
p2015
aVVPKulesh@gmail.com
p2016
atp2017
sg31
Nssg32
(lp2018
VUser
p2019
aVVPKulesh@gmail.com
p2020
asa(dp2021
g5
VVPKulesh_20120505
p2022
sg7
(lp2023
VUser
p2024
aVVPKulesh@gmail.com
p2025
aVUserTrend
p2026
aVVPKulesh_20120505
p2027
asg13
(dp2028
g15
L14435L
sg16
F11.300000000000001
sg17
F1550.4000000000001
sg18
L1L
sg316
L6L
sg19
L8L
sg21
L10L
sg22
g23
(S'\x07\xdc\x05\x05'
tRp2029
sg25
F38.915700000000001
sg26
(g7
(lp2030
VUser
p2031
aVVPKulesh@gmail.com
p2032
atp2033
sg31
Nssg32
(lp2034
VUser
p2035
aVVPKulesh@gmail.com
p2036
asa(dp2037
g5
VVPKulesh_20120506
p2038
sg7
(lp2039
VUser
p2040
aVVPKulesh@gmail.com
p2041
aVUserTrend
p2042
aVVPKulesh_20120506
p2043
asg13
(dp2044
g15
L14435L
sg16
F11.4
sg17
F1575.26
sg18
L0L
sg316
L2L
sg19
L1L
sg21
L1L
sg22
g23
(S'\x07\xdc\x05\x06'
tRp2045
sg25
F39.000100000000003
sg26
(g7
(lp2046
VUser
p2047
aVVPKulesh@gmail.com
p2048
atp2049
sg31
Nssg32
(lp2050
VUser
p2051
aVVPKulesh@gmail.com
p2052
asa(dp2053
g5
VVPKulesh_20120507
p2054
sg7
(lp2055
VUser
p2056
aVVPKulesh@gmail.com
p2057
aVUserTrend
p2058
aVVPKulesh_20120507
p2059
asg13
(dp2060
g15
L14455L
sg16
F13.800000000000001
sg18
L1L
sg316
L5L
sg19
L6L
sg21
L10L
sg22
g23
(S'\x07\xdc\x05\x07'
tRp2061
sg26
(g7
(lp2062
VUser
p2063
aVVPKulesh@gmail.com
p2064
atp2065
sg31
Nssg32
(lp2066
VUser
p2067
aVVPKulesh@gmail.com
p2068
asa(dp2069
g5
VVPKulesh_20120508
p2070
sg7
(lp2071
VUser
p2072
aVVPKulesh@gmail.com
p2073
aVUserTrend
p2074
aVVPKulesh_20120508
p2075
asg13
(dp2076
g15
L14444L
sg16
F14.699999999999999
sg18
L3L
sg316
L8L
sg19
L9L
sg21
L3L
sg22
g23
(S'\x07\xdc\x05\x08'
tRp2077
sg26
(g7
(lp2078
VUser
p2079
aVVPKulesh@gmail.com
p2080
atp2081
sg31
Nssg32
(lp2082
VUser
p2083
aVVPKulesh@gmail.com
p2084
asa(dp2085
g5
VVPKulesh_20120509
p2086
sg7
(lp2087
VUser
p2088
aVVPKulesh@gmail.com
p2089
aVUserTrend
p2090
aVVPKulesh_20120509
p2091
asg13
(dp2092
g15
L14435L
sg16
F14
sg18
L1L
sg316
L4L
sg19
L7L
sg21
L10L
sg22
g23
(S'\x07\xdc\x05\t'
tRp2093
sg26
(g7
(lp2094
VUser
p2095
aVVPKulesh@gmail.com
p2096
atp2097
sg31
Nssg32
(lp2098
VUser
p2099
aVVPKulesh@gmail.com
p2100
asa(dp2101
g5
VVPKulesh_20120510
p2102
sg7
(lp2103
VUser
p2104
aVVPKulesh@gmail.com
p2105
aVUserTrend
p2106
aVVPKulesh_20120510
p2107
asg13
(dp2108
g15
L14476L
sg16
F11.5
sg18
L1L
sg316
L4L
sg19
L3L
sg21
L10L
sg22
g23
(S'\x07\xdc\x05\n'
tRp2109
sg26
(g7
(lp2110
VUser
p2111
aVVPKulesh@gmail.com
p2112
atp2113
sg31
Nssg32
(lp2114
VUser
p2115
aVVPKulesh@gmail.com
p2116
asa(dp2117
g5
VVPKulesh_20120511
p2118
sg7
(lp2119
VUser
p2120
aVVPKulesh@gmail.com
p2121
aVUserTrend
p2122
aVVPKulesh_20120511
p2123
asg13
(dp2124
g15
L14484L
sg16
F14.699999999999999
sg17
F1543.26
sg18
L1L
sg316
L6L
sg19
L4L
sg21
L0L
sg22
g23
(S'\x07\xdc\x05\x0b'
tRp2125
sg25
F39.116
sg26
(g7
(lp2126
VUser
p2127
aVVPKulesh@gmail.com
p2128
atp2129
sg31
Nssg32
(lp2130
VUser
p2131
aVVPKulesh@gmail.com
p2132
asa(dp2133
g5
VVPKulesh_20120512
p2134
sg7
(lp2135
VUser
p2136
aVVPKulesh@gmail.com
p2137
aVUserTrend
p2138
aVVPKulesh_20120512
p2139
asg13
(dp2140
g15
L14491L
sg16
F17.899999999999999
sg17
F1536.3900000000001
sg18
L0L
sg316
L5L
sg19
L3L
sg21
L0L
sg22
g23
(S'\x07\xdc\x05\x0c'
tRp2141
sg25
F39.0458
sg26
(g7
(lp2142
VUser
p2143
aVVPKulesh@gmail.com
p2144
atp2145
sg31
Nssg32
(lp2146
VUser
p2147
aVVPKulesh@gmail.com
p2148
asa(dp2149
g5
VVPKulesh_20120513
p2150
sg7
(lp2151
VUser
p2152
aVVPKulesh@gmail.com
p2153
aVUserTrend
p2154
aVVPKulesh_20120513
p2155
asg13
(dp2156
g15
L14491L
sg16
F15.699999999999999
sg17
F1535.96
sg18
L0L
sg316
L4L
sg19
L0L
sg21
L0L
sg22
g23
(S'\x07\xdc\x05\r'
tRp2157
sg25
F38.982599999999998
sg26
(g7
(lp2158
VUser
p2159
aVVPKulesh@gmail.com
p2160
atp2161
sg31
Nssg32
(lp2162
VUser
p2163
aVVPKulesh@gmail.com
p2164
asa(dp2165
g5
VVPKulesh_20120514
p2166
sg7
(lp2167
VUser
p2168
aVVPKulesh@gmail.com
p2169
aVUserTrend
p2170
aVVPKulesh_20120514
p2171
asg13
(dp2172
g15
L14499L
sg16
F16.199999999999999
sg18
L1L
sg316
L4L
sg19
L5L
sg21
L10L
sg22
g23
(S'\x07\xdc\x05\x0e'
tRp2173
sg26
(g7
(lp2174
VUser
p2175
aVVPKulesh@gmail.com
p2176
atp2177
sg31
Nssg32
(lp2178
VUser
p2179
aVVPKulesh@gmail.com
p2180
asa(dp2181
g5
VVPKulesh_20120515
p2182
sg7
(lp2183
VUser
p2184
aVVPKulesh@gmail.com
p2185
aVUserTrend
p2186
aVVPKulesh_20120515
p2187
asg13
(dp2188
g15
L14459L
sg16
F17
sg17
F1520.8699999999999
sg18
L1L
sg316
L2L
sg19
L5L
sg21
L5L
sg22
g23
(S'\x07\xdc\x05\x0f'
tRp2189
sg25
F39.008800000000001
sg26
(g7
(lp2190
VUser
p2191
aVVPKulesh@gmail.com
p2192
atp2193
sg31
Nssg32
(lp2194
VUser
p2195
aVVPKulesh@gmail.com
p2196
asa(dp2197
g5
VVPKulesh_20120516
p2198
sg7
(lp2199
VUser
p2200
aVVPKulesh@gmail.com
p2201
aVUserTrend
p2202
aVVPKulesh_20120516
p2203
asg13
(dp2204
g15
L14501L
sg16
F11.1
sg17
F1520.22
sg18
L0L
sg316
L6L
sg19
L4L
sg21
L10L
sg22
g23
(S'\x07\xdc\x05\x10'
tRp2205
sg25
F38.982999999999997
sg26
(g7
(lp2206
VUser
p2207
aVVPKulesh@gmail.com
p2208
atp2209
sg31
Nssg32
(lp2210
VUser
p2211
aVVPKulesh@gmail.com
p2212
asa(dp2213
g5
VVPKulesh_20120517
p2214
sg7
(lp2215
VUser
p2216
aVVPKulesh@gmail.com
p2217
aVUserTrend
p2218
aVVPKulesh_20120517
p2219
asg13
(dp2220
g15
L14533L
sg16
F10.300000000000001
sg17
F1531.1900000000001
sg18
L0L
sg316
L6L
sg19
L5L
sg21
L0L
sg22
g23
(S'\x07\xdc\x05\x11'
tRp2221
sg25
F39.329999999999998
sg26
(g7
(lp2222
VUser
p2223
aVVPKulesh@gmail.com
p2224
atp2225
sg31
Nssg32
(lp2226
VUser
p2227
aVVPKulesh@gmail.com
p2228
asa(dp2229
g5
VVPKulesh_20120518
p2230
sg7
(lp2231
VUser
p2232
aVVPKulesh@gmail.com
p2233
aVUserTrend
p2234
aVVPKulesh_20120518
p2235
asg13
(dp2236
g15
L14559L
sg16
F15
sg17
F1538.95
sg18
L3L
sg316
L3L
sg19
L4L
sg21
L1L
sg22
g23
(S'\x07\xdc\x05\x12'
tRp2237
sg25
F39.3919
sg26
(g7
(lp2238
VUser
p2239
aVVPKulesh@gmail.com
p2240
atp2241
sg31
Nssg32
(lp2242
VUser
p2243
aVVPKulesh@gmail.com
p2244
asa(dp2245
g5
VVPKulesh_20120519
p2246
sg7
(lp2247
VUser
p2248
aVVPKulesh@gmail.com
p2249
aVUserTrend
p2250
aVVPKulesh_20120519
p2251
asg13
(dp2252
g15
L14562L
sg16
F18.600000000000001
sg17
F1602.73
sg18
L1L
sg316
L7L
sg19
L6L
sg21
L1L
sg22
g23
(S'\x07\xdc\x05\x13'
tRp2253
sg25
F39.751800000000003
sg26
(g7
(lp2254
VUser
p2255
aVVPKulesh@gmail.com
p2256
atp2257
sg31
Nssg32
(lp2258
VUser
p2259
aVVPKulesh@gmail.com
p2260
asa(dp2261
g5
VVPKulesh_20120520
p2262
sg7
(lp2263
VUser
p2264
aVVPKulesh@gmail.com
p2265
aVUserTrend
p2266
aVVPKulesh_20120520
p2267
asg13
(dp2268
g15
L14576L
sg16
F20.800000000000001
sg18
L0L
sg316
L2L
sg19
L10L
sg21
L6L
sg22
g23
(S'\x07\xdc\x05\x14'
tRp2269
sg26
(g7
(lp2270
VUser
p2271
aVVPKulesh@gmail.com
p2272
atp2273
sg31
Nssg32
(lp2274
VUser
p2275
aVVPKulesh@gmail.com
p2276
asa(dp2277
g5
VVPKulesh_20120521
p2278
sg7
(lp2279
VUser
p2280
aVVPKulesh@gmail.com
p2281
aVUserTrend
p2282
aVVPKulesh_20120521
p2283
asg13
(dp2284
g15
L14575L
sg16
F20.699999999999999
sg18
L0L
sg316
L6L
sg19
L5L
sg21
L9L
sg22
g23
(S'\x07\xdc\x05\x15'
tRp2285
sg26
(g7
(lp2286
VUser
p2287
aVVPKulesh@gmail.com
p2288
atp2289
sg31
Nssg32
(lp2290
VUser
p2291
aVVPKulesh@gmail.com
p2292
asa(dp2293
g5
VVPKulesh_20120522
p2294
sg7
(lp2295
VUser
p2296
aVVPKulesh@gmail.com
p2297
aVUserTrend
p2298
aVVPKulesh_20120522
p2299
asg13
(dp2300
g15
L14561L
sg16
F19.199999999999999
sg17
F1593.05
sg18
L0L
sg316
L5L
sg19
L4L
sg21
L10L
sg22
g23
(S'\x07\xdc\x05\x16'
tRp2301
sg25
F39.807699999999997
sg26
(g7
(lp2302
VUser
p2303
aVVPKulesh@gmail.com
p2304
atp2305
sg31
Nssg32
(lp2306
VUser
p2307
aVVPKulesh@gmail.com
p2308
asa(dp2309
g5
VVPKulesh_20120523
p2310
sg7
(lp2311
VUser
p2312
aVVPKulesh@gmail.com
p2313
aVUserTrend
p2314
aVVPKulesh_20120523
p2315
asg13
(dp2316
g15
L14567L
sg16
F20.300000000000001
sg17
F1573.77
sg18
L0L
sg316
L5L
sg19
L6L
sg21
L0L
sg22
g23
(S'\x07\xdc\x05\x17'
tRp2317
sg25
F39.7376
sg26
(g7
(lp2318
VUser
p2319
aVVPKulesh@gmail.com
p2320
atp2321
sg31
Nssg32
(lp2322
VUser
p2323
aVVPKulesh@gmail.com
p2324
asa(dp2325
g5
VVPKulesh_20120524
p2326
sg7
(lp2327
VUser
p2328
aVVPKulesh@gmail.com
p2329
aVUserTrend
p2330
aVVPKulesh_20120524
p2331
asg13
(dp2332
g15
L14578L
sg16
F21.199999999999999
sg17
F1568.8399999999999
sg18
L1L
sg316
L5L
sg19
L5L
sg21
L6L
sg22
g23
(S'\x07\xdc\x05\x18'
tRp2333
sg25
F39.765099999999997
sg26
(g7
(lp2334
VUser
p2335
aVVPKulesh@gmail.com
p2336
atp2337
sg31
Nssg32
(lp2338
VUser
p2339
aVVPKulesh@gmail.com
p2340
asa(dp2341
g5
VVPKulesh_20120525
p2342
sg7
(lp2343
VUser
p2344
aVVPKulesh@gmail.com
p2345
aVUserTrend
p2346
aVVPKulesh_20120525
p2347
asg13
(dp2348
g15
L14615L
sg16
F25.399999999999999
sg17
F1584.6199999999999
sg18
L2L
sg316
L4L
sg19
L5L
sg21
L0L
sg22
g23
(S'\x07\xdc\x05\x19'
tRp2349
sg25
F39.768099999999997
sg26
(g7
(lp2350
VUser
p2351
aVVPKulesh@gmail.com
p2352
atp2353
sg31
Nssg32
(lp2354
VUser
p2355
aVVPKulesh@gmail.com
p2356
asa(dp2357
g5
VVPKulesh_20120526
p2358
sg7
(lp2359
VUser
p2360
aVVPKulesh@gmail.com
p2361
aVUserTrend
p2362
aVVPKulesh_20120526
p2363
asg13
(dp2364
g15
L14613L
sg16
F21.199999999999999
sg17
F1593.3
sg18
L1L
sg316
L3L
sg19
L3L
sg21
L4L
sg22
g23
(S'\x07\xdc\x05\x1a'
tRp2365
sg25
F39.842599999999997
sg26
(g7
(lp2366
VUser
p2367
aVVPKulesh@gmail.com
p2368
atp2369
sg31
Nssg32
(lp2370
VUser
p2371
aVVPKulesh@gmail.com
p2372
asa(dp2373
g5
VVPKulesh_20120527
p2374
sg7
(lp2375
VUser
p2376
aVVPKulesh@gmail.com
p2377
aVUserTrend
p2378
aVVPKulesh_20120527
p2379
asg13
(dp2380
g15
L14613L
sg16
F19.899999999999999
sg18
L1L
sg316
L3L
sg19
L3L
sg21
L2L
sg22
g23
(S'\x07\xdc\x05\x1b'
tRp2381
sg26
(g7
(lp2382
VUser
p2383
aVVPKulesh@gmail.com
p2384
atp2385
sg31
Nssg32
(lp2386
VUser
p2387
aVVPKulesh@gmail.com
p2388
asa(dp2389
g5
VVPKulesh_20120528
p2390
sg7
(lp2391
VUser
p2392
aVVPKulesh@gmail.com
p2393
aVUserTrend
p2394
aVVPKulesh_20120528
p2395
asg13
(dp2396
g15
L14619L
sg16
F24
sg18
L0L
sg316
L5L
sg19
L8L
sg21
L7L
sg22
g23
(S'\x07\xdc\x05\x1c'
tRp2397
sg26
(g7
(lp2398
VUser
p2399
aVVPKulesh@gmail.com
p2400
atp2401
sg31
Nssg32
(lp2402
VUser
p2403
aVVPKulesh@gmail.com
p2404
asa(dp2405
g5
VVPKulesh_20120529
p2406
sg7
(lp2407
VUser
p2408
aVVPKulesh@gmail.com
p2409
aVUserTrend
p2410
aVVPKulesh_20120529
p2411
asg13
(dp2412
g15
L14589L
sg16
F23.399999999999999
sg17
F1615.73
sg18
L1L
sg316
L5L
sg19
L8L
sg21
L0L
sg22
g23
(S'\x07\xdc\x05\x1d'
tRp2413
sg25
F40.117899999999999
sg26
(g7
(lp2414
VUser
p2415
aVVPKulesh@gmail.com
p2416
atp2417
sg31
Nssg32
(lp2418
VUser
p2419
aVVPKulesh@gmail.com
p2420
asa(dp2421
g5
VVPKulesh_20120530
p2422
sg7
(lp2423
VUser
p2424
aVVPKulesh@gmail.com
p2425
aVUserTrend
p2426
aVVPKulesh_20120530
p2427
asg13
(dp2428
g15
L14618L
sg16
F17.600000000000001
sg17
F1623.46
sg18
L1L
sg316
L5L
sg19
L5L
sg21
L1L
sg22
g23
(S'\x07\xdc\x05\x1e'
tRp2429
sg25
F40.2423
sg26
(g7
(lp2430
VUser
p2431
aVVPKulesh@gmail.com
p2432
atp2433
sg31
Nssg32
(lp2434
VUser
p2435
aVVPKulesh@gmail.com
p2436
asa(dp2437
g5
VVPKulesh_20120531
p2438
sg7
(lp2439
VUser
p2440
aVVPKulesh@gmail.com
p2441
aVUserTrend
p2442
aVVPKulesh_20120531
p2443
asg13
(dp2444
g15
L14640L
sg16
F13.800000000000001
sg17
F1615.8399999999999
sg18
L2L
sg316
L5L
sg19
L7L
sg21
L0L
sg22
g23
(S'\x07\xdc\x05\x1f'
tRp2445
sg25
F40.459800000000001
sg26
(g7
(lp2446
VUser
p2447
aVVPKulesh@gmail.com
p2448
atp2449
sg31
Nssg32
(lp2450
VUser
p2451
aVVPKulesh@gmail.com
p2452
asa(dp2453
g5
VVPKulesh_20120601
p2454
sg7
(lp2455
VUser
p2456
aVVPKulesh@gmail.com
p2457
aVUserTrend
p2458
aVVPKulesh_20120601
p2459
asg13
(dp2460
g15
L14647L
sg16
F13.5
sg17
F1658.9100000000001
sg18
L1L
sg316
L5L
sg19
L7L
sg21
L4L
sg22
g23
(S'\x07\xdc\x06\x01'
tRp2461
sg25
F40.807600000000001
sg26
(g7
(lp2462
VUser
p2463
aVVPKulesh@gmail.com
p2464
atp2465
sg31
Nssg32
(lp2466
VUser
p2467
aVVPKulesh@gmail.com
p2468
asa(dp2469
g5
VVPKulesh_20120602
p2470
sg7
(lp2471
VUser
p2472
aVVPKulesh@gmail.com
p2473
aVUserTrend
p2474
aVVPKulesh_20120602
p2475
asg13
(dp2476
g15
L14651L
sg16
F14.199999999999999
sg17
F1684.02
sg18
L1L
sg316
L5L
sg19
L7L
sg21
L9L
sg22
g23
(S'\x07\xdc\x06\x02'
tRp2477
sg25
F41.680399999999999
sg26
(g7
(lp2478
VUser
p2479
aVVPKulesh@gmail.com
p2480
atp2481
sg31
Nssg32
(lp2482
VUser
p2483
aVVPKulesh@gmail.com
p2484
asa(dp2485
g5
VVPKulesh_20120603
p2486
sg7
(lp2487
VUser
p2488
aVVPKulesh@gmail.com
p2489
aVUserTrend
p2490
aVVPKulesh_20120603
p2491
asg13
(dp2492
g15
L14651L
sg16
F15
sg18
L0L
sg316
L2L
sg19
L0L
sg21
L4L
sg22
g23
(S'\x07\xdc\x06\x03'
tRp2493
sg26
(g7
(lp2494
VUser
p2495
aVVPKulesh@gmail.com
p2496
atp2497
sg31
Nssg32
(lp2498
VUser
p2499
aVVPKulesh@gmail.com
p2500
asa(dp2501
g5
VVPKulesh_20120604
p2502
sg7
(lp2503
VUser
p2504
aVVPKulesh@gmail.com
p2505
aVUserTrend
p2506
aVVPKulesh_20120604
p2507
asg13
(dp2508
g15
L14659L
sg16
F13.4
sg18
L1L
sg316
L5L
sg19
L9L
sg21
L10L
sg22
g23
(S'\x07\xdc\x06\x04'
tRp2509
sg26
(g7
(lp2510
VUser
p2511
aVVPKulesh@gmail.com
p2512
atp2513
sg31
Nssg32
(lp2514
VUser
p2515
aVVPKulesh@gmail.com
p2516
asa(dp2517
g5
VVPKulesh_20120605
p2518
sg7
(lp2519
VUser
p2520
aVVPKulesh@gmail.com
p2521
aVUserTrend
p2522
aVVPKulesh_20120605
p2523
asg13
(dp2524
g15
L14597L
sg16
F14.9
sg17
F1757.5999999999999
sg18
L1L
sg316
L6L
sg19
L1L
sg21
L8L
sg22
g23
(S'\x07\xdc\x06\x05'
tRp2525
sg25
F42.246400000000001
sg26
(g7
(lp2526
VUser
p2527
aVVPKulesh@gmail.com
p2528
atp2529
sg31
Nssg32
(lp2530
VUser
p2531
aVVPKulesh@gmail.com
p2532
asa(dp2533
g5
VVPKulesh_20120606
p2534
sg7
(lp2535
VUser
p2536
aVVPKulesh@gmail.com
p2537
aVUserTrend
p2538
aVVPKulesh_20120606
p2539
asg13
(dp2540
g15
L14655L
sg16
F18.699999999999999
sg17
F1714.26
sg18
L0L
sg316
L3L
sg19
L0L
sg21
L9L
sg22
g23
(S'\x07\xdc\x06\x06'
tRp2541
sg25
F41.506799999999998
sg26
(g7
(lp2542
VUser
p2543
aVVPKulesh@gmail.com
p2544
atp2545
sg31
Nssg32
(lp2546
VUser
p2547
aVVPKulesh@gmail.com
p2548
asa(dp2549
g5
VVPKulesh_20120607
p2550
sg7
(lp2551
VUser
p2552
aVVPKulesh@gmail.com
p2553
aVUserTrend
p2554
aVVPKulesh_20120607
p2555
asg13
(dp2556
g15
L14677L
sg16
F19.100000000000001
sg17
F1721.75
sg18
L0L
sg316
L2L
sg19
L2L
sg21
L6L
sg22
g23
(S'\x07\xdc\x06\x07'
tRp2557
sg25
F40.950099999999999
sg26
(g7
(lp2558
VUser
p2559
aVVPKulesh@gmail.com
p2560
atp2561
sg31
Nssg32
(lp2562
VUser
p2563
aVVPKulesh@gmail.com
p2564
asa(dp2565
g5
VVPKulesh_20120608
p2566
sg7
(lp2567
VUser
p2568
aVVPKulesh@gmail.com
p2569
aVUserTrend
p2570
aVVPKulesh_20120608
p2571
asg13
(dp2572
g15
L14689L
sg16
F20.699999999999999
sg17
F1677.48
sg18
L0L
sg316
L5L
sg19
L1L
sg21
L7L
sg22
g23
(S'\x07\xdc\x06\x08'
tRp2573
sg25
F40.420499999999997
sg26
(g7
(lp2574
VUser
p2575
aVVPKulesh@gmail.com
p2576
atp2577
sg31
Nssg32
(lp2578
VUser
p2579
aVVPKulesh@gmail.com
p2580
asa(dp2581
g5
VVPKulesh_20120609
p2582
sg7
(lp2583
VUser
p2584
aVVPKulesh@gmail.com
p2585
aVUserTrend
p2586
aVVPKulesh_20120609
p2587
asg13
(dp2588
g15
L14689L
sg16
F21.199999999999999
sg17
F1658.71
sg18
L1L
sg316
L7L
sg19
L0L
sg21
L9L
sg22
g23
(S'\x07\xdc\x06\t'
tRp2589
sg25
F40.906700000000001
sg26
(g7
(lp2590
VUser
p2591
aVVPKulesh@gmail.com
p2592
atp2593
sg31
Nssg32
(lp2594
VUser
p2595
aVVPKulesh@gmail.com
p2596
asa(dp2597
g5
VVPKulesh_20120610
p2598
sg7
(lp2599
VUser
p2600
aVVPKulesh@gmail.com
p2601
aVUserTrend
p2602
aVVPKulesh_20120610
p2603
asg13
(dp2604
g15
L14693L
sg16
F22.600000000000001
sg17
F1651.6500000000001
sg18
L1L
sg316
L4L
sg19
L0L
sg21
L8L
sg22
g23
(S'\x07\xdc\x06\n'
tRp2605
sg25
F40.791400000000003
sg26
(g7
(lp2606
VUser
p2607
aVVPKulesh@gmail.com
p2608
atp2609
sg31
Nssg32
(lp2610
VUser
p2611
aVVPKulesh@gmail.com
p2612
asa(dp2613
g5
VVPKulesh_20120611
p2614
sg7
(lp2615
VUser
p2616
aVVPKulesh@gmail.com
p2617
aVUserTrend
p2618
aVVPKulesh_20120611
p2619
asg13
(dp2620
g15
L14714L
sg16
F23.699999999999999
sg18
L3L
sg316
L5L
sg19
L1L
sg21
L1L
sg22
g23
(S'\x07\xdc\x06\x0b'
tRp2621
sg26
(g7
(lp2622
VUser
p2623
aVVPKulesh@gmail.com
p2624
atp2625
sg31
Nssg32
(lp2626
VUser
p2627
aVVPKulesh@gmail.com
p2628
asa(dp2629
g5
VVPKulesh_20120612
p2630
sg7
(lp2631
VUser
p2632
aVVPKulesh@gmail.com
p2633
aVUserTrend
p2634
aVVPKulesh_20120612
p2635
asg13
(dp2636
g15
L14700L
sg16
F19.399999999999999
sg18
L1L
sg316
L5L
sg19
L5L
sg21
L4L
sg22
g23
(S'\x07\xdc\x06\x0c'
tRp2637
sg26
(g7
(lp2638
VUser
p2639
aVVPKulesh@gmail.com
p2640
atp2641
sg31
Nssg32
(lp2642
VUser
p2643
aVVPKulesh@gmail.com
p2644
asa(dp2645
g5
VVPKulesh_20120613
p2646
sg7
(lp2647
VUser
p2648
aVVPKulesh@gmail.com
p2649
aVUserTrend
p2650
aVVPKulesh_20120613
p2651
asg13
(dp2652
g15
L14703L
sg16
F15.4
sg18
L1L
sg316
L7L
sg19
L10L
sg21
L7L
sg22
g23
(S'\x07\xdc\x06\r'
tRp2653
sg26
(g7
(lp2654
VUser
p2655
aVVPKulesh@gmail.com
p2656
atp2657
sg31
Nssg32
(lp2658
VUser
p2659
aVVPKulesh@gmail.com
p2660
asa(dp2661
g5
VVPKulesh_20120614
p2662
sg7
(lp2663
VUser
p2664
aVVPKulesh@gmail.com
p2665
aVUserTrend
p2666
aVVPKulesh_20120614
p2667
asg13
(dp2668
g15
L14635L
sg16
F16.800000000000001
sg17
F1697.25
sg18
L0L
sg316
L4L
sg19
L3L
sg21
L1L
sg22
g23
(S'\x07\xdc\x06\x0e'
tRp2669
sg25
F40.942599999999999
sg26
(g7
(lp2670
VUser
p2671
aVVPKulesh@gmail.com
p2672
atp2673
sg31
Nssg32
(lp2674
VUser
p2675
aVVPKulesh@gmail.com
p2676
asa(dp2677
g5
VVPKulesh_20120615
p2678
sg7
(lp2679
VUser
p2680
aVVPKulesh@gmail.com
p2681
aVUserTrend
p2682
aVVPKulesh_20120615
p2683
asg13
(dp2684
g15
L14743L
sg16
F19.899999999999999
sg17
F1695.6800000000001
sg18
L1L
sg316
L3L
sg19
L4L
sg21
L9L
sg22
g23
(S'\x07\xdc\x06\x0f'
tRp2685
sg25
F40.939
sg26
(g7
(lp2686
VUser
p2687
aVVPKulesh@gmail.com
p2688
atp2689
sg31
Nssg32
(lp2690
VUser
p2691
aVVPKulesh@gmail.com
p2692
asa(dp2693
g5
VVPKulesh_20120616
p2694
sg7
(lp2695
VUser
p2696
aVVPKulesh@gmail.com
p2697
aVUserTrend
p2698
aVVPKulesh_20120616
p2699
asg13
(dp2700
g15
L14755L
sg16
F22.399999999999999
sg17
F1689.5799999999999
sg18
L0L
sg316
L4L
sg19
L4L
sg21
L0L
sg22
g23
(S'\x07\xdc\x06\x10'
tRp2701
sg25
F40.907800000000002
sg26
(g7
(lp2702
VUser
p2703
aVVPKulesh@gmail.com
p2704
atp2705
sg31
Nssg32
(lp2706
VUser
p2707
aVVPKulesh@gmail.com
p2708
asa(dp2709
g5
VVPKulesh_20120617
p2710
sg7
(lp2711
VUser
p2712
aVVPKulesh@gmail.com
p2713
aVUserTrend
p2714
aVVPKulesh_20120617
p2715
asg13
(dp2716
g15
L14756L
sg16
F22.399999999999999
sg18
L0L
sg316
L7L
sg19
L10L
sg21
L0L
sg22
g23
(S'\x07\xdc\x06\x11'
tRp2717
sg26
(g7
(lp2718
VUser
p2719
aVVPKulesh@gmail.com
p2720
atp2721
sg31
Nssg32
(lp2722
VUser
p2723
aVVPKulesh@gmail.com
p2724
asa(dp2725
g5
VVPKulesh_20120618
p2726
sg7
(lp2727
VUser
p2728
aVVPKulesh@gmail.com
p2729
aVUserTrend
p2730
aVVPKulesh_20120618
p2731
asg13
(dp2732
g15
L14778L
sg16
F23.800000000000001
sg18
L0L
sg316
L3L
sg19
L8L
sg21
L1L
sg22
g23
(S'\x07\xdc\x06\x12'
tRp2733
sg26
(g7
(lp2734
VUser
p2735
aVVPKulesh@gmail.com
p2736
atp2737
sg31
Nssg32
(lp2738
VUser
p2739
aVVPKulesh@gmail.com
p2740
asa(dp2741
g5
VVPKulesh_20120619
p2742
sg7
(lp2743
VUser
p2744
aVVPKulesh@gmail.com
p2745
aVUserTrend
p2746
aVVPKulesh_20120619
p2747
asg13
(dp2748
g15
L14766L
sg16
F26.800000000000001
sg17
F1677.1600000000001
sg18
L3L
sg316
L5L
sg19
L1L
sg21
L0L
sg22
g23
(S'\x07\xdc\x06\x13'
tRp2749
sg25
F40.823099999999997
sg26
(g7
(lp2750
VUser
p2751
aVVPKulesh@gmail.com
p2752
atp2753
sg31
Nssg32
(lp2754
VUser
p2755
aVVPKulesh@gmail.com
p2756
asa(dp2757
g5
VVPKulesh_20120620
p2758
sg7
(lp2759
VUser
p2760
aVVPKulesh@gmail.com
p2761
aVUserTrend
p2762
aVVPKulesh_20120620
p2763
asg13
(dp2764
g15
L14784L
sg16
F29.5
sg17
F1703.27
sg18
L10L
sg316
L5L
sg19
L10L
sg21
L1L
sg22
g23
(S'\x07\xdc\x06\x14'
tRp2765
sg25
F41.006
sg26
(g7
(lp2766
VUser
p2767
aVVPKulesh@gmail.com
p2768
atp2769
sg31
Nssg32
(lp2770
VUser
p2771
aVVPKulesh@gmail.com
p2772
asa(dp2773
g5
VVPKulesh_20120621
p2774
sg7
(lp2775
VUser
p2776
aVVPKulesh@gmail.com
p2777
aVUserTrend
p2778
aVVPKulesh_20120621
p2779
asg13
(dp2780
g15
L14813L
sg16
F27.5
sg17
F1692.29
sg18
L0L
sg316
L5L
sg19
L7L
sg21
L7L
sg22
g23
(S'\x07\xdc\x06\x15'
tRp2781
sg25
F41.244100000000003
sg26
(g7
(lp2782
VUser
p2783
aVVPKulesh@gmail.com
p2784
atp2785
sg31
Nssg32
(lp2786
VUser
p2787
aVVPKulesh@gmail.com
p2788
asa(dp2789
g5
VVPKulesh_20120622
p2790
sg7
(lp2791
VUser
p2792
aVVPKulesh@gmail.com
p2793
aVUserTrend
p2794
aVVPKulesh_20120622
p2795
asg13
(dp2796
g15
L14815L
sg16
F21.899999999999999
sg17
F1692.6900000000001
sg18
L0L
sg316
L7L
sg19
L4L
sg21
L3L
sg22
g23
(S'\x07\xdc\x06\x16'
tRp2797
sg25
F41.720799999999997
sg26
(g7
(lp2798
VUser
p2799
aVVPKulesh@gmail.com
p2800
atp2801
sg31
Nssg32
(lp2802
VUser
p2803
aVVPKulesh@gmail.com
p2804
asa(dp2805
g5
VVPKulesh_20120623
p2806
sg7
(lp2807
VUser
p2808
aVVPKulesh@gmail.com
p2809
aVUserTrend
p2810
aVVPKulesh_20120623
p2811
asg13
(dp2812
g15
L14813L
sg16
F20.399999999999999
sg17
F1692.47
sg18
L1L
sg316
L6L
sg19
L7L
sg21
L5L
sg22
g23
(S'\x07\xdc\x06\x17'
tRp2813
sg25
F42.046399999999998
sg26
(g7
(lp2814
VUser
p2815
aVVPKulesh@gmail.com
p2816
atp2817
sg31
Nssg32
(lp2818
VUser
p2819
aVVPKulesh@gmail.com
p2820
asa(dp2821
g5
VVPKulesh_20120624
p2822
sg7
(lp2823
VUser
p2824
aVVPKulesh@gmail.com
p2825
aVUserTrend
p2826
aVVPKulesh_20120624
p2827
asg13
(dp2828
g15
L14821L
sg16
F20.899999999999999
sg18
L3L
sg316
L7L
sg19
L3L
sg21
L5L
sg22
g23
(S'\x07\xdc\x06\x18'
tRp2829
sg26
(g7
(lp2830
VUser
p2831
aVVPKulesh@gmail.com
p2832
atp2833
sg31
Nssg32
(lp2834
VUser
p2835
aVVPKulesh@gmail.com
p2836
asa(dp2837
g5
VVPKulesh_20120625
p2838
sg7
(lp2839
VUser
p2840
aVVPKulesh@gmail.com
p2841
aVUserTrend
p2842
aVVPKulesh_20120625
p2843
asg13
(dp2844
g15
L14835L
sg16
F17.600000000000001
sg18
L0L
sg316
L1L
sg19
L3L
sg21
L0L
sg22
g23
(S'\x07\xdc\x06\x19'
tRp2845
sg26
(g7
(lp2846
VUser
p2847
aVVPKulesh@gmail.com
p2848
atp2849
sg31
Nssg32
(lp2850
VUser
p2851
aVVPKulesh@gmail.com
p2852
asa(dp2853
g5
VVPKulesh_20120626
p2854
sg7
(lp2855
VUser
p2856
aVVPKulesh@gmail.com
p2857
aVUserTrend
p2858
aVVPKulesh_20120626
p2859
asg13
(dp2860
g15
L14813L
sg16
F20
sg17
F1673.21
sg18
L0L
sg316
L3L
sg19
L8L
sg21
L9L
sg22
g23
(S'\x07\xdc\x06\x1a'
tRp2861
sg25
F41.498100000000001
sg26
(g7
(lp2862
VUser
p2863
aVVPKulesh@gmail.com
p2864
atp2865
sg31
Nssg32
(lp2866
VUser
p2867
aVVPKulesh@gmail.com
p2868
asa(dp2869
g5
VVPKulesh_20120627
p2870
sg7
(lp2871
VUser
p2872
aVVPKulesh@gmail.com
p2873
aVUserTrend
p2874
aVVPKulesh_20120627
p2875
asg13
(dp2876
g15
L14823L
sg16
F20.300000000000001
sg17
F1688.5999999999999
sg18
L1L
sg316
L2L
sg19
L8L
sg21
L2L
sg22
g23
(S'\x07\xdc\x06\x1b'
tRp2877
sg25
F41.496400000000001
sg26
(g7
(lp2878
VUser
p2879
aVVPKulesh@gmail.com
p2880
atp2881
sg31
Nssg32
(lp2882
VUser
p2883
aVVPKulesh@gmail.com
p2884
asa(dp2885
g5
VVPKulesh_20120628
p2886
sg7
(lp2887
VUser
p2888
aVVPKulesh@gmail.com
p2889
aVUserTrend
p2890
aVVPKulesh_20120628
p2891
asg13
(dp2892
g15
L14859L
sg16
F24
sg17
F1654.9300000000001
sg18
L1L
sg316
L5L
sg19
L2L
sg21
L1L
sg22
g23
(S'\x07\xdc\x06\x1c'
tRp2893
sg25
F41.021700000000003
sg26
(g7
(lp2894
VUser
p2895
aVVPKulesh@gmail.com
p2896
atp2897
sg31
Nssg32
(lp2898
VUser
p2899
aVVPKulesh@gmail.com
p2900
asa(dp2901
g5
VVPKulesh_20120629
p2902
sg7
(lp2903
VUser
p2904
aVVPKulesh@gmail.com
p2905
aVUserTrend
p2906
aVVPKulesh_20120629
p2907
asg13
(dp2908
g15
L14865L
sg16
F26.199999999999999
sg17
F1660.3800000000001
sg18
L1L
sg316
L4L
sg19
L6L
sg21
L3L
sg22
g23
(S'\x07\xdc\x06\x1d'
tRp2909
sg25
F41.196300000000001
sg26
(g7
(lp2910
VUser
p2911
aVVPKulesh@gmail.com
p2912
atp2913
sg31
Nssg32
(lp2914
VUser
p2915
aVVPKulesh@gmail.com
p2916
asa(dp2917
g5
VVPKulesh_20120630
p2918
sg7
(lp2919
VUser
p2920
aVVPKulesh@gmail.com
p2921
aVUserTrend
p2922
aVVPKulesh_20120630
p2923
asg13
(dp2924
g15
L14887L
sg16
F26.199999999999999
sg17
F1655.96
sg18
L0L
sg316
L5L
sg19
L9L
sg21
L9L
sg22
g23
(S'\x07\xdc\x06\x1e'
tRp2925
sg25
F41.323
sg26
(g7
(lp2926
VUser
p2927
aVVPKulesh@gmail.com
p2928
atp2929
sg31
Nssg32
(lp2930
VUser
p2931
aVVPKulesh@gmail.com
p2932
asa(dp2933
g5
VVPKulesh_20120701
p2934
sg7
(lp2935
VUser
p2936
aVVPKulesh@gmail.com
p2937
aVUserTrend
p2938
aVVPKulesh_20120701
p2939
asg13
(dp2940
g15
L14887L
sg16
F25.199999999999999
sg18
L1L
sg316
L3L
sg19
L10L
sg21
L6L
sg22
g23
(S'\x07\xdc\x07\x01'
tRp2941
sg26
(g7
(lp2942
VUser
p2943
aVVPKulesh@gmail.com
p2944
atp2945
sg31
Nssg32
(lp2946
VUser
p2947
aVVPKulesh@gmail.com
p2948
asa(dp2949
g5
VVPKulesh_20120702
p2950
sg7
(lp2951
VUser
p2952
aVVPKulesh@gmail.com
p2953
aVUserTrend
p2954
aVVPKulesh_20120702
p2955
asg13
(dp2956
g15
L14899L
sg16
F23.800000000000001
sg18
L0L
sg316
L4L
sg19
L1L
sg21
L0L
sg22
g23
(S'\x07\xdc\x07\x02'
tRp2957
sg26
(g7
(lp2958
VUser
p2959
aVVPKulesh@gmail.com
p2960
atp2961
sg31
Nssg32
(lp2962
VUser
p2963
aVVPKulesh@gmail.com
p2964
asa(dp2965
g5
VVPKulesh_20120703
p2966
sg7
(lp2967
VUser
p2968
aVVPKulesh@gmail.com
p2969
aVUserTrend
p2970
aVVPKulesh_20120703
p2971
asg13
(dp2972
g15
L14877L
sg16
F23.5
sg17
F1669.3900000000001
sg18
L1L
sg316
L3L
sg19
L3L
sg21
L9L
sg22
g23
(S'\x07\xdc\x07\x03'
tRp2973
sg25
F41.0642
sg26
(g7
(lp2974
VUser
p2975
aVVPKulesh@gmail.com
p2976
atp2977
sg31
Nssg32
(lp2978
VUser
p2979
aVVPKulesh@gmail.com
p2980
asa(dp2981
g5
VVPKulesh_20120704
p2982
sg7
(lp2983
VUser
p2984
aVVPKulesh@gmail.com
p2985
aVUserTrend
p2986
aVVPKulesh_20120704
p2987
asg13
(dp2988
g15
L14886L
sg16
F28.399999999999999
sg17
F1679.6300000000001
sg18
L0L
sg316
L6L
sg19
L2L
sg21
L7L
sg22
g23
(S'\x07\xdc\x07\x04'
tRp2989
sg25
F40.933199999999999
sg26
(g7
(lp2990
VUser
p2991
aVVPKulesh@gmail.com
p2992
atp2993
sg31
Nssg32
(lp2994
VUser
p2995
aVVPKulesh@gmail.com
p2996
asa(dp2997
g5
VVPKulesh_20120705
p2998
sg7
(lp2999
VUser
p3000
aVVPKulesh@gmail.com
p3001
aVUserTrend
p3002
aVVPKulesh_20120705
p3003
asg13
(dp3004
g15
L14922L
sg16
F24
sg17
F1674.3399999999999
sg18
L1L
sg316
L5L
sg19
L8L
sg21
L6L
sg22
g23
(S'\x07\xdc\x07\x05'
tRp3005
sg25
F40.551200000000001
sg26
(g7
(lp3006
VUser
p3007
aVVPKulesh@gmail.com
p3008
atp3009
sg31
Nssg32
(lp3010
VUser
p3011
aVVPKulesh@gmail.com
p3012
asa(dp3013
g5
VVPKulesh_20120706
p3014
sg7
(lp3015
VUser
p3016
aVVPKulesh@gmail.com
p3017
aVUserTrend
p3018
aVVPKulesh_20120706
p3019
asg13
(dp3020
g15
L14937L
sg16
F29.100000000000001
sg17
F1687.9200000000001
sg18
L2L
sg316
L5L
sg19
L0L
sg21
L0L
sg22
g23
(S'\x07\xdc\x07\x06'
tRp3021
sg25
F40.685000000000002
sg26
(g7
(lp3022
VUser
p3023
aVVPKulesh@gmail.com
p3024
atp3025
sg31
Nssg32
(lp3026
VUser
p3027
aVVPKulesh@gmail.com
p3028
asa(dp3029
g5
VVPKulesh_20120707
p3030
sg7
(lp3031
VUser
p3032
aVVPKulesh@gmail.com
p3033
aVUserTrend
p3034
aVVPKulesh_20120707
p3035
asg13
(dp3036
g15
L14935L
sg16
F24.300000000000001
sg17
F1669.5599999999999
sg18
L0L
sg316
L7L
sg19
L9L
sg21
L2L
sg22
g23
(S'\x07\xdc\x07\x07'
tRp3037
sg25
F40.388500000000001
sg26
(g7
(lp3038
VUser
p3039
aVVPKulesh@gmail.com
p3040
atp3041
sg31
Nssg32
(lp3042
VUser
p3043
aVVPKulesh@gmail.com
p3044
asa(dp3045
g5
VVPKulesh_20120708
p3046
sg7
(lp3047
VUser
p3048
aVVPKulesh@gmail.com
p3049
aVUserTrend
p3050
aVVPKulesh_20120708
p3051
asg13
(dp3052
g15
L14935L
sg16
F22.399999999999999
sg18
L0L
sg316
L4L
sg19
L5L
sg21
L2L
sg22
g23
(S'\x07\xdc\x07\x08'
tRp3053
sg26
(g7
(lp3054
VUser
p3055
aVVPKulesh@gmail.com
p3056
atp3057
sg31
Nssg32
(lp3058
VUser
p3059
aVVPKulesh@gmail.com
p3060
asa(dp3061
g5
VVPKulesh_20120709
p3062
sg7
(lp3063
VUser
p3064
aVVPKulesh@gmail.com
p3065
aVUserTrend
p3066
aVVPKulesh_20120709
p3067
asg13
(dp3068
g15
L14947L
sg16
F21.399999999999999
sg18
L2L
sg316
L5L
sg19
L10L
sg21
L0L
sg22
g23
(S'\x07\xdc\x07\t'
tRp3069
sg26
(g7
(lp3070
VUser
p3071
aVVPKulesh@gmail.com
p3072
atp3073
sg31
Nssg32
(lp3074
VUser
p3075
aVVPKulesh@gmail.com
p3076
asa(dp3077
g5
VVPKulesh_20120710
p3078
sg7
(lp3079
VUser
p3080
aVVPKulesh@gmail.com
p3081
aVUserTrend
p3082
aVVPKulesh_20120710
p3083
asg13
(dp3084
g15
L14947L
sg16
F22.600000000000001
sg17
F1676.9300000000001
sg18
L0L
sg316
L5L
sg19
L10L
sg21
L4L
sg22
g23
(S'\x07\xdc\x07\n'
tRp3085
sg25
F40.552199999999999
sg26
(g7
(lp3086
VUser
p3087
aVVPKulesh@gmail.com
p3088
atp3089
sg31
Nssg32
(lp3090
VUser
p3091
aVVPKulesh@gmail.com
p3092
asa(dp3093
g5
VVPKulesh_20120711
p3094
sg7
(lp3095
VUser
p3096
aVVPKulesh@gmail.com
p3097
aVUserTrend
p3098
aVVPKulesh_20120711
p3099
asg13
(dp3100
g15
L14956L
sg16
F22.800000000000001
sg17
F1690.46
sg18
L0L
sg316
L4L
sg19
L1L
sg21
L9L
sg22
g23
(S'\x07\xdc\x07\x0b'
tRp3101
sg25
F40.536700000000003
sg26
(g7
(lp3102
VUser
p3103
aVVPKulesh@gmail.com
p3104
atp3105
sg31
Nssg32
(lp3106
VUser
p3107
aVVPKulesh@gmail.com
p3108
asa(dp3109
g5
VVPKulesh_20120712
p3110
sg7
(lp3111
VUser
p3112
aVVPKulesh@gmail.com
p3113
aVUserTrend
p3114
aVVPKulesh_20120712
p3115
asg13
(dp3116
g15
L14983L
sg16
F24
sg17
F1663.9200000000001
sg18
L1L
sg316
L8L
sg19
L8L
sg21
L6L
sg22
g23
(S'\x07\xdc\x07\x0c'
tRp3117
sg25
F40.263800000000003
sg26
(g7
(lp3118
VUser
p3119
aVVPKulesh@gmail.com
p3120
atp3121
sg31
Nssg32
(lp3122
VUser
p3123
aVVPKulesh@gmail.com
p3124
asa(dp3125
g5
VVPKulesh_20120713
p3126
sg7
(lp3127
VUser
p3128
aVVPKulesh@gmail.com
p3129
aVUserTrend
p3130
aVVPKulesh_20120713
p3131
asg13
(dp3132
g15
L14976L
sg16
F25.899999999999999
sg17
F1646.75
sg18
L3L
sg316
L4L
sg19
L8L
sg21
L9L
sg22
g23
(S'\x07\xdc\x07\r'
tRp3133
sg25
F40.007199999999997
sg26
(g7
(lp3134
VUser
p3135
aVVPKulesh@gmail.com
p3136
atp3137
sg31
Nssg32
(lp3138
VUser
p3139
aVVPKulesh@gmail.com
p3140
asa(dp3141
g5
VVPKulesh_20120714
p3142
sg7
(lp3143
VUser
p3144
aVVPKulesh@gmail.com
p3145
aVUserTrend
p3146
aVVPKulesh_20120714
p3147
asg13
(dp3148
g15
L14975L
sg16
F26.300000000000001
sg17
F1657.97
sg18
L3L
sg316
L4L
sg19
L1L
sg21
L10L
sg22
g23
(S'\x07\xdc\x07\x0e'
tRp3149
sg25
F39.8277
sg26
(g7
(lp3150
VUser
p3151
aVVPKulesh@gmail.com
p3152
atp3153
sg31
Nssg32
(lp3154
VUser
p3155
aVVPKulesh@gmail.com
p3156
asa(dp3157
g5
VVPKulesh_20120715
p3158
sg7
(lp3159
VUser
p3160
aVVPKulesh@gmail.com
p3161
aVUserTrend
p3162
aVVPKulesh_20120715
p3163
asg13
(dp3164
g15
L14975L
sg16
F26.600000000000001
sg18
L0L
sg316
L6L
sg19
L4L
sg21
L10L
sg22
g23
(S'\x07\xdc\x07\x0f'
tRp3165
sg26
(g7
(lp3166
VUser
p3167
aVVPKulesh@gmail.com
p3168
atp3169
sg31
Nssg32
(lp3170
VUser
p3171
aVVPKulesh@gmail.com
p3172
asa(dp3173
g5
VVPKulesh_20120716
p3174
sg7
(lp3175
VUser
p3176
aVVPKulesh@gmail.com
p3177
aVUserTrend
p3178
aVVPKulesh_20120716
p3179
asg13
(dp3180
g15
L15008L
sg16
F27.100000000000001
sg18
L1L
sg316
L5L
sg19
L6L
sg21
L0L
sg22
g23
(S'\x07\xdc\x07\x10'
tRp3181
sg26
(g7
(lp3182
VUser
p3183
aVVPKulesh@gmail.com
p3184
atp3185
sg31
Nssg32
(lp3186
VUser
p3187
aVVPKulesh@gmail.com
p3188
asa(dp3189
g5
VVPKulesh_20120717
p3190
sg7
(lp3191
VUser
p3192
aVVPKulesh@gmail.com
p3193
aVUserTrend
p3194
aVVPKulesh_20120717
p3195
asg13
(dp3196
g15
L14963L
sg16
F29.600000000000001
sg17
F1661.27
sg18
L1L
sg316
L7L
sg19
L2L
sg21
L9L
sg22
g23
(S'\x07\xdc\x07\x11'
tRp3197
sg25
F39.898499999999999
sg26
(g7
(lp3198
VUser
p3199
aVVPKulesh@gmail.com
p3200
atp3201
sg31
Nssg32
(lp3202
VUser
p3203
aVVPKulesh@gmail.com
p3204
asa(dp3205
g5
VVPKulesh_20120718
p3206
sg7
(lp3207
VUser
p3208
aVVPKulesh@gmail.com
p3209
aVUserTrend
p3210
aVVPKulesh_20120718
p3211
asg13
(dp3212
g15
L14975L
sg16
F23.600000000000001
sg17
F1666.3800000000001
sg18
L1L
sg316
L7L
sg19
L8L
sg21
L8L
sg22
g23
(S'\x07\xdc\x07\x12'
tRp3213
sg25
F39.923999999999999
sg26
(g7
(lp3214
VUser
p3215
aVVPKulesh@gmail.com
p3216
atp3217
sg31
Nssg32
(lp3218
VUser
p3219
aVVPKulesh@gmail.com
p3220
asa(dp3221
g5
VVPKulesh_20120719
p3222
sg7
(lp3223
VUser
p3224
aVVPKulesh@gmail.com
p3225
aVUserTrend
p3226
aVVPKulesh_20120719
p3227
asg13
(dp3228
g15
L14986L
sg16
F21
sg17
F1645.55
sg18
L1L
sg316
L8L
sg19
L10L
sg21
L0L
sg22
g23
(S'\x07\xdc\x07\x13'
tRp3229
sg25
F39.802
sg26
(g7
(lp3230
VUser
p3231
aVVPKulesh@gmail.com
p3232
atp3233
sg31
Nssg32
(lp3234
VUser
p3235
aVVPKulesh@gmail.com
p3236
asa(dp3237
g5
VVPKulesh_20120720
p3238
sg7
(lp3239
VUser
p3240
aVVPKulesh@gmail.com
p3241
aVUserTrend
p3242
aVVPKulesh_20120720
p3243
asg13
(dp3244
g15
L15006L
sg16
F21.300000000000001
sg17
F1629.4200000000001
sg18
L2L
sg316
L7L
sg19
L8L
sg21
L3L
sg22
g23
(S'\x07\xdc\x07\x14'
tRp3245
sg25
F39.421900000000001
sg26
(g7
(lp3246
VUser
p3247
aVVPKulesh@gmail.com
p3248
atp3249
sg31
Nssg32
(lp3250
VUser
p3251
aVVPKulesh@gmail.com
p3252
asa(dp3253
g5
VVPKulesh_20120721
p3254
sg7
(lp3255
VUser
p3256
aVVPKulesh@gmail.com
p3257
aVUserTrend
p3258
aVVPKulesh_20120721
p3259
asg13
(dp3260
g15
L14999L
sg16
F22.100000000000001
sg17
F1626.1300000000001
sg18
L1L
sg316
L6L
sg19
L4L
sg21
L8L
sg22
g23
(S'\x07\xdc\x07\x15'
tRp3261
sg25
F39.168599999999998
sg26
(g7
(lp3262
VUser
p3263
aVVPKulesh@gmail.com
p3264
atp3265
sg31
Nssg32
(lp3266
VUser
p3267
aVVPKulesh@gmail.com
p3268
asa(dp3269
g5
VVPKulesh_20120722
p3270
sg7
(lp3271
VUser
p3272
aVVPKulesh@gmail.com
p3273
aVUserTrend
p3274
aVVPKulesh_20120722
p3275
asg13
(dp3276
g15
L15009L
sg16
F25.600000000000001
sg18
L1L
sg316
L6L
sg19
L5L
sg21
L4L
sg22
g23
(S'\x07\xdc\x07\x16'
tRp3277
sg26
(g7
(lp3278
VUser
p3279
aVVPKulesh@gmail.com
p3280
atp3281
sg31
Nssg32
(lp3282
VUser
p3283
aVVPKulesh@gmail.com
p3284
asa(dp3285
g5
VVPKulesh_20120723
p3286
sg7
(lp3287
VUser
p3288
aVVPKulesh@gmail.com
p3289
aVUserTrend
p3290
aVVPKulesh_20120723
p3291
asg13
(dp3292
g15
L15011L
sg16
F28.199999999999999
sg18
L1L
sg316
L6L
sg19
L6L
sg21
L9L
sg22
g23
(S'\x07\xdc\x07\x17'
tRp3293
sg26
(g7
(lp3294
VUser
p3295
aVVPKulesh@gmail.com
p3296
atp3297
sg31
Nssg32
(lp3298
VUser
p3299
aVVPKulesh@gmail.com
p3300
asa(dp3301
g5
VVPKulesh_20120724
p3302
sg7
(lp3303
VUser
p3304
aVVPKulesh@gmail.com
p3305
aVUserTrend
p3306
aVVPKulesh_20120724
p3307
asg13
(dp3308
g15
L14993L
sg16
F24.899999999999999
sg17
F1635.79
sg18
L2L
sg316
L6L
sg19
L3L
sg21
L1L
sg22
g23
(S'\x07\xdc\x07\x18'
tRp3309
sg25
F39.161999999999999
sg26
(g7
(lp3310
VUser
p3311
aVVPKulesh@gmail.com
p3312
atp3313
sg31
Nssg32
(lp3314
VUser
p3315
aVVPKulesh@gmail.com
p3316
asa(dp3317
g5
VVPKulesh_20120725
p3318
sg7
(lp3319
VUser
p3320
aVVPKulesh@gmail.com
p3321
aVUserTrend
p3322
aVVPKulesh_20120725
p3323
asg13
(dp3324
g15
L15003L
sg16
F23
sg17
F1650.3199999999999
sg18
L2L
sg316
L5L
sg19
L10L
sg21
L10L
sg22
g23
(S'\x07\xdc\x07\x19'
tRp3325
sg25
F39.537399999999998
sg26
(g7
(lp3326
VUser
p3327
aVVPKulesh@gmail.com
p3328
atp3329
sg31
Nssg32
(lp3330
VUser
p3331
aVVPKulesh@gmail.com
p3332
asa(dp3333
g5
VVPKulesh_20120731
p3334
sg7
(lp3335
VUser
p3336
aVVPKulesh@gmail.com
p3337
aVUserTrend
p3338
aVVPKulesh_20120731
p3339
asg13
(dp3340
g22
g23
(S'\x07\xdc\x07\x1f'
tRp3341
sS'item2'
p3342
L2L
sg26
(g7
(lp3343
VUser
p3344
aVVPKulesh@gmail.com
p3345
atp3346
sg31
Nssg32
(lp3347
VUser
p3348
aVVPKulesh@gmail.com
p3349
asa(dp3350
g5
Vddmitriev_20120102
p3351
sg7
(lp3352
VUser
p3353
aVddmitriev@gmail.com
p3354
aVUserTrend
p3355
aVddmitriev_20120102
p3356
asg13
(dp3357
S'item4001'
p3358
V\u0412 \u044d\u0442\u043e\u043c \u0433\u043e\u0434\u0443 \u044f \u043d\u0435 \u043a\u0443\u0440\u0438\u043b.
p3359
sg22
g23
(S'\x07\xdc\x01\x02'
tRp3360
sg26
(g7
(lp3361
VUser
p3362
aVddmitriev@gmail.com
p3363
atp3364
sg31
Nssg32
(lp3365
VUser
p3366
aVddmitriev@gmail.com
p3367
asa(dp3368
g5
Vpokrovskiy.a_20130201
p3369
sg7
(lp3370
VUser
p3371
aVpokrovskiy.a@gmail.com
p3372
aVUserTrend
p3373
aVpokrovskiy.a_20130201
p3374
asg13
(dp3375
g15
I01
sg3342
L0L
sg17
L2L
sg18
L1L
sg21
L3L
sg22
g23
(S'\x07\xdd\x02\x01'
tRp3376
sS'item13001'
p3377
L-1L
sg26
(g7
(lp3378
VUser
p3379
aVpokrovskiy.a@gmail.com
p3380
atp3381
sg31
Nssg32
(lp3382
VUser
p3383
aVpokrovskiy.a@gmail.com
p3384
asa(dp3385
g5
Vpokrovskiy.a_20130217
p3386
sg7
(lp3387
VUser
p3388
aVpokrovskiy.a@gmail.com
p3389
aVUserTrend
p3390
aVpokrovskiy.a_20130217
p3391
asg13
(dp3392
g15
I00
sg3342
L4L
sg17
L1L
sg18
L1L
sg21
L3L
sg22
g23
(S'\x07\xdd\x02\x11'
tRp3393
sg3377
L-1L
sg26
(g7
(lp3394
VUser
p3395
aVpokrovskiy.a@gmail.com
p3396
atp3397
sg31
Nssg32
(lp3398
VUser
p3399
aVpokrovskiy.a@gmail.com
p3400
asa(dp3401
g5
Vpokrovskiy.a_20130218
p3402
sg7
(lp3403
VUser
p3404
aVpokrovskiy.a@gmail.com
p3405
aVUserTrend
p3406
aVpokrovskiy.a_20130218
p3407
asg13
(dp3408
g15
I01
sg3342
L1L
sg17
L1L
sg18
L1L
sg21
L4L
sg22
g23
(S'\x07\xdd\x02\x12'
tRp3409
sg3377
L1L
sg26
(g7
(lp3410
VUser
p3411
aVpokrovskiy.a@gmail.com
p3412
atp3413
sg31
Nssg32
(lp3414
VUser
p3415
aVpokrovskiy.a@gmail.com
p3416
asa(dp3417
g5
Vpokrovskiy.a_20130219
p3418
sg7
(lp3419
VUser
p3420
aVpokrovskiy.a@gmail.com
p3421
aVUserTrend
p3422
aVpokrovskiy.a_20130219
p3423
asg13
(dp3424
g15
I01
sg3342
L1L
sg17
L1L
sg18
L2L
sg21
L3L
sg22
g23
(S'\x07\xdd\x02\x13'
tRp3425
sg3377
L-1L
sg26
(g7
(lp3426
VUser
p3427
aVpokrovskiy.a@gmail.com
p3428
atp3429
sg31
Nssg32
(lp3430
VUser
p3431
aVpokrovskiy.a@gmail.com
p3432
asa(dp3433
g5
Vpokrovskiy.a_20130220
p3434
sg7
(lp3435
VUser
p3436
aVpokrovskiy.a@gmail.com
p3437
aVUserTrend
p3438
aVpokrovskiy.a_20130220
p3439
asg13
(dp3440
g15
I01
sg3342
L1L
sg17
L1L
sg18
L0L
sg21
L3L
sg22
g23
(S'\x07\xdd\x02\x14'
tRp3441
sg3377
L-1L
sg26
(g7
(lp3442
VUser
p3443
aVpokrovskiy.a@gmail.com
p3444
atp3445
sg31
Nssg32
(lp3446
VUser
p3447
aVpokrovskiy.a@gmail.com
p3448
asa(dp3449
g5
Vpokrovskiy.a_20130221
p3450
sg7
(lp3451
VUser
p3452
aVpokrovskiy.a@gmail.com
p3453
aVUserTrend
p3454
aVpokrovskiy.a_20130221
p3455
asg13
(dp3456
g15
I01
sg3342
L1L
sg17
L1L
sg18
L1L
sg21
L4L
sg22
g23
(S'\x07\xdd\x02\x15'
tRp3457
sg3377
L1L
sg26
(g7
(lp3458
VUser
p3459
aVpokrovskiy.a@gmail.com
p3460
atp3461
sg31
Nssg32
(lp3462
VUser
p3463
aVpokrovskiy.a@gmail.com
p3464
asa(dp3465
g5
Vpokrovskiy.a_20130222
p3466
sg7
(lp3467
VUser
p3468
aVpokrovskiy.a@gmail.com
p3469
aVUserTrend
p3470
aVpokrovskiy.a_20130222
p3471
asg13
(dp3472
g15
I00
sg3342
L1L
sg17
L1L
sg18
L0L
sg21
L3L
sg22
g23
(S'\x07\xdd\x02\x16'
tRp3473
sg3377
L-1L
sg26
(g7
(lp3474
VUser
p3475
aVpokrovskiy.a@gmail.com
p3476
atp3477
sg31
Nssg32
(lp3478
VUser
p3479
aVpokrovskiy.a@gmail.com
p3480
asa(dp3481
g5
Vpokrovskiy.a_20130223
p3482
sg7
(lp3483
VUser
p3484
aVpokrovskiy.a@gmail.com
p3485
aVUserTrend
p3486
aVpokrovskiy.a_20130223
p3487
asg13
(dp3488
g15
I00
sg3342
L1L
sg17
L1L
sg18
L2L
sg21
L3L
sg22
g23
(S'\x07\xdd\x02\x17'
tRp3489
sg3377
L-1L
sg26
(g7
(lp3490
VUser
p3491
aVpokrovskiy.a@gmail.com
p3492
atp3493
sg31
Nssg32
(lp3494
VUser
p3495
aVpokrovskiy.a@gmail.com
p3496
asa(dp3497
g5
Vpokrovskiy.a_20130224
p3498
sg7
(lp3499
VUser
p3500
aVpokrovskiy.a@gmail.com
p3501
aVUserTrend
p3502
aVpokrovskiy.a_20130224
p3503
asg13
(dp3504
g15
I01
sg3342
L1L
sg17
L0L
sg18
L0L
sg21
L4L
sg22
g23
(S'\x07\xdd\x02\x18'
tRp3505
sg3377
L-1L
sg26
(g7
(lp3506
VUser
p3507
aVpokrovskiy.a@gmail.com
p3508
atp3509
sg31
Nssg32
(lp3510
VUser
p3511
aVpokrovskiy.a@gmail.com
p3512
asa(dp3513
g5
Vpokrovskiy.a_20130225
p3514
sg7
(lp3515
VUser
p3516
aVpokrovskiy.a@gmail.com
p3517
aVUserTrend
p3518
aVpokrovskiy.a_20130225
p3519
asg13
(dp3520
g15
I01
sg3342
L0L
sg17
L1L
sg18
L1L
sg21
L3L
sg22
g23
(S'\x07\xdd\x02\x19'
tRp3521
sg3377
L1L
sg26
(g7
(lp3522
VUser
p3523
aVpokrovskiy.a@gmail.com
p3524
atp3525
sg31
Nssg32
(lp3526
VUser
p3527
aVpokrovskiy.a@gmail.com
p3528
asa(dp3529
g5
Vpokrovskiy.a_20130226
p3530
sg7
(lp3531
VUser
p3532
aVpokrovskiy.a@gmail.com
p3533
aVUserTrend
p3534
aVpokrovskiy.a_20130226
p3535
asg13
(dp3536
g15
I00
sg3342
L0L
sg17
L1L
sg18
L1L
sg21
L3L
sg22
g23
(S'\x07\xdd\x02\x1a'
tRp3537
sg3377
L-1L
sg26
(g7
(lp3538
VUser
p3539
aVpokrovskiy.a@gmail.com
p3540
atp3541
sg31
Nssg32
(lp3542
VUser
p3543
aVpokrovskiy.a@gmail.com
p3544
asa(dp3545
g5
Vpokrovskiy.a_20130227
p3546
sg7
(lp3547
VUser
p3548
aVpokrovskiy.a@gmail.com
p3549
aVUserTrend
p3550
aVpokrovskiy.a_20130227
p3551
asg13
(dp3552
g15
I00
sg3342
L0L
sg17
L2L
sg18
L2L
sg21
L4L
sg22
g23
(S'\x07\xdd\x02\x1b'
tRp3553
sg3377
L1L
sg26
(g7
(lp3554
VUser
p3555
aVpokrovskiy.a@gmail.com
p3556
atp3557
sg31
Nssg32
(lp3558
VUser
p3559
aVpokrovskiy.a@gmail.com
p3560
asa(dp3561
g5
Vpokrovskiy.a_20130228
p3562
sg7
(lp3563
VUser
p3564
aVpokrovskiy.a@gmail.com
p3565
aVUserTrend
p3566
aVpokrovskiy.a_20130228
p3567
asg13
(dp3568
g15
I00
sg3342
L0L
sg17
L2L
sg18
L1L
sg21
L4L
sg22
g23
(S'\x07\xdd\x02\x1c'
tRp3569
sg3377
L1L
sg26
(g7
(lp3570
VUser
p3571
aVpokrovskiy.a@gmail.com
p3572
atp3573
sg31
Nssg32
(lp3574
VUser
p3575
aVpokrovskiy.a@gmail.com
p3576
asa(dp3577
g5
Vpokrovskiy.a_20130301
p3578
sg7
(lp3579
VUser
p3580
aVpokrovskiy.a@gmail.com
p3581
aVUserTrend
p3582
aVpokrovskiy.a_20130301
p3583
asg13
(dp3584
g15
I01
sg3342
L2L
sg17
L2L
sg18
L1L
sg21
L4L
sg22
g23
(S'\x07\xdd\x03\x01'
tRp3585
sg3377
L-1L
sg26
(g7
(lp3586
VUser
p3587
aVpokrovskiy.a@gmail.com
p3588
atp3589
sg31
Nssg32
(lp3590
VUser
p3591
aVpokrovskiy.a@gmail.com
p3592
asa(dp3593
g5
Vpokrovskiy.a_20130302
p3594
sg7
(lp3595
VUser
p3596
aVpokrovskiy.a@gmail.com
p3597
aVUserTrend
p3598
aVpokrovskiy.a_20130302
p3599
asg13
(dp3600
g15
I01
sg3342
L1L
sg17
L2L
sg18
L1L
sg21
L4L
sg22
g23
(S'\x07\xdd\x03\x02'
tRp3601
sg3377
L-1L
sg26
(g7
(lp3602
VUser
p3603
aVpokrovskiy.a@gmail.com
p3604
atp3605
sg31
Nssg32
(lp3606
VUser
p3607
aVpokrovskiy.a@gmail.com
p3608
asa(dp3609
g5
Vpokrovskiy.a_20130303
p3610
sg7
(lp3611
VUser
p3612
aVpokrovskiy.a@gmail.com
p3613
aVUserTrend
p3614
aVpokrovskiy.a_20130303
p3615
asg13
(dp3616
g15
I00
sg3342
L2L
sg17
L1L
sg18
L0L
sg21
L4L
sg22
g23
(S'\x07\xdd\x03\x03'
tRp3617
sg3377
L1L
sg26
(g7
(lp3618
VUser
p3619
aVpokrovskiy.a@gmail.com
p3620
atp3621
sg31
Nssg32
(lp3622
VUser
p3623
aVpokrovskiy.a@gmail.com
p3624
asa(dp3625
g5
Vpokrovskiy.a_20130304
p3626
sg7
(lp3627
VUser
p3628
aVpokrovskiy.a@gmail.com
p3629
aVUserTrend
p3630
aVpokrovskiy.a_20130304
p3631
asg13
(dp3632
g15
I00
sg3342
L1L
sg17
L1L
sg18
L0L
sg21
L2L
sg22
g23
(S'\x07\xdd\x03\x04'
tRp3633
sg3377
L1L
sg26
(g7
(lp3634
VUser
p3635
aVpokrovskiy.a@gmail.com
p3636
atp3637
sg31
Nssg32
(lp3638
VUser
p3639
aVpokrovskiy.a@gmail.com
p3640
asa(dp3641
g5
Vpokrovskiy.a_20130305
p3642
sg7
(lp3643
VUser
p3644
aVpokrovskiy.a@gmail.com
p3645
aVUserTrend
p3646
aVpokrovskiy.a_20130305
p3647
asg13
(dp3648
g15
I01
sg3342
L1L
sg17
L0L
sg18
L2L
sg21
L3L
sg22
g23
(S'\x07\xdd\x03\x05'
tRp3649
sg3377
L0L
sg26
(g7
(lp3650
VUser
p3651
aVpokrovskiy.a@gmail.com
p3652
atp3653
sg31
Nssg32
(lp3654
VUser
p3655
aVpokrovskiy.a@gmail.com
p3656
asa(dp3657
g5
Vpokrovskiy.a_20130306
p3658
sg7
(lp3659
VUser
p3660
aVpokrovskiy.a@gmail.com
p3661
aVUserTrend
p3662
aVpokrovskiy.a_20130306
p3663
asg13
(dp3664
g15
I01
sg3342
L0L
sg17
L1L
sg18
L1L
sg21
L3L
sg22
g23
(S'\x07\xdd\x03\x06'
tRp3665
sg3377
L1L
sg26
(g7
(lp3666
VUser
p3667
aVpokrovskiy.a@gmail.com
p3668
atp3669
sg31
Nssg32
(lp3670
VUser
p3671
aVpokrovskiy.a@gmail.com
p3672
asa(dp3673
g5
Vpokrovskiy.a_20130307
p3674
sg7
(lp3675
VUser
p3676
aVpokrovskiy.a@gmail.com
p3677
aVUserTrend
p3678
aVpokrovskiy.a_20130307
p3679
asg13
(dp3680
g15
I01
sg3342
L0L
sg17
L1L
sg21
L2L
sg22
g23
(S'\x07\xdd\x03\x07'
tRp3681
sg3377
L-1L
sg26
(g7
(lp3682
VUser
p3683
aVpokrovskiy.a@gmail.com
p3684
atp3685
sg31
Nssg32
(lp3686
VUser
p3687
aVpokrovskiy.a@gmail.com
p3688
asa(dp3689
g5
Vpokrovskiy.a_20130308
p3690
sg7
(lp3691
VUser
p3692
aVpokrovskiy.a@gmail.com
p3693
aVUserTrend
p3694
aVpokrovskiy.a_20130308
p3695
asg13
(dp3696
g15
I00
sg3342
L1L
sg17
L0L
sg18
L0L
sg21
L4L
sg22
g23
(S'\x07\xdd\x03\x08'
tRp3697
sg3377
L1L
sg26
(g7
(lp3698
VUser
p3699
aVpokrovskiy.a@gmail.com
p3700
atp3701
sg31
Nssg32
(lp3702
VUser
p3703
aVpokrovskiy.a@gmail.com
p3704
asa(dp3705
g5
Vpokrovskiy.a_20130309
p3706
sg7
(lp3707
VUser
p3708
aVpokrovskiy.a@gmail.com
p3709
aVUserTrend
p3710
aVpokrovskiy.a_20130309
p3711
asg13
(dp3712
g15
I01
sg3342
L3L
sg17
L1L
sg18
L0L
sg21
L4L
sg22
g23
(S'\x07\xdd\x03\t'
tRp3713
sg3377
L1L
sg26
(g7
(lp3714
VUser
p3715
aVpokrovskiy.a@gmail.com
p3716
atp3717
sg31
Nssg32
(lp3718
VUser
p3719
aVpokrovskiy.a@gmail.com
p3720
asa(dp3721
g5
Vpokrovskiy.a_20130310
p3722
sg7
(lp3723
VUser
p3724
aVpokrovskiy.a@gmail.com
p3725
aVUserTrend
p3726
aVpokrovskiy.a_20130310
p3727
asg13
(dp3728
g15
I01
sg3342
L1L
sg17
L1L
sg18
L2L
sg21
L4L
sg22
g23
(S'\x07\xdd\x03\n'
tRp3729
sg3377
L1L
sg26
(g7
(lp3730
VUser
p3731
aVpokrovskiy.a@gmail.com
p3732
atp3733
sg31
Nssg32
(lp3734
VUser
p3735
aVpokrovskiy.a@gmail.com
p3736
asa(dp3737
g5
Vpokrovskiy.a_20130311
p3738
sg7
(lp3739
VUser
p3740
aVpokrovskiy.a@gmail.com
p3741
aVUserTrend
p3742
aVpokrovskiy.a_20130311
p3743
asg13
(dp3744
g15
I01
sg3342
L1L
sg17
L0L
sg18
L1L
sg21
L3L
sg22
g23
(S'\x07\xdd\x03\x0b'
tRp3745
sg3377
L-1L
sg26
(g7
(lp3746
VUser
p3747
aVpokrovskiy.a@gmail.com
p3748
atp3749
sg31
Nssg32
(lp3750
VUser
p3751
aVpokrovskiy.a@gmail.com
p3752
asa(dp3753
g5
Vpokrovskiy.a_20130312
p3754
sg7
(lp3755
VUser
p3756
aVpokrovskiy.a@gmail.com
p3757
aVUserTrend
p3758
aVpokrovskiy.a_20130312
p3759
asg13
(dp3760
g15
I01
sg3342
L1L
sg17
L0L
sg18
L1L
sg21
L3L
sg22
g23
(S'\x07\xdd\x03\x0c'
tRp3761
sg3377
L0L
sg26
(g7
(lp3762
VUser
p3763
aVpokrovskiy.a@gmail.com
p3764
atp3765
sg31
Nssg32
(lp3766
VUser
p3767
aVpokrovskiy.a@gmail.com
p3768
asa(dp3769
g5
Vpokrovskiy.a_20130313
p3770
sg7
(lp3771
VUser
p3772
aVpokrovskiy.a@gmail.com
p3773
aVUserTrend
p3774
aVpokrovskiy.a_20130313
p3775
asg13
(dp3776
g15
I00
sg3342
L1L
sg17
L0L
sg18
L0L
sg21
L2L
sg22
g23
(S'\x07\xdd\x03\r'
tRp3777
sg3377
L1L
sg26
(g7
(lp3778
VUser
p3779
aVpokrovskiy.a@gmail.com
p3780
atp3781
sg31
Nssg32
(lp3782
VUser
p3783
aVpokrovskiy.a@gmail.com
p3784
asa(dp3785
g5
Vpokrovskiy.a_20130315
p3786
sg7
(lp3787
VUser
p3788
aVpokrovskiy.a@gmail.com
p3789
aVUserTrend
p3790
aVpokrovskiy.a_20130315
p3791
asg13
(dp3792
g15
I01
sg3342
L0L
sg17
L0L
sg18
L4L
sg21
L3L
sg22
g23
(S'\x07\xdd\x03\x0f'
tRp3793
sg3377
L1L
sg26
(g7
(lp3794
VUser
p3795
aVpokrovskiy.a@gmail.com
p3796
atp3797
sg31
Nssg32
(lp3798
VUser
p3799
aVpokrovskiy.a@gmail.com
p3800
asa(dp3801
g5
Vpokrovskiy.a_20130316
p3802
sg7
(lp3803
VUser
p3804
aVpokrovskiy.a@gmail.com
p3805
aVUserTrend
p3806
aVpokrovskiy.a_20130316
p3807
asg13
(dp3808
g15
I00
sg3342
L0L
sg17
L0L
sg18
L1L
sg21
L3L
sg22
g23
(S'\x07\xdd\x03\x10'
tRp3809
sg3377
L-1L
sg26
(g7
(lp3810
VUser
p3811
aVpokrovskiy.a@gmail.com
p3812
atp3813
sg31
Nssg32
(lp3814
VUser
p3815
aVpokrovskiy.a@gmail.com
p3816
asa(dp3817
g5
Vpokrovskiy.a_20130317
p3818
sg7
(lp3819
VUser
p3820
aVpokrovskiy.a@gmail.com
p3821
aVUserTrend
p3822
aVpokrovskiy.a_20130317
p3823
asg13
(dp3824
g15
I01
sg3342
L0L
sg17
L1L
sg18
L1L
sg21
L3L
sg22
g23
(S'\x07\xdd\x03\x11'
tRp3825
sg3377
L1L
sg26
(g7
(lp3826
VUser
p3827
aVpokrovskiy.a@gmail.com
p3828
atp3829
sg31
Nssg32
(lp3830
VUser
p3831
aVpokrovskiy.a@gmail.com
p3832
asa(dp3833
g5
Vpokrovskiy.a_20130318
p3834
sg7
(lp3835
VUser
p3836
aVpokrovskiy.a@gmail.com
p3837
aVUserTrend
p3838
aVpokrovskiy.a_20130318
p3839
asg13
(dp3840
g15
I01
sg3342
L1L
sg17
L1L
sg18
L2L
sg21
L3L
sg22
g23
(S'\x07\xdd\x03\x12'
tRp3841
sg3377
L1L
sg26
(g7
(lp3842
VUser
p3843
aVpokrovskiy.a@gmail.com
p3844
atp3845
sg31
Nssg32
(lp3846
VUser
p3847
aVpokrovskiy.a@gmail.com
p3848
asa(dp3849
g5
Vpokrovskiy.a_20130319
p3850
sg7
(lp3851
VUser
p3852
aVpokrovskiy.a@gmail.com
p3853
aVUserTrend
p3854
aVpokrovskiy.a_20130319
p3855
asg13
(dp3856
g15
I01
sg3342
L1L
sg17
L0L
sg18
L1L
sg21
L2L
sg22
g23
(S'\x07\xdd\x03\x13'
tRp3857
sg3377
L1L
sg26
(g7
(lp3858
VUser
p3859
aVpokrovskiy.a@gmail.com
p3860
atp3861
sg31
Nssg32
(lp3862
VUser
p3863
aVpokrovskiy.a@gmail.com
p3864
asa(dp3865
g5
Vpokrovskiy.a_20130320
p3866
sg7
(lp3867
VUser
p3868
aVpokrovskiy.a@gmail.com
p3869
aVUserTrend
p3870
aVpokrovskiy.a_20130320
p3871
asg13
(dp3872
g15
I00
sg3342
L0L
sg17
L0L
sg18
L0L
sg21
L4L
sg22
g23
(S'\x07\xdd\x03\x14'
tRp3873
sg3377
L1L
sg26
(g7
(lp3874
VUser
p3875
aVpokrovskiy.a@gmail.com
p3876
atp3877
sg31
Nssg32
(lp3878
VUser
p3879
aVpokrovskiy.a@gmail.com
p3880
asa(dp3881
g5
Vpokrovskiy.a_20130321
p3882
sg7
(lp3883
VUser
p3884
aVpokrovskiy.a@gmail.com
p3885
aVUserTrend
p3886
aVpokrovskiy.a_20130321
p3887
asg13
(dp3888
g15
I00
sg3342
L0L
sg17
L1L
sg18
L2L
sg21
L4L
sg22
g23
(S'\x07\xdd\x03\x15'
tRp3889
sg3377
L1L
sg26
(g7
(lp3890
VUser
p3891
aVpokrovskiy.a@gmail.com
p3892
atp3893
sg31
Nssg32
(lp3894
VUser
p3895
aVpokrovskiy.a@gmail.com
p3896
asa(dp3897
g5
Vpokrovskiy.a_20130322
p3898
sg7
(lp3899
VUser
p3900
aVpokrovskiy.a@gmail.com
p3901
aVUserTrend
p3902
aVpokrovskiy.a_20130322
p3903
asg13
(dp3904
g15
I00
sg3342
L1L
sg17
L0L
sg18
L1L
sg21
L2L
sg22
g23
(S'\x07\xdd\x03\x16'
tRp3905
sg3377
L0L
sg26
(g7
(lp3906
VUser
p3907
aVpokrovskiy.a@gmail.com
p3908
atp3909
sg31
Nssg32
(lp3910
VUser
p3911
aVpokrovskiy.a@gmail.com
p3912
asa(dp3913
g5
Vpokrovskiy.a_20130323
p3914
sg7
(lp3915
VUser
p3916
aVpokrovskiy.a@gmail.com
p3917
aVUserTrend
p3918
aVpokrovskiy.a_20130323
p3919
asg13
(dp3920
g15
I00
sg3342
L1L
sg17
L0L
sg18
L0L
sg21
L3L
sg22
g23
(S'\x07\xdd\x03\x17'
tRp3921
sg3377
L-1L
sg26
(g7
(lp3922
VUser
p3923
aVpokrovskiy.a@gmail.com
p3924
atp3925
sg31
Nssg32
(lp3926
VUser
p3927
aVpokrovskiy.a@gmail.com
p3928
asa(dp3929
g5
Vpokrovskiy.a_20130324
p3930
sg7
(lp3931
VUser
p3932
aVpokrovskiy.a@gmail.com
p3933
aVUserTrend
p3934
aVpokrovskiy.a_20130324
p3935
asg13
(dp3936
g15
I00
sg3342
L1L
sg17
L1L
sg18
L1L
sg21
L3L
sg22
g23
(S'\x07\xdd\x03\x18'
tRp3937
sg3377
L0L
sg26
(g7
(lp3938
VUser
p3939
aVpokrovskiy.a@gmail.com
p3940
atp3941
sg31
Nssg32
(lp3942
VUser
p3943
aVpokrovskiy.a@gmail.com
p3944
asa(dp3945
g5
Vpokrovskiy.a_20130327
p3946
sg7
(lp3947
VUser
p3948
aVpokrovskiy.a@gmail.com
p3949
aVUserTrend
p3950
aVpokrovskiy.a_20130327
p3951
asg13
(dp3952
g15
I00
sg3342
L1L
sg17
L1L
sg18
L1L
sg21
L3L
sg22
g23
(S'\x07\xdd\x03\x1b'
tRp3953
sg3377
L1L
sg26
(g7
(lp3954
VUser
p3955
aVpokrovskiy.a@gmail.com
p3956
atp3957
sg31
Nssg32
(lp3958
VUser
p3959
aVpokrovskiy.a@gmail.com
p3960
asa(dp3961
g5
Vpokrovskiy.a_20130328
p3962
sg7
(lp3963
VUser
p3964
aVpokrovskiy.a@gmail.com
p3965
aVUserTrend
p3966
aVpokrovskiy.a_20130328
p3967
asg13
(dp3968
g15
I00
sg3342
L1L
sg17
L2L
sg18
L1L
sg21
L3L
sg22
g23
(S'\x07\xdd\x03\x1c'
tRp3969
sg3377
L0L
sg26
(g7
(lp3970
VUser
p3971
aVpokrovskiy.a@gmail.com
p3972
atp3973
sg31
Nssg32
(lp3974
VUser
p3975
aVpokrovskiy.a@gmail.com
p3976
asa(dp3977
g5
Vpokrovskiy.a_20130329
p3978
sg7
(lp3979
VUser
p3980
aVpokrovskiy.a@gmail.com
p3981
aVUserTrend
p3982
aVpokrovskiy.a_20130329
p3983
asg13
(dp3984
g15
I00
sg3342
L1L
sg17
L1L
sg18
L1L
sg21
L3L
sg22
g23
(S'\x07\xdd\x03\x1d'
tRp3985
sg3377
L-1L
sg26
(g7
(lp3986
VUser
p3987
aVpokrovskiy.a@gmail.com
p3988
atp3989
sg31
Nssg32
(lp3990
VUser
p3991
aVpokrovskiy.a@gmail.com
p3992
asa(dp3993
g5
Vpokrovskiy.a_20130330
p3994
sg7
(lp3995
VUser
p3996
aVpokrovskiy.a@gmail.com
p3997
aVUserTrend
p3998
aVpokrovskiy.a_20130330
p3999
asg13
(dp4000
g15
I00
sg3342
L0L
sg17
L1L
sg18
L1L
sg21
L2L
sg22
g23
(S'\x07\xdd\x03\x1e'
tRp4001
sg3377
L1L
sg26
(g7
(lp4002
VUser
p4003
aVpokrovskiy.a@gmail.com
p4004
atp4005
sg31
Nssg32
(lp4006
VUser
p4007
aVpokrovskiy.a@gmail.com
p4008
asa(dp4009
g5
Vpokrovskiy.a_20130331
p4010
sg7
(lp4011
VUser
p4012
aVpokrovskiy.a@gmail.com
p4013
aVUserTrend
p4014
aVpokrovskiy.a_20130331
p4015
asg13
(dp4016
g15
I00
sg3342
L1L
sg17
L1L
sg18
L0L
sg21
L3L
sg22
g23
(S'\x07\xdd\x03\x1f'
tRp4017
sg3377
L-1L
sg26
(g7
(lp4018
VUser
p4019
aVpokrovskiy.a@gmail.com
p4020
atp4021
sg31
Nssg32
(lp4022
VUser
p4023
aVpokrovskiy.a@gmail.com
p4024
asa(dp4025
g5
Vpokrovskiy.a_20130401
p4026
sg7
(lp4027
VUser
p4028
aVpokrovskiy.a@gmail.com
p4029
aVUserTrend
p4030
aVpokrovskiy.a_20130401
p4031
asg13
(dp4032
g15
I01
sg3342
L1L
sg17
L2L
sg18
L1L
sg21
L4L
sg22
g23
(S'\x07\xdd\x04\x01'
tRp4033
sg3377
L-1L
sg26
(g7
(lp4034
VUser
p4035
aVpokrovskiy.a@gmail.com
p4036
atp4037
sg31
Nssg32
(lp4038
VUser
p4039
aVpokrovskiy.a@gmail.com
p4040
asa(dp4041
g5
Vpokrovskiy.a_20130402
p4042
sg7
(lp4043
VUser
p4044
aVpokrovskiy.a@gmail.com
p4045
aVUserTrend
p4046
aVpokrovskiy.a_20130402
p4047
asg13
(dp4048
g15
I01
sg3342
L1L
sg17
L1L
sg18
L1L
sg21
L3L
sg22
g23
(S'\x07\xdd\x04\x02'
tRp4049
sg3377
L-1L
sg26
(g7
(lp4050
VUser
p4051
aVpokrovskiy.a@gmail.com
p4052
atp4053
sg31
Nssg32
(lp4054
VUser
p4055
aVpokrovskiy.a@gmail.com
p4056
asa(dp4057
g5
Vpokrovskiy.a_20130403
p4058
sg7
(lp4059
VUser
p4060
aVpokrovskiy.a@gmail.com
p4061
aVUserTrend
p4062
aVpokrovskiy.a_20130403
p4063
asg13
(dp4064
g15
I01
sg3342
L0L
sg17
L1L
sg18
L0L
sg21
L4L
sg22
g23
(S'\x07\xdd\x04\x03'
tRp4065
sg3377
L1L
sg26
(g7
(lp4066
VUser
p4067
aVpokrovskiy.a@gmail.com
p4068
atp4069
sg31
Nssg32
(lp4070
VUser
p4071
aVpokrovskiy.a@gmail.com
p4072
asa(dp4073
g5
Vpokrovskiy.a_20130404
p4074
sg7
(lp4075
VUser
p4076
aVpokrovskiy.a@gmail.com
p4077
aVUserTrend
p4078
aVpokrovskiy.a_20130404
p4079
asg13
(dp4080
g15
I00
sg3342
L1L
sg17
L1L
sg18
L1L
sg21
L4L
sg22
g23
(S'\x07\xdd\x04\x04'
tRp4081
sg3377
L-1L
sg26
(g7
(lp4082
VUser
p4083
aVpokrovskiy.a@gmail.com
p4084
atp4085
sg31
Nssg32
(lp4086
VUser
p4087
aVpokrovskiy.a@gmail.com
p4088
asa(dp4089
g5
Vpokrovskiy.a_20130405
p4090
sg7
(lp4091
VUser
p4092
aVpokrovskiy.a@gmail.com
p4093
aVUserTrend
p4094
aVpokrovskiy.a_20130405
p4095
asg13
(dp4096
g15
I00
sg3342
L1L
sg17
L1L
sg18
L2L
sg21
L3L
sg22
g23
(S'\x07\xdd\x04\x05'
tRp4097
sg3377
L1L
sg26
(g7
(lp4098
VUser
p4099
aVpokrovskiy.a@gmail.com
p4100
atp4101
sg31
Nssg32
(lp4102
VUser
p4103
aVpokrovskiy.a@gmail.com
p4104
asa(dp4105
g5
Vpokrovskiy.a_20130406
p4106
sg7
(lp4107
VUser
p4108
aVpokrovskiy.a@gmail.com
p4109
aVUserTrend
p4110
aVpokrovskiy.a_20130406
p4111
asg13
(dp4112
g15
I01
sg3342
L1L
sg17
L1L
sg18
L0L
sg21
L3L
sg22
g23
(S'\x07\xdd\x04\x06'
tRp4113
sg3377
L-1L
sg26
(g7
(lp4114
VUser
p4115
aVpokrovskiy.a@gmail.com
p4116
atp4117
sg31
Nssg32
(lp4118
VUser
p4119
aVpokrovskiy.a@gmail.com
p4120
asa(dp4121
g5
Vpokrovskiy.a_20130407
p4122
sg7
(lp4123
VUser
p4124
aVpokrovskiy.a@gmail.com
p4125
aVUserTrend
p4126
aVpokrovskiy.a_20130407
p4127
asg13
(dp4128
g15
I00
sg3342
L0L
sg17
L0L
sg18
L1L
sg21
L3L
sg22
g23
(S'\x07\xdd\x04\x07'
tRp4129
sg3377
L1L
sg26
(g7
(lp4130
VUser
p4131
aVpokrovskiy.a@gmail.com
p4132
atp4133
sg31
Nssg32
(lp4134
VUser
p4135
aVpokrovskiy.a@gmail.com
p4136
asa(dp4137
g5
Vpokrovskiy.a_20130408
p4138
sg7
(lp4139
VUser
p4140
aVpokrovskiy.a@gmail.com
p4141
aVUserTrend
p4142
aVpokrovskiy.a_20130408
p4143
asg13
(dp4144
g15
I01
sg3342
L0L
sg17
L0L
sg18
L0L
sg21
L2L
sg22
g23
(S'\x07\xdd\x04\x08'
tRp4145
sg3377
L-1L
sg26
(g7
(lp4146
VUser
p4147
aVpokrovskiy.a@gmail.com
p4148
atp4149
sg31
Nssg32
(lp4150
VUser
p4151
aVpokrovskiy.a@gmail.com
p4152
asa(dp4153
g5
Vpokrovskiy.a_20130409
p4154
sg7
(lp4155
VUser
p4156
aVpokrovskiy.a@gmail.com
p4157
aVUserTrend
p4158
aVpokrovskiy.a_20130409
p4159
asg13
(dp4160
g15
I01
sg3342
L1L
sg17
L1L
sg18
L1L
sg21
L3L
sg22
g23
(S'\x07\xdd\x04\t'
tRp4161
sg3377
L1L
sg26
(g7
(lp4162
VUser
p4163
aVpokrovskiy.a@gmail.com
p4164
atp4165
sg31
Nssg32
(lp4166
VUser
p4167
aVpokrovskiy.a@gmail.com
p4168
asa(dp4169
g5
Vpokrovskiy.a_20130410
p4170
sg7
(lp4171
VUser
p4172
aVpokrovskiy.a@gmail.com
p4173
aVUserTrend
p4174
aVpokrovskiy.a_20130410
p4175
asg13
(dp4176
g15
I01
sg3342
L1L
sg17
L1L
sg18
L1L
sg21
L4L
sg22
g23
(S'\x07\xdd\x04\n'
tRp4177
sg3377
L0L
sg26
(g7
(lp4178
VUser
p4179
aVpokrovskiy.a@gmail.com
p4180
atp4181
sg31
Nssg32
(lp4182
VUser
p4183
aVpokrovskiy.a@gmail.com
p4184
asa(dp4185
g5
Vpokrovskiy.a_20130411
p4186
sg7
(lp4187
VUser
p4188
aVpokrovskiy.a@gmail.com
p4189
aVUserTrend
p4190
aVpokrovskiy.a_20130411
p4191
asg13
(dp4192
g15
I01
sg3342
L0L
sg17
L1L
sg18
L1L
sg21
L4L
sg22
g23
(S'\x07\xdd\x04\x0b'
tRp4193
sg3377
L1L
sg26
(g7
(lp4194
VUser
p4195
aVpokrovskiy.a@gmail.com
p4196
atp4197
sg31
Nssg32
(lp4198
VUser
p4199
aVpokrovskiy.a@gmail.com
p4200
asa(dp4201
g5
Vpokrovskiy.a_20130412
p4202
sg7
(lp4203
VUser
p4204
aVpokrovskiy.a@gmail.com
p4205
aVUserTrend
p4206
aVpokrovskiy.a_20130412
p4207
asg13
(dp4208
g15
I01
sg3342
L0L
sg17
L1L
sg18
L1L
sg21
L4L
sg22
g23
(S'\x07\xdd\x04\x0c'
tRp4209
sg3377
L-1L
sg26
(g7
(lp4210
VUser
p4211
aVpokrovskiy.a@gmail.com
p4212
atp4213
sg31
Nssg32
(lp4214
VUser
p4215
aVpokrovskiy.a@gmail.com
p4216
asa(dp4217
g5
Vpokrovskiy.a_20130414
p4218
sg7
(lp4219
VUser
p4220
aVpokrovskiy.a@gmail.com
p4221
aVUserTrend
p4222
aVpokrovskiy.a_20130414
p4223
asg13
(dp4224
g15
I01
sg3342
L0L
sg17
L1L
sg18
L1L
sg21
L4L
sg22
g23
(S'\x07\xdd\x04\x0e'
tRp4225
sg3377
L1L
sg26
(g7
(lp4226
VUser
p4227
aVpokrovskiy.a@gmail.com
p4228
atp4229
sg31
Nssg32
(lp4230
VUser
p4231
aVpokrovskiy.a@gmail.com
p4232
asa(dp4233
g5
Vpokrovskiy.a_20130417
p4234
sg7
(lp4235
VUser
p4236
aVpokrovskiy.a@gmail.com
p4237
aVUserTrend
p4238
aVpokrovskiy.a_20130417
p4239
asg13
(dp4240
g15
I00
sg3342
L0L
sg17
L0L
sg18
L1L
sg21
L3L
sg22
g23
(S'\x07\xdd\x04\x11'
tRp4241
sg3377
L-1L
sg26
(g7
(lp4242
VUser
p4243
aVpokrovskiy.a@gmail.com
p4244
atp4245
sg31
Nssg32
(lp4246
VUser
p4247
aVpokrovskiy.a@gmail.com
p4248
asa(dp4249
g5
Vpokrovskiy.a_20130418
p4250
sg7
(lp4251
VUser
p4252
aVpokrovskiy.a@gmail.com
p4253
aVUserTrend
p4254
aVpokrovskiy.a_20130418
p4255
asg13
(dp4256
g15
I01
sg3342
L1L
sg17
L1L
sg18
L1L
sg21
L3L
sg22
g23
(S'\x07\xdd\x04\x12'
tRp4257
sg3377
L-1L
sg26
(g7
(lp4258
VUser
p4259
aVpokrovskiy.a@gmail.com
p4260
atp4261
sg31
Nssg32
(lp4262
VUser
p4263
aVpokrovskiy.a@gmail.com
p4264
asa(dp4265
g5
Vpokrovskiy.a_20130419
p4266
sg7
(lp4267
VUser
p4268
aVpokrovskiy.a@gmail.com
p4269
aVUserTrend
p4270
aVpokrovskiy.a_20130419
p4271
asg13
(dp4272
g15
I01
sg3342
L1L
sg17
L1L
sg18
L1L
sg21
L4L
sg22
g23
(S'\x07\xdd\x04\x13'
tRp4273
sg3377
L1L
sg26
(g7
(lp4274
VUser
p4275
aVpokrovskiy.a@gmail.com
p4276
atp4277
sg31
Nssg32
(lp4278
VUser
p4279
aVpokrovskiy.a@gmail.com
p4280
asa(dp4281
g5
Vpokrovskiy.a_20130420
p4282
sg7
(lp4283
VUser
p4284
aVpokrovskiy.a@gmail.com
p4285
aVUserTrend
p4286
aVpokrovskiy.a_20130420
p4287
asg13
(dp4288
g15
I01
sg3342
L1L
sg17
L1L
sg18
L2L
sg21
L4L
sg22
g23
(S'\x07\xdd\x04\x14'
tRp4289
sg3377
L-1L
sg26
(g7
(lp4290
VUser
p4291
aVpokrovskiy.a@gmail.com
p4292
atp4293
sg31
Nssg32
(lp4294
VUser
p4295
aVpokrovskiy.a@gmail.com
p4296
asa(dp4297
g5
Vpokrovskiy.a_20130421
p4298
sg7
(lp4299
VUser
p4300
aVpokrovskiy.a@gmail.com
p4301
aVUserTrend
p4302
aVpokrovskiy.a_20130421
p4303
asg13
(dp4304
g15
I00
sg3342
L1L
sg17
L0L
sg18
L1L
sg21
L3L
sg22
g23
(S'\x07\xdd\x04\x15'
tRp4305
sg3377
L-1L
sg26
(g7
(lp4306
VUser
p4307
aVpokrovskiy.a@gmail.com
p4308
atp4309
sg31
Nssg32
(lp4310
VUser
p4311
aVpokrovskiy.a@gmail.com
p4312
asa(dp4313
g5
Vpokrovskiy.a_20130422
p4314
sg7
(lp4315
VUser
p4316
aVpokrovskiy.a@gmail.com
p4317
aVUserTrend
p4318
aVpokrovskiy.a_20130422
p4319
asg13
(dp4320
g15
I01
sg3342
L0L
sg17
L1L
sg18
L1L
sg21
L3L
sg22
g23
(S'\x07\xdd\x04\x16'
tRp4321
sg3377
L0L
sg26
(g7
(lp4322
VUser
p4323
aVpokrovskiy.a@gmail.com
p4324
atp4325
sg31
Nssg32
(lp4326
VUser
p4327
aVpokrovskiy.a@gmail.com
p4328
asa(dp4329
g5
Vpokrovskiy.a_20130423
p4330
sg7
(lp4331
VUser
p4332
aVpokrovskiy.a@gmail.com
p4333
aVUserTrend
p4334
aVpokrovskiy.a_20130423
p4335
asg13
(dp4336
g15
I01
sg3342
L1L
sg17
L1L
sg18
L1L
sg21
L3L
sg22
g23
(S'\x07\xdd\x04\x17'
tRp4337
sg3377
L0L
sg26
(g7
(lp4338
VUser
p4339
aVpokrovskiy.a@gmail.com
p4340
atp4341
sg31
Nssg32
(lp4342
VUser
p4343
aVpokrovskiy.a@gmail.com
p4344
asa(dp4345
g5
Vpokrovskiy.a_20130425
p4346
sg7
(lp4347
VUser
p4348
aVpokrovskiy.a@gmail.com
p4349
aVUserTrend
p4350
aVpokrovskiy.a_20130425
p4351
asg13
(dp4352
g15
I01
sg3342
L0L
sg17
L0L
sg18
L1L
sg21
L4L
sg22
g23
(S'\x07\xdd\x04\x19'
tRp4353
sg3377
L1L
sg26
(g7
(lp4354
VUser
p4355
aVpokrovskiy.a@gmail.com
p4356
atp4357
sg31
Nssg32
(lp4358
VUser
p4359
aVpokrovskiy.a@gmail.com
p4360
asa(dp4361
g5
Vpokrovskiy.a_20130426
p4362
sg7
(lp4363
VUser
p4364
aVpokrovskiy.a@gmail.com
p4365
aVUserTrend
p4366
aVpokrovskiy.a_20130426
p4367
asg13
(dp4368
g15
I01
sg3342
L0L
sg17
L0L
sg18
L2L
sg21
L3L
sg22
g23
(S'\x07\xdd\x04\x1a'
tRp4369
sg3377
L-1L
sg26
(g7
(lp4370
VUser
p4371
aVpokrovskiy.a@gmail.com
p4372
atp4373
sg31
Nssg32
(lp4374
VUser
p4375
aVpokrovskiy.a@gmail.com
p4376
asa(dp4377
g5
Vpokrovskiy.a_20130427
p4378
sg7
(lp4379
VUser
p4380
aVpokrovskiy.a@gmail.com
p4381
aVUserTrend
p4382
aVpokrovskiy.a_20130427
p4383
asg13
(dp4384
g15
I00
sg3342
L0L
sg17
L0L
sg18
L0L
sg21
L3L
sg22
g23
(S'\x07\xdd\x04\x1b'
tRp4385
sg3377
L0L
sg26
(g7
(lp4386
VUser
p4387
aVpokrovskiy.a@gmail.com
p4388
atp4389
sg31
Nssg32
(lp4390
VUser
p4391
aVpokrovskiy.a@gmail.com
p4392
asa(dp4393
g5
Vpokrovskiy.a_20130428
p4394
sg7
(lp4395
VUser
p4396
aVpokrovskiy.a@gmail.com
p4397
aVUserTrend
p4398
aVpokrovskiy.a_20130428
p4399
asg13
(dp4400
g15
I00
sg3342
L0L
sg17
L1L
sg18
L1L
sg21
L3L
sg22
g23
(S'\x07\xdd\x04\x1c'
tRp4401
sg3377
L-1L
sg26
(g7
(lp4402
VUser
p4403
aVpokrovskiy.a@gmail.com
p4404
atp4405
sg31
Nssg32
(lp4406
VUser
p4407
aVpokrovskiy.a@gmail.com
p4408
asa(dp4409
g5
Vpokrovskiy.a_20130429
p4410
sg7
(lp4411
VUser
p4412
aVpokrovskiy.a@gmail.com
p4413
aVUserTrend
p4414
aVpokrovskiy.a_20130429
p4415
asg13
(dp4416
g15
I01
sg3342
L0L
sg17
L1L
sg18
L1L
sg21
L3L
sg22
g23
(S'\x07\xdd\x04\x1d'
tRp4417
sg3377
L-1L
sg26
(g7
(lp4418
VUser
p4419
aVpokrovskiy.a@gmail.com
p4420
atp4421
sg31
Nssg32
(lp4422
VUser
p4423
aVpokrovskiy.a@gmail.com
p4424
asa(dp4425
g5
Vpokrovskiy.a_20130430
p4426
sg7
(lp4427
VUser
p4428
aVpokrovskiy.a@gmail.com
p4429
aVUserTrend
p4430
aVpokrovskiy.a_20130430
p4431
asg13
(dp4432
g15
I01
sg3342
L0L
sg17
L1L
sg18
L3L
sg21
L3L
sg22
g23
(S'\x07\xdd\x04\x1e'
tRp4433
sg3377
L-1L
sg26
(g7
(lp4434
VUser
p4435
aVpokrovskiy.a@gmail.com
p4436
atp4437
sg31
Nssg32
(lp4438
VUser
p4439
aVpokrovskiy.a@gmail.com
p4440
asa(dp4441
g5
Vpokrovskiy.a_20130501
p4442
sg7
(lp4443
VUser
p4444
aVpokrovskiy.a@gmail.com
p4445
aVUserTrend
p4446
aVpokrovskiy.a_20130501
p4447
asg13
(dp4448
g15
I00
sg3342
L0L
sg17
L2L
sg18
L1L
sg21
L3L
sg22
g23
(S'\x07\xdd\x05\x01'
tRp4449
sg3377
L-1L
sg26
(g7
(lp4450
VUser
p4451
aVpokrovskiy.a@gmail.com
p4452
atp4453
sg31
Nssg32
(lp4454
VUser
p4455
aVpokrovskiy.a@gmail.com
p4456
asa(dp4457
g5
Vpokrovskiy.a_20130502
p4458
sg7
(lp4459
VUser
p4460
aVpokrovskiy.a@gmail.com
p4461
aVUserTrend
p4462
aVpokrovskiy.a_20130502
p4463
asg13
(dp4464
g15
I00
sg3342
L1L
sg17
L1L
sg18
L0L
sg21
L4L
sg22
g23
(S'\x07\xdd\x05\x02'
tRp4465
sg3377
L0L
sg26
(g7
(lp4466
VUser
p4467
aVpokrovskiy.a@gmail.com
p4468
atp4469
sg31
Nssg32
(lp4470
VUser
p4471
aVpokrovskiy.a@gmail.com
p4472
asa(dp4473
g5
Vpokrovskiy.a_20130503
p4474
sg7
(lp4475
VUser
p4476
aVpokrovskiy.a@gmail.com
p4477
aVUserTrend
p4478
aVpokrovskiy.a_20130503
p4479
asg13
(dp4480
g15
I01
sg3342
L1L
sg17
L1L
sg18
L1L
sg21
L4L
sg22
g23
(S'\x07\xdd\x05\x03'
tRp4481
sg3377
L1L
sg26
(g7
(lp4482
VUser
p4483
aVpokrovskiy.a@gmail.com
p4484
atp4485
sg31
Nssg32
(lp4486
VUser
p4487
aVpokrovskiy.a@gmail.com
p4488
asa(dp4489
g5
Vpokrovskiy.a_20130504
p4490
sg7
(lp4491
VUser
p4492
aVpokrovskiy.a@gmail.com
p4493
aVUserTrend
p4494
aVpokrovskiy.a_20130504
p4495
asg13
(dp4496
g15
I00
sg3342
L0L
sg17
L0L
sg18
L1L
sg21
L3L
sg22
g23
(S'\x07\xdd\x05\x04'
tRp4497
sg3377
L1L
sg26
(g7
(lp4498
VUser
p4499
aVpokrovskiy.a@gmail.com
p4500
atp4501
sg31
Nssg32
(lp4502
VUser
p4503
aVpokrovskiy.a@gmail.com
p4504
asa(dp4505
g5
Vpokrovskiy.a_20130505
p4506
sg7
(lp4507
VUser
p4508
aVpokrovskiy.a@gmail.com
p4509
aVUserTrend
p4510
aVpokrovskiy.a_20130505
p4511
asg13
(dp4512
g15
I00
sg3342
L1L
sg17
L0L
sg18
L0L
sg21
L3L
sg22
g23
(S'\x07\xdd\x05\x05'
tRp4513
sg3377
L0L
sg26
(g7
(lp4514
VUser
p4515
aVpokrovskiy.a@gmail.com
p4516
atp4517
sg31
Nssg32
(lp4518
VUser
p4519
aVpokrovskiy.a@gmail.com
p4520
asa(dp4521
g5
Vpokrovskiy.a_20130506
p4522
sg7
(lp4523
VUser
p4524
aVpokrovskiy.a@gmail.com
p4525
aVUserTrend
p4526
aVpokrovskiy.a_20130506
p4527
asg13
(dp4528
g15
I01
sg3342
L1L
sg17
L1L
sg21
L4L
sg22
g23
(S'\x07\xdd\x05\x06'
tRp4529
sg3377
L1L
sg26
(g7
(lp4530
VUser
p4531
aVpokrovskiy.a@gmail.com
p4532
atp4533
sg31
Nssg32
(lp4534
VUser
p4535
aVpokrovskiy.a@gmail.com
p4536
asa(dp4537
g5
Vpokrovskiy.a_20130507
p4538
sg7
(lp4539
VUser
p4540
aVpokrovskiy.a@gmail.com
p4541
aVUserTrend
p4542
aVpokrovskiy.a_20130507
p4543
asg13
(dp4544
g15
I01
sg3342
L1L
sg17
L1L
sg18
L2L
sg21
L3L
sg22
g23
(S'\x07\xdd\x05\x07'
tRp4545
sg3377
L1L
sg26
(g7
(lp4546
VUser
p4547
aVpokrovskiy.a@gmail.com
p4548
atp4549
sg31
Nssg32
(lp4550
VUser
p4551
aVpokrovskiy.a@gmail.com
p4552
asa(dp4553
g5
Vpokrovskiy.a_20130508
p4554
sg7
(lp4555
VUser
p4556
aVpokrovskiy.a@gmail.com
p4557
aVUserTrend
p4558
aVpokrovskiy.a_20130508
p4559
asg13
(dp4560
g15
I01
sg3342
L1L
sg17
L1L
sg18
L3L
sg21
L4L
sg22
g23
(S'\x07\xdd\x05\x08'
tRp4561
sg3377
L-1L
sg26
(g7
(lp4562
VUser
p4563
aVpokrovskiy.a@gmail.com
p4564
atp4565
sg31
Nssg32
(lp4566
VUser
p4567
aVpokrovskiy.a@gmail.com
p4568
asa(dp4569
g5
Vpokrovskiy.a_20130509
p4570
sg7
(lp4571
VUser
p4572
aVpokrovskiy.a@gmail.com
p4573
aVUserTrend
p4574
aVpokrovskiy.a_20130509
p4575
asg13
(dp4576
g15
I00
sg3342
L1L
sg17
L1L
sg18
L0L
sg21
L4L
sg22
g23
(S'\x07\xdd\x05\t'
tRp4577
sg3377
L-1L
sg26
(g7
(lp4578
VUser
p4579
aVpokrovskiy.a@gmail.com
p4580
atp4581
sg31
Nssg32
(lp4582
VUser
p4583
aVpokrovskiy.a@gmail.com
p4584
asa(dp4585
g5
Vpokrovskiy.a_20130510
p4586
sg7
(lp4587
VUser
p4588
aVpokrovskiy.a@gmail.com
p4589
aVUserTrend
p4590
aVpokrovskiy.a_20130510
p4591
asg13
(dp4592
g15
I00
sg3342
L1L
sg17
L1L
sg18
L1L
sg21
L3L
sg22
g23
(S'\x07\xdd\x05\n'
tRp4593
sg3377
L-1L
sg26
(g7
(lp4594
VUser
p4595
aVpokrovskiy.a@gmail.com
p4596
atp4597
sg31
Nssg32
(lp4598
VUser
p4599
aVpokrovskiy.a@gmail.com
p4600
asa(dp4601
g5
Vpokrovskiy.a_20130515
p4602
sg7
(lp4603
VUser
p4604
aVpokrovskiy.a@gmail.com
p4605
aVUserTrend
p4606
aVpokrovskiy.a_20130515
p4607
asg13
(dp4608
g15
I01
sg3342
L1L
sg17
L1L
sg18
L0L
sg21
L4L
sg22
g23
(S'\x07\xdd\x05\x0f'
tRp4609
sg3377
L-1L
sg26
(g7
(lp4610
VUser
p4611
aVpokrovskiy.a@gmail.com
p4612
atp4613
sg31
Nssg32
(lp4614
VUser
p4615
aVpokrovskiy.a@gmail.com
p4616
asa(dp4617
g5
Vpokrovskiy.a_20130516
p4618
sg7
(lp4619
VUser
p4620
aVpokrovskiy.a@gmail.com
p4621
aVUserTrend
p4622
aVpokrovskiy.a_20130516
p4623
asg13
(dp4624
g15
I01
sg3342
L2L
sg17
L2L
sg18
L1L
sg21
L4L
sg22
g23
(S'\x07\xdd\x05\x10'
tRp4625
sg3377
L-1L
sg26
(g7
(lp4626
VUser
p4627
aVpokrovskiy.a@gmail.com
p4628
atp4629
sg31
Nssg32
(lp4630
VUser
p4631
aVpokrovskiy.a@gmail.com
p4632
asa(dp4633
g5
Vpokrovskiy.a_20130517
p4634
sg7
(lp4635
VUser
p4636
aVpokrovskiy.a@gmail.com
p4637
aVUserTrend
p4638
aVpokrovskiy.a_20130517
p4639
asg13
(dp4640
g15
I01
sg3342
L1L
sg17
L0L
sg22
g23
(S'\x07\xdd\x05\x11'
tRp4641
sg3377
L-1L
sg26
(g7
(lp4642
VUser
p4643
aVpokrovskiy.a@gmail.com
p4644
atp4645
sg31
Nssg32
(lp4646
VUser
p4647
aVpokrovskiy.a@gmail.com
p4648
asa(dp4649
g5
Vpokrovskiy.a_20130518
p4650
sg7
(lp4651
VUser
p4652
aVpokrovskiy.a@gmail.com
p4653
aVUserTrend
p4654
aVpokrovskiy.a_20130518
p4655
asg13
(dp4656
g15
I00
sg3342
L-1L
sg17
L2L
sg18
L1L
sg20
L1L
sg21
L4L
sg22
g23
(S'\x07\xdd\x05\x12'
tRp4657
sg26
(g7
(lp4658
VUser
p4659
aVpokrovskiy.a@gmail.com
p4660
atp4661
sg31
Nssg32
(lp4662
VUser
p4663
aVpokrovskiy.a@gmail.com
p4664
asa(dp4665
g5
Vpokrovskiy.a_20130519
p4666
sg7
(lp4667
VUser
p4668
aVpokrovskiy.a@gmail.com
p4669
aVUserTrend
p4670
aVpokrovskiy.a_20130519
p4671
asg13
(dp4672
g15
I00
sg3342
L1L
sg17
L0L
sg18
L1L
sg21
L3L
sg22
g23
(S'\x07\xdd\x05\x13'
tRp4673
sg3377
L-1L
sg26
(g7
(lp4674
VUser
p4675
aVpokrovskiy.a@gmail.com
p4676
atp4677
sg31
Nssg32
(lp4678
VUser
p4679
aVpokrovskiy.a@gmail.com
p4680
asa(dp4681
g5
Vpokrovskiy.a_20130520
p4682
sg7
(lp4683
VUser
p4684
aVpokrovskiy.a@gmail.com
p4685
aVUserTrend
p4686
aVpokrovskiy.a_20130520
p4687
asg13
(dp4688
g15
I01
sg3342
L0L
sg17
L2L
sg18
L2L
sg21
L4L
sg22
g23
(S'\x07\xdd\x05\x14'
tRp4689
sg3377
L0L
sg26
(g7
(lp4690
VUser
p4691
aVpokrovskiy.a@gmail.com
p4692
atp4693
sg31
Nssg32
(lp4694
VUser
p4695
aVpokrovskiy.a@gmail.com
p4696
asa(dp4697
g5
Vpokrovskiy.a_20130521
p4698
sg7
(lp4699
VUser
p4700
aVpokrovskiy.a@gmail.com
p4701
aVUserTrend
p4702
aVpokrovskiy.a_20130521
p4703
asg13
(dp4704
g15
I00
sg3342
L1L
sg17
L1L
sg21
L2L
sg22
g23
(S'\x07\xdd\x05\x15'
tRp4705
sg3377
L0L
sg26
(g7
(lp4706
VUser
p4707
aVpokrovskiy.a@gmail.com
p4708
atp4709
sg31
Nssg32
(lp4710
VUser
p4711
aVpokrovskiy.a@gmail.com
p4712
asa(dp4713
g5
Vpokrovskiy.a_20130522
p4714
sg7
(lp4715
VUser
p4716
aVpokrovskiy.a@gmail.com
p4717
aVUserTrend
p4718
aVpokrovskiy.a_20130522
p4719
asg13
(dp4720
g15
I01
sg3342
L1L
sg17
L2L
sg18
L0L
sg21
L4L
sg22
g23
(S'\x07\xdd\x05\x16'
tRp4721
sg3377
L0L
sg26
(g7
(lp4722
VUser
p4723
aVpokrovskiy.a@gmail.com
p4724
atp4725
sg31
Nssg32
(lp4726
VUser
p4727
aVpokrovskiy.a@gmail.com
p4728
asa(dp4729
g5
Vwind29121982_20110905
p4730
sg7
(lp4731
VUser
p4732
aVwind29121982@gmail.com
p4733
aVUserTrend
p4734
aVwind29121982_20110905
p4735
asg13
(dp4736
S'item6001'
p4737
L49L
sg3342
V
sg22
g23
(S'\x07\xdb\t\x05'
tRp4738
sg31
Nsg26
(g7
(lp4739
VUser
p4740
aVwind29121982@gmail.com
p4741
atp4742
sS'item1002'
p4743
L1L
ssg32
(lp4744
VUser
p4745
aVwind29121982@gmail.com
p4746
asa(dp4747
g5
Vwind29121982_20110906
p4748
sg7
(lp4749
VUser
p4750
aVwind29121982@gmail.com
p4751
aVUserTrend
p4752
aVwind29121982_20110906
p4753
asg13
(dp4754
g4737
L43L
sg3342
V
sg22
g23
(S'\x07\xdb\t\x06'
tRp4755
sg31
Nsg26
(g7
(lp4756
VUser
p4757
aVwind29121982@gmail.com
p4758
atp4759
sg4743
L5L
ssg32
(lp4760
VUser
p4761
aVwind29121982@gmail.com
p4762
asa(dp4763
g5
Vwind29121982_20110907
p4764
sg7
(lp4765
VUser
p4766
aVwind29121982@gmail.com
p4767
aVUserTrend
p4768
aVwind29121982_20110907
p4769
asg13
(dp4770
g4737
L34L
sg3342
V
sg22
g23
(S'\x07\xdb\t\x07'
tRp4771
sg31
Nsg26
(g7
(lp4772
VUser
p4773
aVwind29121982@gmail.com
p4774
atp4775
sg4743
L1L
ssg32
(lp4776
VUser
p4777
aVwind29121982@gmail.com
p4778
asa(dp4779
g5
Vwind29121982_20110908
p4780
sg7
(lp4781
VUser
p4782
aVwind29121982@gmail.com
p4783
aVUserTrend
p4784
aVwind29121982_20110908
p4785
asg13
(dp4786
g4737
L5L
sg3342
V
sg22
g23
(S'\x07\xdb\t\x08'
tRp4787
sg31
Nsg26
(g7
(lp4788
VUser
p4789
aVwind29121982@gmail.com
p4790
atp4791
sg4743
L3L
ssg32
(lp4792
VUser
p4793
aVwind29121982@gmail.com
p4794
asa(dp4795
g5
Vwind29121982_20110909
p4796
sg7
(lp4797
VUser
p4798
aVwind29121982@gmail.com
p4799
aVUserTrend
p4800
aVwind29121982_20110909
p4801
asg13
(dp4802
g4737
L5L
sg3342
V
sg22
g23
(S'\x07\xdb\t\t'
tRp4803
sg31
Nsg26
(g7
(lp4804
VUser
p4805
aVwind29121982@gmail.com
p4806
atp4807
sg4743
L8L
ssg32
(lp4808
VUser
p4809
aVwind29121982@gmail.com
p4810
asa(dp4811
g5
Vwind29121982_20110911
p4812
sg7
(lp4813
VUser
p4814
aVwind29121982@gmail.com
p4815
aVUserTrend
p4816
aVwind29121982_20110911
p4817
asg13
(dp4818
g4737
L54L
sg3342
V
sg22
g23
(S'\x07\xdb\t\x0b'
tRp4819
sg31
Nsg26
(g7
(lp4820
VUser
p4821
aVwind29121982@gmail.com
p4822
atp4823
sg4743
L3L
ssg32
(lp4824
VUser
p4825
aVwind29121982@gmail.com
p4826
asa(dp4827
g5
Vwind29121982_20110912
p4828
sg7
(lp4829
VUser
p4830
aVwind29121982@gmail.com
p4831
aVUserTrend
p4832
aVwind29121982_20110912
p4833
asg13
(dp4834
g4737
L20L
sg3342
V
sg22
g23
(S'\x07\xdb\t\x0c'
tRp4835
sg31
Nsg26
(g7
(lp4836
VUser
p4837
aVwind29121982@gmail.com
p4838
atp4839
sg4743
L6L
ssg32
(lp4840
VUser
p4841
aVwind29121982@gmail.com
p4842
asa(dp4843
g5
Vwind29121982_20110914
p4844
sg7
(lp4845
VUser
p4846
aVwind29121982@gmail.com
p4847
aVUserTrend
p4848
aVwind29121982_20110914
p4849
asg13
(dp4850
g4737
L37L
sg3342
V
sg22
g23
(S'\x07\xdb\t\x0e'
tRp4851
sg31
Nsg26
(g7
(lp4852
VUser
p4853
aVwind29121982@gmail.com
p4854
atp4855
sg4743
L3L
ssg32
(lp4856
VUser
p4857
aVwind29121982@gmail.com
p4858
asa(dp4859
g5
Vwind29121982_20110915
p4860
sg7
(lp4861
VUser
p4862
aVwind29121982@gmail.com
p4863
aVUserTrend
p4864
aVwind29121982_20110915
p4865
asg13
(dp4866
g4737
L54L
sg3342
V
sg22
g23
(S'\x07\xdb\t\x0f'
tRp4867
sg31
Nsg26
(g7
(lp4868
VUser
p4869
aVwind29121982@gmail.com
p4870
atp4871
sg4743
L1L
ssg32
(lp4872
VUser
p4873
aVwind29121982@gmail.com
p4874
asa(dp4875
g5
Vwind29121982_20110916
p4876
sg7
(lp4877
VUser
p4878
aVwind29121982@gmail.com
p4879
aVUserTrend
p4880
aVwind29121982_20110916
p4881
asg13
(dp4882
g4737
L41L
sg3342
V
sg22
g23
(S'\x07\xdb\t\x10'
tRp4883
sg31
Nsg26
(g7
(lp4884
VUser
p4885
aVwind29121982@gmail.com
p4886
atp4887
sg4743
L1L
ssg32
(lp4888
VUser
p4889
aVwind29121982@gmail.com
p4890
asa(dp4891
g5
Vwind29121982_20110919
p4892
sg7
(lp4893
VUser
p4894
aVwind29121982@gmail.com
p4895
aVUserTrend
p4896
aVwind29121982_20110919
p4897
asg13
(dp4898
g4737
L65L
sg3342
V
sg22
g23
(S'\x07\xdb\t\x13'
tRp4899
sg31
Nsg26
(g7
(lp4900
VUser
p4901
aVwind29121982@gmail.com
p4902
atp4903
sg4743
L1L
ssg32
(lp4904
VUser
p4905
aVwind29121982@gmail.com
p4906
asa(dp4907
g5
Vwind29121982_20110920
p4908
sg7
(lp4909
VUser
p4910
aVwind29121982@gmail.com
p4911
aVUserTrend
p4912
aVwind29121982_20110920
p4913
asg13
(dp4914
g4737
L1L
sg3342
V
sg22
g23
(S'\x07\xdb\t\x14'
tRp4915
sg31
Nsg26
(g7
(lp4916
VUser
p4917
aVwind29121982@gmail.com
p4918
atp4919
sg4743
L10L
ssg32
(lp4920
VUser
p4921
aVwind29121982@gmail.com
p4922
asa(dp4923
g5
Vwind29121982_20110921
p4924
sg7
(lp4925
VUser
p4926
aVwind29121982@gmail.com
p4927
aVUserTrend
p4928
aVwind29121982_20110921
p4929
asg13
(dp4930
g4737
L50L
sg3342
V
sg22
g23
(S'\x07\xdb\t\x15'
tRp4931
sg31
Nsg26
(g7
(lp4932
VUser
p4933
aVwind29121982@gmail.com
p4934
atp4935
sg4743
L2L
ssg32
(lp4936
VUser
p4937
aVwind29121982@gmail.com
p4938
asa(dp4939
g5
Vwind29121982_20110922
p4940
sg7
(lp4941
VUser
p4942
aVwind29121982@gmail.com
p4943
aVUserTrend
p4944
aVwind29121982_20110922
p4945
asg13
(dp4946
g4737
L49L
sg3342
V
sg22
g23
(S'\x07\xdb\t\x16'
tRp4947
sg31
Nsg26
(g7
(lp4948
VUser
p4949
aVwind29121982@gmail.com
p4950
atp4951
sg4743
L1L
ssg32
(lp4952
VUser
p4953
aVwind29121982@gmail.com
p4954
asa(dp4955
g5
Vwind29121982_20110923
p4956
sg7
(lp4957
VUser
p4958
aVwind29121982@gmail.com
p4959
aVUserTrend
p4960
aVwind29121982_20110923
p4961
asg13
(dp4962
g4737
L45L
sg3342
V
sg22
g23
(S'\x07\xdb\t\x17'
tRp4963
sg31
Nsg26
(g7
(lp4964
VUser
p4965
aVwind29121982@gmail.com
p4966
atp4967
sg4743
L4L
ssg32
(lp4968
VUser
p4969
aVwind29121982@gmail.com
p4970
asa(dp4971
g5
Vwind29121982_20110924
p4972
sg7
(lp4973
VUser
p4974
aVwind29121982@gmail.com
p4975
aVUserTrend
p4976
aVwind29121982_20110924
p4977
asg13
(dp4978
g4737
L25L
sg3342
V
sg22
g23
(S'\x07\xdb\t\x18'
tRp4979
sg31
Nsg26
(g7
(lp4980
VUser
p4981
aVwind29121982@gmail.com
p4982
atp4983
sg4743
L5L
ssg32
(lp4984
VUser
p4985
aVwind29121982@gmail.com
p4986
asa(dp4987
g5
Vwind29121982_20110926
p4988
sg7
(lp4989
VUser
p4990
aVwind29121982@gmail.com
p4991
aVUserTrend
p4992
aVwind29121982_20110926
p4993
asg13
(dp4994
g4737
L34L
sg3342
V
sg22
g23
(S'\x07\xdb\t\x1a'
tRp4995
sg31
Nsg26
(g7
(lp4996
VUser
p4997
aVwind29121982@gmail.com
p4998
atp4999
sg4743
L5L
ssg32
(lp5000
VUser
p5001
aVwind29121982@gmail.com
p5002
asa(dp5003
g5
Vwind29121982_20110927
p5004
sg7
(lp5005
VUser
p5006
aVwind29121982@gmail.com
p5007
aVUserTrend
p5008
aVwind29121982_20110927
p5009
asg13
(dp5010
g4737
L41L
sg3342
V
sg22
g23
(S'\x07\xdb\t\x1b'
tRp5011
sg31
Nsg26
(g7
(lp5012
VUser
p5013
aVwind29121982@gmail.com
p5014
atp5015
sg4743
L5L
ssg32
(lp5016
VUser
p5017
aVwind29121982@gmail.com
p5018
asa(dp5019
g5
Vwind29121982_20110928
p5020
sg7
(lp5021
VUser
p5022
aVwind29121982@gmail.com
p5023
aVUserTrend
p5024
aVwind29121982_20110928
p5025
asg13
(dp5026
g4737
L24L
sg3342
V
sg22
g23
(S'\x07\xdb\t\x1c'
tRp5027
sg31
Nsg26
(g7
(lp5028
VUser
p5029
aVwind29121982@gmail.com
p5030
atp5031
sg4743
L4L
ssg32
(lp5032
VUser
p5033
aVwind29121982@gmail.com
p5034
asa(dp5035
g5
Vwind29121982_20110929
p5036
sg7
(lp5037
VUser
p5038
aVwind29121982@gmail.com
p5039
aVUserTrend
p5040
aVwind29121982_20110929
p5041
asg13
(dp5042
g4737
L65L
sg3342
V
sg22
g23
(S'\x07\xdb\t\x1d'
tRp5043
sg31
Nsg26
(g7
(lp5044
VUser
p5045
aVwind29121982@gmail.com
p5046
atp5047
sg4743
L2L
ssg32
(lp5048
VUser
p5049
aVwind29121982@gmail.com
p5050
asa(dp5051
g5
Vwind29121982_20110930
p5052
sg7
(lp5053
VUser
p5054
aVwind29121982@gmail.com
p5055
aVUserTrend
p5056
aVwind29121982_20110930
p5057
asg13
(dp5058
g4737
L53L
sg3342
V
sg22
g23
(S'\x07\xdb\t\x1e'
tRp5059
sg31
Nsg26
(g7
(lp5060
VUser
p5061
aVwind29121982@gmail.com
p5062
atp5063
sg4743
L4L
ssg32
(lp5064
VUser
p5065
aVwind29121982@gmail.com
p5066
asa(dp5067
g5
Vwind29121982_20111001
p5068
sg7
(lp5069
VUser
p5070
aVwind29121982@gmail.com
p5071
aVUserTrend
p5072
aVwind29121982_20111001
p5073
asg13
(dp5074
g4737
L14L
sg3342
V
sg22
g23
(S'\x07\xdb\n\x01'
tRp5075
sg31
Nsg26
(g7
(lp5076
VUser
p5077
aVwind29121982@gmail.com
p5078
atp5079
sg4743
L6L
ssg32
(lp5080
VUser
p5081
aVwind29121982@gmail.com
p5082
asa(dp5083
g5
Vwind29121982_20111002
p5084
sg7
(lp5085
VUser
p5086
aVwind29121982@gmail.com
p5087
aVUserTrend
p5088
aVwind29121982_20111002
p5089
asg13
(dp5090
g4737
L48L
sg3342
V
sg22
g23
(S'\x07\xdb\n\x02'
tRp5091
sg31
Nsg26
(g7
(lp5092
VUser
p5093
aVwind29121982@gmail.com
p5094
atp5095
sg4743
L4L
ssg32
(lp5096
VUser
p5097
aVwind29121982@gmail.com
p5098
asa(dp5099
g5
Vwind29121982_20111003
p5100
sg7
(lp5101
VUser
p5102
aVwind29121982@gmail.com
p5103
aVUserTrend
p5104
aVwind29121982_20111003
p5105
asg13
(dp5106
g4737
L34L
sg3342
V
sg22
g23
(S'\x07\xdb\n\x03'
tRp5107
sg31
Nsg26
(g7
(lp5108
VUser
p5109
aVwind29121982@gmail.com
p5110
atp5111
sg4743
L4L
ssg32
(lp5112
VUser
p5113
aVwind29121982@gmail.com
p5114
asa(dp5115
g5
Vwind29121982_20111005
p5116
sg7
(lp5117
VUser
p5118
aVwind29121982@gmail.com
p5119
aVUserTrend
p5120
aVwind29121982_20111005
p5121
asg13
(dp5122
g4737
L21L
sg3342
V
sg22
g23
(S'\x07\xdb\n\x05'
tRp5123
sg31
Nsg26
(g7
(lp5124
VUser
p5125
aVwind29121982@gmail.com
p5126
atp5127
sg4743
L3L
ssg32
(lp5128
VUser
p5129
aVwind29121982@gmail.com
p5130
asa(dp5131
g5
Vwind29121982_20111006
p5132
sg7
(lp5133
VUser
p5134
aVwind29121982@gmail.com
p5135
aVUserTrend
p5136
aVwind29121982_20111006
p5137
asg13
(dp5138
g4737
L31L
sg3342
V
sg22
g23
(S'\x07\xdb\n\x06'
tRp5139
sg31
Nsg26
(g7
(lp5140
VUser
p5141
aVwind29121982@gmail.com
p5142
atp5143
sg4743
L2L
ssg32
(lp5144
VUser
p5145
aVwind29121982@gmail.com
p5146
asa(dp5147
g5
Vwind29121982_20111007
p5148
sg7
(lp5149
VUser
p5150
aVwind29121982@gmail.com
p5151
aVUserTrend
p5152
aVwind29121982_20111007
p5153
asg13
(dp5154
g4737
L6L
sg3342
V
sg22
g23
(S'\x07\xdb\n\x07'
tRp5155
sg31
Nsg26
(g7
(lp5156
VUser
p5157
aVwind29121982@gmail.com
p5158
atp5159
sg4743
L5L
ssg32
(lp5160
VUser
p5161
aVwind29121982@gmail.com
p5162
asa(dp5163
g5
Vwind29121982_20111008
p5164
sg7
(lp5165
VUser
p5166
aVwind29121982@gmail.com
p5167
aVUserTrend
p5168
aVwind29121982_20111008
p5169
asg13
(dp5170
g4737
L48L
sg3342
V
sg22
g23
(S'\x07\xdb\n\x08'
tRp5171
sg31
Nsg26
(g7
(lp5172
VUser
p5173
aVwind29121982@gmail.com
p5174
atp5175
sg4743
L3L
ssg32
(lp5176
VUser
p5177
aVwind29121982@gmail.com
p5178
asa(dp5179
g5
Vwind29121982_20111012
p5180
sg7
(lp5181
VUser
p5182
aVwind29121982@gmail.com
p5183
aVUserTrend
p5184
aVwind29121982_20111012
p5185
asg13
(dp5186
g4737
L56L
sg3342
V
sg22
g23
(S'\x07\xdb\n\x0c'
tRp5187
sg31
Nsg26
(g7
(lp5188
VUser
p5189
aVwind29121982@gmail.com
p5190
atp5191
sg4743
L1L
ssg32
(lp5192
VUser
p5193
aVwind29121982@gmail.com
p5194
asa(dp5195
g5
Vwind29121982_20111013
p5196
sg7
(lp5197
VUser
p5198
aVwind29121982@gmail.com
p5199
aVUserTrend
p5200
aVwind29121982_20111013
p5201
asg13
(dp5202
g4737
L53L
sg3342
V
sg22
g23
(S'\x07\xdb\n\r'
tRp5203
sg31
Nsg26
(g7
(lp5204
VUser
p5205
aVwind29121982@gmail.com
p5206
atp5207
sg4743
L2L
ssg32
(lp5208
VUser
p5209
aVwind29121982@gmail.com
p5210
asa(dp5211
g5
Vwind29121982_20111015
p5212
sg7
(lp5213
VUser
p5214
aVwind29121982@gmail.com
p5215
aVUserTrend
p5216
aVwind29121982_20111015
p5217
asg13
(dp5218
g4737
L41L
sg3342
V
sg22
g23
(S'\x07\xdb\n\x0f'
tRp5219
sg31
Nsg26
(g7
(lp5220
VUser
p5221
aVwind29121982@gmail.com
p5222
atp5223
sg4743
L3L
ssg32
(lp5224
VUser
p5225
aVwind29121982@gmail.com
p5226
asa(dp5227
g5
Vwind29121982_20111018
p5228
sg7
(lp5229
VUser
p5230
aVwind29121982@gmail.com
p5231
aVUserTrend
p5232
aVwind29121982_20111018
p5233
asg13
(dp5234
g4737
L20L
sg3342
V
sg22
g23
(S'\x07\xdb\n\x12'
tRp5235
sg31
Nsg26
(g7
(lp5236
VUser
p5237
aVwind29121982@gmail.com
p5238
atp5239
sg4743
L6L
ssg32
(lp5240
VUser
p5241
aVwind29121982@gmail.com
p5242
asa(dp5243
g5
Vwind29121982_20111019
p5244
sg7
(lp5245
VUser
p5246
aVwind29121982@gmail.com
p5247
aVUserTrend
p5248
aVwind29121982_20111019
p5249
asg13
(dp5250
g4737
L57L
sg3342
V
sg22
g23
(S'\x07\xdb\n\x13'
tRp5251
sg31
Nsg26
(g7
(lp5252
VUser
p5253
aVwind29121982@gmail.com
p5254
atp5255
sg4743
L2L
ssg32
(lp5256
VUser
p5257
aVwind29121982@gmail.com
p5258
asa(dp5259
g5
Vwind29121982_20111020
p5260
sg7
(lp5261
VUser
p5262
aVwind29121982@gmail.com
p5263
aVUserTrend
p5264
aVwind29121982_20111020
p5265
asg13
(dp5266
g4737
L53L
sg3342
V
sg22
g23
(S'\x07\xdb\n\x14'
tRp5267
sg31
Nsg26
(g7
(lp5268
VUser
p5269
aVwind29121982@gmail.com
p5270
atp5271
sg4743
L3L
ssg32
(lp5272
VUser
p5273
aVwind29121982@gmail.com
p5274
asa(dp5275
g5
Vwind29121982_20111021
p5276
sg7
(lp5277
VUser
p5278
aVwind29121982@gmail.com
p5279
aVUserTrend
p5280
aVwind29121982_20111021
p5281
asg13
(dp5282
g4737
L39L
sg3342
V
sg22
g23
(S'\x07\xdb\n\x15'
tRp5283
sg31
Nsg26
(g7
(lp5284
VUser
p5285
aVwind29121982@gmail.com
p5286
atp5287
sg4743
L1L
ssg32
(lp5288
VUser
p5289
aVwind29121982@gmail.com
p5290
asa(dp5291
g5
Vwind29121982_20111022
p5292
sg7
(lp5293
VUser
p5294
aVwind29121982@gmail.com
p5295
aVUserTrend
p5296
aVwind29121982_20111022
p5297
asg13
(dp5298
g4737
L48L
sg3342
V
sg22
g23
(S'\x07\xdb\n\x16'
tRp5299
sg31
Nsg26
(g7
(lp5300
VUser
p5301
aVwind29121982@gmail.com
p5302
atp5303
sg4743
L4L
ssg32
(lp5304
VUser
p5305
aVwind29121982@gmail.com
p5306
asa(dp5307
g5
Vwind29121982_20111025
p5308
sg7
(lp5309
VUser
p5310
aVwind29121982@gmail.com
p5311
aVUserTrend
p5312
aVwind29121982_20111025
p5313
asg13
(dp5314
g4737
L40L
sg3342
V
sg22
g23
(S'\x07\xdb\n\x19'
tRp5315
sg31
Nsg26
(g7
(lp5316
VUser
p5317
aVwind29121982@gmail.com
p5318
atp5319
sg4743
L3L
ssg32
(lp5320
VUser
p5321
aVwind29121982@gmail.com
p5322
asa(dp5323
g5
Vwind29121982_20111026
p5324
sg7
(lp5325
VUser
p5326
aVwind29121982@gmail.com
p5327
aVUserTrend
p5328
aVwind29121982_20111026
p5329
asg13
(dp5330
g4737
L13L
sg3342
V
sg22
g23
(S'\x07\xdb\n\x1a'
tRp5331
sg31
Nsg26
(g7
(lp5332
VUser
p5333
aVwind29121982@gmail.com
p5334
atp5335
sg4743
L7L
ssg32
(lp5336
VUser
p5337
aVwind29121982@gmail.com
p5338
asa(dp5339
g5
Vwind29121982_20111027
p5340
sg7
(lp5341
VUser
p5342
aVwind29121982@gmail.com
p5343
aVUserTrend
p5344
aVwind29121982_20111027
p5345
asg13
(dp5346
g4737
L43L
sg3342
V
sg22
g23
(S'\x07\xdb\n\x1b'
tRp5347
sg31
Nsg26
(g7
(lp5348
VUser
p5349
aVwind29121982@gmail.com
p5350
atp5351
sg4743
L1L
ssg32
(lp5352
VUser
p5353
aVwind29121982@gmail.com
p5354
asa(dp5355
g5
Vwind29121982_20111028
p5356
sg7
(lp5357
VUser
p5358
aVwind29121982@gmail.com
p5359
aVUserTrend
p5360
aVwind29121982_20111028
p5361
asg13
(dp5362
g4737
L14L
sg3342
V
sg22
g23
(S'\x07\xdb\n\x1c'
tRp5363
sg31
Nsg26
(g7
(lp5364
VUser
p5365
aVwind29121982@gmail.com
p5366
atp5367
sg4743
L9L
ssg32
(lp5368
VUser
p5369
aVwind29121982@gmail.com
p5370
asa(dp5371
g5
Vwind29121982_20111029
p5372
sg7
(lp5373
VUser
p5374
aVwind29121982@gmail.com
p5375
aVUserTrend
p5376
aVwind29121982_20111029
p5377
asg13
(dp5378
g4737
L1L
sg3342
V
sg22
g23
(S'\x07\xdb\n\x1d'
tRp5379
sg31
Nsg26
(g7
(lp5380
VUser
p5381
aVwind29121982@gmail.com
p5382
atp5383
sg4743
L10L
ssg32
(lp5384
VUser
p5385
aVwind29121982@gmail.com
p5386
asa(dp5387
g5
Vwind29121982_20111031
p5388
sg7
(lp5389
VUser
p5390
aVwind29121982@gmail.com
p5391
aVUserTrend
p5392
aVwind29121982_20111031
p5393
asg13
(dp5394
g4737
L60L
sg3342
V
sg22
g23
(S'\x07\xdb\n\x1f'
tRp5395
sg31
Nsg26
(g7
(lp5396
VUser
p5397
aVwind29121982@gmail.com
p5398
atp5399
sg4743
L1L
ssg32
(lp5400
VUser
p5401
aVwind29121982@gmail.com
p5402
asa(dp5403
g5
Vwind29121982_20111102
p5404
sg7
(lp5405
VUser
p5406
aVwind29121982@gmail.com
p5407
aVUserTrend
p5408
aVwind29121982_20111102
p5409
asg13
(dp5410
g4737
L38L
sg3342
V
sg22
g23
(S'\x07\xdb\x0b\x02'
tRp5411
sg31
Nsg26
(g7
(lp5412
VUser
p5413
aVwind29121982@gmail.com
p5414
atp5415
sg4743
L3L
ssg32
(lp5416
VUser
p5417
aVwind29121982@gmail.com
p5418
asa(dp5419
g5
Vwind29121982_20111103
p5420
sg7
(lp5421
VUser
p5422
aVwind29121982@gmail.com
p5423
aVUserTrend
p5424
aVwind29121982_20111103
p5425
asg13
(dp5426
g4737
L48L
sg3342
V
sg22
g23
(S'\x07\xdb\x0b\x03'
tRp5427
sg31
Nsg26
(g7
(lp5428
VUser
p5429
aVwind29121982@gmail.com
p5430
atp5431
sg4743
L2L
ssg32
(lp5432
VUser
p5433
aVwind29121982@gmail.com
p5434
asa(dp5435
g5
Vwind29121982_20111106
p5436
sg7
(lp5437
VUser
p5438
aVwind29121982@gmail.com
p5439
aVUserTrend
p5440
aVwind29121982_20111106
p5441
asg13
(dp5442
g4737
L53L
sg3342
V
sg22
g23
(S'\x07\xdb\x0b\x06'
tRp5443
sg31
Nsg26
(g7
(lp5444
VUser
p5445
aVwind29121982@gmail.com
p5446
atp5447
sg4743
L4L
ssg32
(lp5448
VUser
p5449
aVwind29121982@gmail.com
p5450
asa(dp5451
g5
Vwind29121982_20111107
p5452
sg7
(lp5453
VUser
p5454
aVwind29121982@gmail.com
p5455
aVUserTrend
p5456
aVwind29121982_20111107
p5457
asg13
(dp5458
g4737
L22L
sg3342
V
sg22
g23
(S'\x07\xdb\x0b\x07'
tRp5459
sg31
Nsg26
(g7
(lp5460
VUser
p5461
aVwind29121982@gmail.com
p5462
atp5463
sg4743
L7L
ssg32
(lp5464
VUser
p5465
aVwind29121982@gmail.com
p5466
asa(dp5467
g5
Vwind29121982_20111108
p5468
sg7
(lp5469
VUser
p5470
aVwind29121982@gmail.com
p5471
aVUserTrend
p5472
aVwind29121982_20111108
p5473
asg13
(dp5474
g4737
L40L
sg3342
V
sg22
g23
(S'\x07\xdb\x0b\x08'
tRp5475
sg31
Nsg26
(g7
(lp5476
VUser
p5477
aVwind29121982@gmail.com
p5478
atp5479
sg4743
L2L
ssg32
(lp5480
VUser
p5481
aVwind29121982@gmail.com
p5482
asa(dp5483
g5
Vwind29121982_20111109
p5484
sg7
(lp5485
VUser
p5486
aVwind29121982@gmail.com
p5487
aVUserTrend
p5488
aVwind29121982_20111109
p5489
asg13
(dp5490
g4737
L29L
sg3342
V
sg22
g23
(S'\x07\xdb\x0b\t'
tRp5491
sg31
Nsg26
(g7
(lp5492
VUser
p5493
aVwind29121982@gmail.com
p5494
atp5495
sg4743
L6L
ssg32
(lp5496
VUser
p5497
aVwind29121982@gmail.com
p5498
asa(dp5499
g5
Vwind29121982_20111110
p5500
sg7
(lp5501
VUser
p5502
aVwind29121982@gmail.com
p5503
aVUserTrend
p5504
aVwind29121982_20111110
p5505
asg13
(dp5506
g4737
L40L
sg3342
V
sg22
g23
(S'\x07\xdb\x0b\n'
tRp5507
sg31
Nsg26
(g7
(lp5508
VUser
p5509
aVwind29121982@gmail.com
p5510
atp5511
sg4743
L7L
ssg32
(lp5512
VUser
p5513
aVwind29121982@gmail.com
p5514
asa(dp5515
g5
Vwind29121982_20111112
p5516
sg7
(lp5517
VUser
p5518
aVwind29121982@gmail.com
p5519
aVUserTrend
p5520
aVwind29121982_20111112
p5521
asg13
(dp5522
g4737
L43L
sg3342
V
sg22
g23
(S'\x07\xdb\x0b\x0c'
tRp5523
sg31
Nsg26
(g7
(lp5524
VUser
p5525
aVwind29121982@gmail.com
p5526
atp5527
sg4743
L1L
ssg32
(lp5528
VUser
p5529
aVwind29121982@gmail.com
p5530
asa(dp5531
g5
Vwind29121982_20111114
p5532
sg7
(lp5533
VUser
p5534
aVwind29121982@gmail.com
p5535
aVUserTrend
p5536
aVwind29121982_20111114
p5537
asg13
(dp5538
g4737
L34L
sg3342
V
sg22
g23
(S'\x07\xdb\x0b\x0e'
tRp5539
sg31
Nsg26
(g7
(lp5540
VUser
p5541
aVwind29121982@gmail.com
p5542
atp5543
sg4743
L5L
ssg32
(lp5544
VUser
p5545
aVwind29121982@gmail.com
p5546
asa(dp5547
g5
Vwind29121982_20111115
p5548
sg7
(lp5549
VUser
p5550
aVwind29121982@gmail.com
p5551
aVUserTrend
p5552
aVwind29121982_20111115
p5553
asg13
(dp5554
g4737
L1L
sg3342
V
sg22
g23
(S'\x07\xdb\x0b\x0f'
tRp5555
sg31
Nsg26
(g7
(lp5556
VUser
p5557
aVwind29121982@gmail.com
p5558
atp5559
sg4743
L10L
ssg32
(lp5560
VUser
p5561
aVwind29121982@gmail.com
p5562
asa(dp5563
g5
Vwind29121982_20111116
p5564
sg7
(lp5565
VUser
p5566
aVwind29121982@gmail.com
p5567
aVUserTrend
p5568
aVwind29121982_20111116
p5569
asg13
(dp5570
g4737
L60L
sg3342
V
sg22
g23
(S'\x07\xdb\x0b\x10'
tRp5571
sg31
Nsg26
(g7
(lp5572
VUser
p5573
aVwind29121982@gmail.com
p5574
atp5575
sg4743
L1L
ssg32
(lp5576
VUser
p5577
aVwind29121982@gmail.com
p5578
asa(dp5579
g5
Vwind29121982_20111118
p5580
sg7
(lp5581
VUser
p5582
aVwind29121982@gmail.com
p5583
aVUserTrend
p5584
aVwind29121982_20111118
p5585
asg13
(dp5586
g4737
L52L
sg3342
V
sg22
g23
(S'\x07\xdb\x0b\x12'
tRp5587
sg31
Nsg26
(g7
(lp5588
VUser
p5589
aVwind29121982@gmail.com
p5590
atp5591
sg4743
L3L
ssg32
(lp5592
VUser
p5593
aVwind29121982@gmail.com
p5594
asa(dp5595
g5
Vwind29121982_20111121
p5596
sg7
(lp5597
VUser
p5598
aVwind29121982@gmail.com
p5599
aVUserTrend
p5600
aVwind29121982_20111121
p5601
asg13
(dp5602
g4737
L41L
sg3342
V
sg22
g23
(S'\x07\xdb\x0b\x15'
tRp5603
sg31
Nsg26
(g7
(lp5604
VUser
p5605
aVwind29121982@gmail.com
p5606
atp5607
sg4743
L5L
ssg32
(lp5608
VUser
p5609
aVwind29121982@gmail.com
p5610
asa(dp5611
g5
Vwind29121982_20111122
p5612
sg7
(lp5613
VUser
p5614
aVwind29121982@gmail.com
p5615
aVUserTrend
p5616
aVwind29121982_20111122
p5617
asg13
(dp5618
g4737
L10L
sg3342
V
sg22
g23
(S'\x07\xdb\x0b\x16'
tRp5619
sg31
Nsg26
(g7
(lp5620
VUser
p5621
aVwind29121982@gmail.com
p5622
atp5623
sg4743
L7L
ssg32
(lp5624
VUser
p5625
aVwind29121982@gmail.com
p5626
asa(dp5627
g5
Vwind29121982_20111123
p5628
sg7
(lp5629
VUser
p5630
aVwind29121982@gmail.com
p5631
aVUserTrend
p5632
aVwind29121982_20111123
p5633
asg13
(dp5634
g4737
L45L
sg3342
V
sg22
g23
(S'\x07\xdb\x0b\x17'
tRp5635
sg31
Nsg26
(g7
(lp5636
VUser
p5637
aVwind29121982@gmail.com
p5638
atp5639
sg4743
L2L
ssg32
(lp5640
VUser
p5641
aVwind29121982@gmail.com
p5642
asa(dp5643
g5
Vwind29121982_20111124
p5644
sg7
(lp5645
VUser
p5646
aVwind29121982@gmail.com
p5647
aVUserTrend
p5648
aVwind29121982_20111124
p5649
asg13
(dp5650
g4737
L46L
sg3342
V
sg22
g23
(S'\x07\xdb\x0b\x18'
tRp5651
sg31
Nsg26
(g7
(lp5652
VUser
p5653
aVwind29121982@gmail.com
p5654
atp5655
sg4743
L2L
ssg32
(lp5656
VUser
p5657
aVwind29121982@gmail.com
p5658
asa(dp5659
g5
Vwind29121982_20111129
p5660
sg7
(lp5661
VUser
p5662
aVwind29121982@gmail.com
p5663
aVUserTrend
p5664
aVwind29121982_20111129
p5665
asg13
(dp5666
g4737
L61L
sg3342
V
sg22
g23
(S'\x07\xdb\x0b\x1d'
tRp5667
sg31
Nsg26
(g7
(lp5668
VUser
p5669
aVwind29121982@gmail.com
p5670
atp5671
sg4743
L4L
ssg32
(lp5672
VUser
p5673
aVwind29121982@gmail.com
p5674
asa(dp5675
g5
Vwind29121982_20111130
p5676
sg7
(lp5677
VUser
p5678
aVwind29121982@gmail.com
p5679
aVUserTrend
p5680
aVwind29121982_20111130
p5681
asg13
(dp5682
g4737
L1L
sg3342
V
sg22
g23
(S'\x07\xdb\x0b\x1e'
tRp5683
sg31
Nsg26
(g7
(lp5684
VUser
p5685
aVwind29121982@gmail.com
p5686
atp5687
sg4743
L10L
ssg32
(lp5688
VUser
p5689
aVwind29121982@gmail.com
p5690
asa(dp5691
g5
Vwind29121982_20111201
p5692
sg7
(lp5693
VUser
p5694
aVwind29121982@gmail.com
p5695
aVUserTrend
p5696
aVwind29121982_20111201
p5697
asg13
(dp5698
g4737
L45L
sg3342
V
sg22
g23
(S'\x07\xdb\x0c\x01'
tRp5699
sg31
Nsg26
(g7
(lp5700
VUser
p5701
aVwind29121982@gmail.com
p5702
atp5703
sg4743
L1L
ssg32
(lp5704
VUser
p5705
aVwind29121982@gmail.com
p5706
asa(dp5707
g5
Vwind29121982_20111203
p5708
sg7
(lp5709
VUser
p5710
aVwind29121982@gmail.com
p5711
aVUserTrend
p5712
aVwind29121982_20111203
p5713
asg13
(dp5714
g4737
L47L
sg3342
V
sg22
g23
(S'\x07\xdb\x0c\x03'
tRp5715
sg31
Nsg26
(g7
(lp5716
VUser
p5717
aVwind29121982@gmail.com
p5718
atp5719
sg4743
L1L
ssg32
(lp5720
VUser
p5721
aVwind29121982@gmail.com
p5722
asa(dp5723
g5
Vwind29121982_20111205
p5724
sg7
(lp5725
VUser
p5726
aVwind29121982@gmail.com
p5727
aVUserTrend
p5728
aVwind29121982_20111205
p5729
asg13
(dp5730
g4737
L37L
sg3342
V
sg22
g23
(S'\x07\xdb\x0c\x05'
tRp5731
sg31
Nsg26
(g7
(lp5732
VUser
p5733
aVwind29121982@gmail.com
p5734
atp5735
sg4743
L2L
ssg32
(lp5736
VUser
p5737
aVwind29121982@gmail.com
p5738
asa(dp5739
g5
Vwind29121982_20111206
p5740
sg7
(lp5741
VUser
p5742
aVwind29121982@gmail.com
p5743
aVUserTrend
p5744
aVwind29121982_20111206
p5745
asg13
(dp5746
g4737
L52L
sg3342
V
sg22
g23
(S'\x07\xdb\x0c\x06'
tRp5747
sg31
Nsg26
(g7
(lp5748
VUser
p5749
aVwind29121982@gmail.com
p5750
atp5751
sg4743
L1L
ssg32
(lp5752
VUser
p5753
aVwind29121982@gmail.com
p5754
asa(dp5755
g5
Vwind29121982_20111207
p5756
sg7
(lp5757
VUser
p5758
aVwind29121982@gmail.com
p5759
aVUserTrend
p5760
aVwind29121982_20111207
p5761
asg13
(dp5762
g4737
L34L
sg3342
V
sg22
g23
(S'\x07\xdb\x0c\x07'
tRp5763
sg31
Nsg26
(g7
(lp5764
VUser
p5765
aVwind29121982@gmail.com
p5766
atp5767
sg4743
L4L
ssg32
(lp5768
VUser
p5769
aVwind29121982@gmail.com
p5770
asa(dp5771
g5
Vwind29121982_20111208
p5772
sg7
(lp5773
VUser
p5774
aVwind29121982@gmail.com
p5775
aVUserTrend
p5776
aVwind29121982_20111208
p5777
asg13
(dp5778
g4737
L49L
sg3342
V
sg22
g23
(S'\x07\xdb\x0c\x08'
tRp5779
sg31
Nsg26
(g7
(lp5780
VUser
p5781
aVwind29121982@gmail.com
p5782
atp5783
sg4743
L3L
ssg32
(lp5784
VUser
p5785
aVwind29121982@gmail.com
p5786
asa(dp5787
g5
Vwind29121982_20111210
p5788
sg7
(lp5789
VUser
p5790
aVwind29121982@gmail.com
p5791
aVUserTrend
p5792
aVwind29121982_20111210
p5793
asg13
(dp5794
g4737
L45L
sg3342
V
sg22
g23
(S'\x07\xdb\x0c\n'
tRp5795
sg31
Nsg26
(g7
(lp5796
VUser
p5797
aVwind29121982@gmail.com
p5798
atp5799
sg4743
L1L
ssg32
(lp5800
VUser
p5801
aVwind29121982@gmail.com
p5802
asa(dp5803
g5
Vwind29121982_20111212
p5804
sg7
(lp5805
VUser
p5806
aVwind29121982@gmail.com
p5807
aVUserTrend
p5808
aVwind29121982_20111212
p5809
asg13
(dp5810
g4737
L4L
sg3342
V
sg22
g23
(S'\x07\xdb\x0c\x0c'
tRp5811
sg31
Nsg26
(g7
(lp5812
VUser
p5813
aVwind29121982@gmail.com
p5814
atp5815
sg4743
L9L
ssg32
(lp5816
VUser
p5817
aVwind29121982@gmail.com
p5818
asa(dp5819
g5
Vwind29121982_20111213
p5820
sg7
(lp5821
VUser
p5822
aVwind29121982@gmail.com
p5823
aVUserTrend
p5824
aVwind29121982_20111213
p5825
asg13
(dp5826
g4737
L38L
sg3342
V
sg22
g23
(S'\x07\xdb\x0c\r'
tRp5827
sg31
Nsg26
(g7
(lp5828
VUser
p5829
aVwind29121982@gmail.com
p5830
atp5831
sg4743
L1L
ssg32
(lp5832
VUser
p5833
aVwind29121982@gmail.com
p5834
asa(dp5835
g5
Vwind29121982_20111214
p5836
sg7
(lp5837
VUser
p5838
aVwind29121982@gmail.com
p5839
aVUserTrend
p5840
aVwind29121982_20111214
p5841
asg13
(dp5842
g4737
L45L
sg3342
V
sg22
g23
(S'\x07\xdb\x0c\x0e'
tRp5843
sg31
Nsg26
(g7
(lp5844
VUser
p5845
aVwind29121982@gmail.com
p5846
atp5847
sg4743
L1L
ssg32
(lp5848
VUser
p5849
aVwind29121982@gmail.com
p5850
asa(dp5851
g5
Vwind29121982_20111215
p5852
sg7
(lp5853
VUser
p5854
aVwind29121982@gmail.com
p5855
aVUserTrend
p5856
aVwind29121982_20111215
p5857
asg13
(dp5858
g4737
L53L
sg3342
V
sg22
g23
(S'\x07\xdb\x0c\x0f'
tRp5859
sg31
Nsg26
(g7
(lp5860
VUser
p5861
aVwind29121982@gmail.com
p5862
atp5863
sg4743
L2L
ssg32
(lp5864
VUser
p5865
aVwind29121982@gmail.com
p5866
asa(dp5867
g5
Vwind29121982_20111216
p5868
sg7
(lp5869
VUser
p5870
aVwind29121982@gmail.com
p5871
aVUserTrend
p5872
aVwind29121982_20111216
p5873
asg13
(dp5874
g4737
L54L
sg3342
V
sg22
g23
(S'\x07\xdb\x0c\x10'
tRp5875
sg31
Nsg26
(g7
(lp5876
VUser
p5877
aVwind29121982@gmail.com
p5878
atp5879
sg4743
L1L
ssg32
(lp5880
VUser
p5881
aVwind29121982@gmail.com
p5882
asa(dp5883
g5
Vwind29121982_20111219
p5884
sg7
(lp5885
VUser
p5886
aVwind29121982@gmail.com
p5887
aVUserTrend
p5888
aVwind29121982_20111219
p5889
asg13
(dp5890
g4737
L62L
sg3342
V
sg22
g23
(S'\x07\xdb\x0c\x13'
tRp5891
sg31
Nsg26
(g7
(lp5892
VUser
p5893
aVwind29121982@gmail.com
p5894
atp5895
sg4743
L3L
ssg32
(lp5896
VUser
p5897
aVwind29121982@gmail.com
p5898
asa(dp5899
g5
Vwind29121982_20111220
p5900
sg7
(lp5901
VUser
p5902
aVwind29121982@gmail.com
p5903
aVUserTrend
p5904
aVwind29121982_20111220
p5905
asg13
(dp5906
g4737
L50L
sg3342
V
sg22
g23
(S'\x07\xdb\x0c\x14'
tRp5907
sg31
Nsg26
(g7
(lp5908
VUser
p5909
aVwind29121982@gmail.com
p5910
atp5911
sg4743
L1L
ssg32
(lp5912
VUser
p5913
aVwind29121982@gmail.com
p5914
asa(dp5915
g5
Vwind29121982_20111221
p5916
sg7
(lp5917
VUser
p5918
aVwind29121982@gmail.com
p5919
aVUserTrend
p5920
aVwind29121982_20111221
p5921
asg13
(dp5922
g4737
L1L
sg3342
V
sg22
g23
(S'\x07\xdb\x0c\x15'
tRp5923
sg31
Nsg26
(g7
(lp5924
VUser
p5925
aVwind29121982@gmail.com
p5926
atp5927
sg4743
L10L
ssg32
(lp5928
VUser
p5929
aVwind29121982@gmail.com
p5930
asa(dp5931
g5
Vwind29121982_20111222
p5932
sg7
(lp5933
VUser
p5934
aVwind29121982@gmail.com
p5935
aVUserTrend
p5936
aVwind29121982_20111222
p5937
asg13
(dp5938
g4737
L58L
sg3342
V
sg22
g23
(S'\x07\xdb\x0c\x16'
tRp5939
sg31
Nsg26
(g7
(lp5940
VUser
p5941
aVwind29121982@gmail.com
p5942
atp5943
sg4743
L1L
ssg32
(lp5944
VUser
p5945
aVwind29121982@gmail.com
p5946
asa(dp5947
g5
Vwind29121982_20111223
p5948
sg7
(lp5949
VUser
p5950
aVwind29121982@gmail.com
p5951
aVUserTrend
p5952
aVwind29121982_20111223
p5953
asg13
(dp5954
g4737
L55L
sg3342
V
sg22
g23
(S'\x07\xdb\x0c\x17'
tRp5955
sg31
Nsg26
(g7
(lp5956
VUser
p5957
aVwind29121982@gmail.com
p5958
atp5959
sg4743
L5L
ssg32
(lp5960
VUser
p5961
aVwind29121982@gmail.com
p5962
asa(dp5963
g5
Vwind29121982_20111224
p5964
sg7
(lp5965
VUser
p5966
aVwind29121982@gmail.com
p5967
aVUserTrend
p5968
aVwind29121982_20111224
p5969
asg13
(dp5970
g4737
L53L
sg3342
V
sg22
g23
(S'\x07\xdb\x0c\x18'
tRp5971
sg31
Nsg26
(g7
(lp5972
VUser
p5973
aVwind29121982@gmail.com
p5974
atp5975
sg4743
L1L
ssg32
(lp5976
VUser
p5977
aVwind29121982@gmail.com
p5978
asa(dp5979
g5
Vwind29121982_20111225
p5980
sg7
(lp5981
VUser
p5982
aVwind29121982@gmail.com
p5983
aVUserTrend
p5984
aVwind29121982_20111225
p5985
asg13
(dp5986
g4737
L50L
sg3342
V
sg22
g23
(S'\x07\xdb\x0c\x19'
tRp5987
sg31
Nsg26
(g7
(lp5988
VUser
p5989
aVwind29121982@gmail.com
p5990
atp5991
sg4743
L1L
ssg32
(lp5992
VUser
p5993
aVwind29121982@gmail.com
p5994
asa(dp5995
g5
Vwind29121982_20111227
p5996
sg7
(lp5997
VUser
p5998
aVwind29121982@gmail.com
p5999
aVUserTrend
p6000
aVwind29121982_20111227
p6001
asg13
(dp6002
g4737
L48L
sg3342
V
sg22
g23
(S'\x07\xdb\x0c\x1b'
tRp6003
sg31
Nsg26
(g7
(lp6004
VUser
p6005
aVwind29121982@gmail.com
p6006
atp6007
sg4743
L4L
ssg32
(lp6008
VUser
p6009
aVwind29121982@gmail.com
p6010
asa(dp6011
g5
Vwind29121982_20111229
p6012
sg7
(lp6013
VUser
p6014
aVwind29121982@gmail.com
p6015
aVUserTrend
p6016
aVwind29121982_20111229
p6017
asg13
(dp6018
g4737
L55L
sg3342
V
sg22
g23
(S'\x07\xdb\x0c\x1d'
tRp6019
sg31
Nsg26
(g7
(lp6020
VUser
p6021
aVwind29121982@gmail.com
p6022
atp6023
sg4743
L1L
ssg32
(lp6024
VUser
p6025
aVwind29121982@gmail.com
p6026
asa(dp6027
g5
Vwind29121982_20111230
p6028
sg7
(lp6029
VUser
p6030
aVwind29121982@gmail.com
p6031
aVUserTrend
p6032
aVwind29121982_20111230
p6033
asg13
(dp6034
g4737
L38L
sg3342
V
sg22
g23
(S'\x07\xdb\x0c\x1e'
tRp6035
sg31
Nsg26
(g7
(lp6036
VUser
p6037
aVwind29121982@gmail.com
p6038
atp6039
sg4743
L3L
ssg32
(lp6040
VUser
p6041
aVwind29121982@gmail.com
p6042
asa(dp6043
g5
Vwind29121982_20120103
p6044
sg7
(lp6045
VUser
p6046
aVwind29121982@gmail.com
p6047
aVUserTrend
p6048
aVwind29121982_20120103
p6049
asg13
(dp6050
g4737
L41L
sg3342
V
sg22
g23
(S'\x07\xdc\x01\x03'
tRp6051
sg31
Nsg26
(g7
(lp6052
VUser
p6053
aVwind29121982@gmail.com
p6054
atp6055
sg4743
L6L
ssg32
(lp6056
VUser
p6057
aVwind29121982@gmail.com
p6058
asa(dp6059
g5
Vwind29121982_20120104
p6060
sg7
(lp6061
VUser
p6062
aVwind29121982@gmail.com
p6063
aVUserTrend
p6064
aVwind29121982_20120104
p6065
asg13
(dp6066
g4737
L17L
sg3342
V
sg22
g23
(S'\x07\xdc\x01\x04'
tRp6067
sg31
Nsg26
(g7
(lp6068
VUser
p6069
aVwind29121982@gmail.com
p6070
atp6071
sg4743
L5L
ssg32
(lp6072
VUser
p6073
aVwind29121982@gmail.com
p6074
asa(dp6075
g5
Vwind29121982_20120107
p6076
sg7
(lp6077
VUser
p6078
aVwind29121982@gmail.com
p6079
aVUserTrend
p6080
aVwind29121982_20120107
p6081
asg13
(dp6082
g4737
L55L
sg3342
V
sg22
g23
(S'\x07\xdc\x01\x07'
tRp6083
sg31
Nsg26
(g7
(lp6084
VUser
p6085
aVwind29121982@gmail.com
p6086
atp6087
sg4743
L1L
ssg32
(lp6088
VUser
p6089
aVwind29121982@gmail.com
p6090
asa(dp6091
g5
Vwind29121982_20120109
p6092
sg7
(lp6093
VUser
p6094
aVwind29121982@gmail.com
p6095
aVUserTrend
p6096
aVwind29121982_20120109
p6097
asg13
(dp6098
g4737
L16L
sg3342
V
sg22
g23
(S'\x07\xdc\x01\t'
tRp6099
sg31
Nsg26
(g7
(lp6100
VUser
p6101
aVwind29121982@gmail.com
p6102
atp6103
sg4743
L1L
ssg32
(lp6104
VUser
p6105
aVwind29121982@gmail.com
p6106
asa(dp6107
g5
Vwind29121982_20120111
p6108
sg7
(lp6109
VUser
p6110
aVwind29121982@gmail.com
p6111
aVUserTrend
p6112
aVwind29121982_20120111
p6113
asg13
(dp6114
g4737
L48L
sg3342
V
sg22
g23
(S'\x07\xdc\x01\x0b'
tRp6115
sg31
Nsg26
(g7
(lp6116
VUser
p6117
aVwind29121982@gmail.com
p6118
atp6119
sg4743
L1L
ssg32
(lp6120
VUser
p6121
aVwind29121982@gmail.com
p6122
asa(dp6123
g5
Vwind29121982_20120112
p6124
sg7
(lp6125
VUser
p6126
aVwind29121982@gmail.com
p6127
aVUserTrend
p6128
aVwind29121982_20120112
p6129
asg13
(dp6130
g4737
L66L
sg3342
V
sg22
g23
(S'\x07\xdc\x01\x0c'
tRp6131
sg31
Nsg26
(g7
(lp6132
VUser
p6133
aVwind29121982@gmail.com
p6134
atp6135
sg4743
L1L
ssg32
(lp6136
VUser
p6137
aVwind29121982@gmail.com
p6138
asa(dp6139
g5
Vwind29121982_20120113
p6140
sg7
(lp6141
VUser
p6142
aVwind29121982@gmail.com
p6143
aVUserTrend
p6144
aVwind29121982_20120113
p6145
asg13
(dp6146
g4737
L46L
sg3342
V
sg22
g23
(S'\x07\xdc\x01\r'
tRp6147
sg31
Nsg26
(g7
(lp6148
VUser
p6149
aVwind29121982@gmail.com
p6150
atp6151
sg4743
L1L
ssg32
(lp6152
VUser
p6153
aVwind29121982@gmail.com
p6154
asa(dp6155
g5
Vwind29121982_20120114
p6156
sg7
(lp6157
VUser
p6158
aVwind29121982@gmail.com
p6159
aVUserTrend
p6160
aVwind29121982_20120114
p6161
asg13
(dp6162
g4737
L44L
sg3342
V
sg22
g23
(S'\x07\xdc\x01\x0e'
tRp6163
sg31
Nsg26
(g7
(lp6164
VUser
p6165
aVwind29121982@gmail.com
p6166
atp6167
sg4743
L4L
ssg32
(lp6168
VUser
p6169
aVwind29121982@gmail.com
p6170
asa(dp6171
g5
Vwind29121982_20120115
p6172
sg7
(lp6173
VUser
p6174
aVwind29121982@gmail.com
p6175
aVUserTrend
p6176
aVwind29121982_20120115
p6177
asg13
(dp6178
g4737
L62L
sg3342
V
sg22
g23
(S'\x07\xdc\x01\x0f'
tRp6179
sg31
Nsg26
(g7
(lp6180
VUser
p6181
aVwind29121982@gmail.com
p6182
atp6183
sg4743
L1L
ssg32
(lp6184
VUser
p6185
aVwind29121982@gmail.com
p6186
asa(dp6187
g5
Vwind29121982_20120117
p6188
sg7
(lp6189
VUser
p6190
aVwind29121982@gmail.com
p6191
aVUserTrend
p6192
aVwind29121982_20120117
p6193
asg13
(dp6194
g4737
L57L
sg3342
V
sg22
g23
(S'\x07\xdc\x01\x11'
tRp6195
sg31
Nsg26
(g7
(lp6196
VUser
p6197
aVwind29121982@gmail.com
p6198
atp6199
sg4743
L2L
ssg32
(lp6200
VUser
p6201
aVwind29121982@gmail.com
p6202
asa(dp6203
g5
Vwind29121982_20120118
p6204
sg7
(lp6205
VUser
p6206
aVwind29121982@gmail.com
p6207
aVUserTrend
p6208
aVwind29121982_20120118
p6209
asg13
(dp6210
g4737
L55L
sg3342
V
sg22
g23
(S'\x07\xdc\x01\x12'
tRp6211
sg31
Nsg26
(g7
(lp6212
VUser
p6213
aVwind29121982@gmail.com
p6214
atp6215
sg4743
L1L
ssg32
(lp6216
VUser
p6217
aVwind29121982@gmail.com
p6218
asa(dp6219
g5
Vwind29121982_20120119
p6220
sg7
(lp6221
VUser
p6222
aVwind29121982@gmail.com
p6223
aVUserTrend
p6224
aVwind29121982_20120119
p6225
asg13
(dp6226
g4737
L52L
sg3342
V
sg22
g23
(S'\x07\xdc\x01\x13'
tRp6227
sg31
Nsg26
(g7
(lp6228
VUser
p6229
aVwind29121982@gmail.com
p6230
atp6231
sg4743
L1L
ssg32
(lp6232
VUser
p6233
aVwind29121982@gmail.com
p6234
asa(dp6235
g5
Vwind29121982_20120121
p6236
sg7
(lp6237
VUser
p6238
aVwind29121982@gmail.com
p6239
aVUserTrend
p6240
aVwind29121982_20120121
p6241
asg13
(dp6242
g4737
L45L
sg3342
V
sg22
g23
(S'\x07\xdc\x01\x15'
tRp6243
sg31
Nsg26
(g7
(lp6244
VUser
p6245
aVwind29121982@gmail.com
p6246
atp6247
sg4743
L1L
ssg32
(lp6248
VUser
p6249
aVwind29121982@gmail.com
p6250
asa(dp6251
g5
Vwind29121982_20120122
p6252
sg7
(lp6253
VUser
p6254
aVwind29121982@gmail.com
p6255
aVUserTrend
p6256
aVwind29121982_20120122
p6257
asg13
(dp6258
g4737
L56L
sg3342
V
sg22
g23
(S'\x07\xdc\x01\x16'
tRp6259
sg31
Nsg26
(g7
(lp6260
VUser
p6261
aVwind29121982@gmail.com
p6262
atp6263
sg4743
L2L
ssg32
(lp6264
VUser
p6265
aVwind29121982@gmail.com
p6266
asa(dp6267
g5
Vwind29121982_20120123
p6268
sg7
(lp6269
VUser
p6270
aVwind29121982@gmail.com
p6271
aVUserTrend
p6272
aVwind29121982_20120123
p6273
asg13
(dp6274
g4737
L34L
sg3342
V
sg22
g23
(S'\x07\xdc\x01\x17'
tRp6275
sg31
Nsg26
(g7
(lp6276
VUser
p6277
aVwind29121982@gmail.com
p6278
atp6279
sg4743
L7L
ssg32
(lp6280
VUser
p6281
aVwind29121982@gmail.com
p6282
asa(dp6283
g5
Vwind29121982_20120124
p6284
sg7
(lp6285
VUser
p6286
aVwind29121982@gmail.com
p6287
aVUserTrend
p6288
aVwind29121982_20120124
p6289
asg13
(dp6290
g4737
L60L
sg3342
V
sg22
g23
(S'\x07\xdc\x01\x18'
tRp6291
sg31
Nsg26
(g7
(lp6292
VUser
p6293
aVwind29121982@gmail.com
p6294
atp6295
sg4743
L1L
ssg32
(lp6296
VUser
p6297
aVwind29121982@gmail.com
p6298
asa(dp6299
g5
Vwind29121982_20120126
p6300
sg7
(lp6301
VUser
p6302
aVwind29121982@gmail.com
p6303
aVUserTrend
p6304
aVwind29121982_20120126
p6305
asg13
(dp6306
g4737
L51L
sg3342
V
sg22
g23
(S'\x07\xdc\x01\x1a'
tRp6307
sg31
Nsg26
(g7
(lp6308
VUser
p6309
aVwind29121982@gmail.com
p6310
atp6311
sg4743
L4L
ssg32
(lp6312
VUser
p6313
aVwind29121982@gmail.com
p6314
asa(dp6315
g5
Vwind29121982_20120127
p6316
sg7
(lp6317
VUser
p6318
aVwind29121982@gmail.com
p6319
aVUserTrend
p6320
aVwind29121982_20120127
p6321
asg13
(dp6322
g4737
L50L
sg3342
V
sg22
g23
(S'\x07\xdc\x01\x1b'
tRp6323
sg31
Nsg26
(g7
(lp6324
VUser
p6325
aVwind29121982@gmail.com
p6326
atp6327
sg4743
L1L
ssg32
(lp6328
VUser
p6329
aVwind29121982@gmail.com
p6330
asa(dp6331
g5
Vwind29121982_20120402
p6332
sg7
(lp6333
VUser
p6334
aVwind29121982@gmail.com
p6335
aVUserTrend
p6336
aVwind29121982_20120402
p6337
asg13
(dp6338
g4737
L55L
sg3342
V
sg22
g23
(S'\x07\xdc\x04\x02'
tRp6339
sg31
Nsg26
(g7
(lp6340
VUser
p6341
aVwind29121982@gmail.com
p6342
atp6343
sg4743
L1L
ssg32
(lp6344
VUser
p6345
aVwind29121982@gmail.com
p6346
asa(dp6347
g5
Vwind29121982_20120404
p6348
sg7
(lp6349
VUser
p6350
aVwind29121982@gmail.com
p6351
aVUserTrend
p6352
aVwind29121982_20120404
p6353
asg13
(dp6354
g4737
L18L
sg3342
V
sg22
g23
(S'\x07\xdc\x04\x04'
tRp6355
sg31
Nsg26
(g7
(lp6356
VUser
p6357
aVwind29121982@gmail.com
p6358
atp6359
sg4743
L7L
ssg32
(lp6360
VUser
p6361
aVwind29121982@gmail.com
p6362
asa(dp6363
g5
Vwind29121982_20120414
p6364
sg7
(lp6365
VUser
p6366
aVwind29121982@gmail.com
p6367
aVUserTrend
p6368
aVwind29121982_20120414
p6369
asg13
(dp6370
g4737
L65L
sg3342
V
sg22
g23
(S'\x07\xdc\x04\x0e'
tRp6371
sg31
Nsg26
(g7
(lp6372
VUser
p6373
aVwind29121982@gmail.com
p6374
atp6375
sg4743
L2L
ssg32
(lp6376
VUser
p6377
aVwind29121982@gmail.com
p6378
asa(dp6379
g5
Vwind29121982_20120419
p6380
sg7
(lp6381
VUser
p6382
aVwind29121982@gmail.com
p6383
aVUserTrend
p6384
aVwind29121982_20120419
p6385
asg13
(dp6386
g4737
L51L
sg3342
V
sg22
g23
(S'\x07\xdc\x04\x13'
tRp6387
sg31
Nsg26
(g7
(lp6388
VUser
p6389
aVwind29121982@gmail.com
p6390
atp6391
sg4743
L1L
ssg32
(lp6392
VUser
p6393
aVwind29121982@gmail.com
p6394
asa(dp6395
g5
Vwind29121982_20120423
p6396
sg7
(lp6397
VUser
p6398
aVwind29121982@gmail.com
p6399
aVUserTrend
p6400
aVwind29121982_20120423
p6401
asg13
(dp6402
g4737
L42L
sg3342
V
sg22
g23
(S'\x07\xdc\x04\x17'
tRp6403
sg31
Nsg26
(g7
(lp6404
VUser
p6405
aVwind29121982@gmail.com
p6406
atp6407
sg4743
L4L
ssg32
(lp6408
VUser
p6409
aVwind29121982@gmail.com
p6410
asa(dp6411
g5
Vwind29121982_20120424
p6412
sg7
(lp6413
VUser
p6414
aVwind29121982@gmail.com
p6415
aVUserTrend
p6416
aVwind29121982_20120424
p6417
asg13
(dp6418
g4737
L46L
sg3342
V
sg22
g23
(S'\x07\xdc\x04\x18'
tRp6419
sg31
Nsg26
(g7
(lp6420
VUser
p6421
aVwind29121982@gmail.com
p6422
atp6423
sg4743
L4L
ssg32
(lp6424
VUser
p6425
aVwind29121982@gmail.com
p6426
asa(dp6427
g5
Vwind29121982_20120502
p6428
sg7
(lp6429
VUser
p6430
aVwind29121982@gmail.com
p6431
aVUserTrend
p6432
aVwind29121982_20120502
p6433
asg13
(dp6434
g4737
L54L
sg3342
V
sg22
g23
(S'\x07\xdc\x05\x02'
tRp6435
sg31
Nsg26
(g7
(lp6436
VUser
p6437
aVwind29121982@gmail.com
p6438
atp6439
sg4743
L2L
ssg32
(lp6440
VUser
p6441
aVwind29121982@gmail.com
p6442
asa(dp6443
g5
Vwind29121982_20120503
p6444
sg7
(lp6445
VUser
p6446
aVwind29121982@gmail.com
p6447
aVUserTrend
p6448
aVwind29121982_20120503
p6449
asg13
(dp6450
g4737
L38L
sg3342
V
sg22
g23
(S'\x07\xdc\x05\x03'
tRp6451
sg31
Nsg26
(g7
(lp6452
VUser
p6453
aVwind29121982@gmail.com
p6454
atp6455
sg4743
L1L
ssg32
(lp6456
VUser
p6457
aVwind29121982@gmail.com
p6458
asa(dp6459
g5
Vwind29121982_20120504
p6460
sg7
(lp6461
VUser
p6462
aVwind29121982@gmail.com
p6463
aVUserTrend
p6464
aVwind29121982_20120504
p6465
asg13
(dp6466
g4737
L32L
sg3342
V
sg22
g23
(S'\x07\xdc\x05\x04'
tRp6467
sg31
Nsg26
(g7
(lp6468
VUser
p6469
aVwind29121982@gmail.com
p6470
atp6471
sg4743
L7L
ssg32
(lp6472
VUser
p6473
aVwind29121982@gmail.com
p6474
asa(dp6475
g5
Vwind29121982_20120507
p6476
sg7
(lp6477
VUser
p6478
aVwind29121982@gmail.com
p6479
aVUserTrend
p6480
aVwind29121982_20120507
p6481
asg13
(dp6482
g4737
L60L
sg3342
V
sg22
g23
(S'\x07\xdc\x05\x07'
tRp6483
sg31
Nsg26
(g7
(lp6484
VUser
p6485
aVwind29121982@gmail.com
p6486
atp6487
sg4743
L1L
ssg32
(lp6488
VUser
p6489
aVwind29121982@gmail.com
p6490
asa(dp6491
g5
Vwind29121982_20120510
p6492
sg7
(lp6493
VUser
p6494
aVwind29121982@gmail.com
p6495
aVUserTrend
p6496
aVwind29121982_20120510
p6497
asg13
(dp6498
g4737
L42L
sg3342
V
sg22
g23
(S'\x07\xdc\x05\n'
tRp6499
sg31
Nsg26
(g7
(lp6500
VUser
p6501
aVwind29121982@gmail.com
p6502
atp6503
sg4743
L1L
ssg32
(lp6504
VUser
p6505
aVwind29121982@gmail.com
p6506
asa(dp6507
g5
Vwind29121982_20120511
p6508
sg7
(lp6509
VUser
p6510
aVwind29121982@gmail.com
p6511
aVUserTrend
p6512
aVwind29121982_20120511
p6513
asg13
(dp6514
g4737
L42L
sg3342
V
sg22
g23
(S'\x07\xdc\x05\x0b'
tRp6515
sg31
Nsg26
(g7
(lp6516
VUser
p6517
aVwind29121982@gmail.com
p6518
atp6519
sg4743
L1L
ssg32
(lp6520
VUser
p6521
aVwind29121982@gmail.com
p6522
asa(dp6523
g5
Vwind29121982_20120512
p6524
sg7
(lp6525
VUser
p6526
aVwind29121982@gmail.com
p6527
aVUserTrend
p6528
aVwind29121982_20120512
p6529
asg13
(dp6530
g4737
L36L
sg3342
V
sg22
g23
(S'\x07\xdc\x05\x0c'
tRp6531
sg31
Nsg26
(g7
(lp6532
VUser
p6533
aVwind29121982@gmail.com
p6534
atp6535
sg4743
L1L
ssg32
(lp6536
VUser
p6537
aVwind29121982@gmail.com
p6538
asa(dp6539
g5
Vwind29121982_20120514
p6540
sg7
(lp6541
VUser
p6542
aVwind29121982@gmail.com
p6543
aVUserTrend
p6544
aVwind29121982_20120514
p6545
asg13
(dp6546
g4737
L39L
sg3342
V
sg22
g23
(S'\x07\xdc\x05\x0e'
tRp6547
sg31
Nsg26
(g7
(lp6548
VUser
p6549
aVwind29121982@gmail.com
p6550
atp6551
sg4743
L3L
ssg32
(lp6552
VUser
p6553
aVwind29121982@gmail.com
p6554
asa(dp6555
g5
Vwind29121982_20120515
p6556
sg7
(lp6557
VUser
p6558
aVwind29121982@gmail.com
p6559
aVUserTrend
p6560
aVwind29121982_20120515
p6561
asg13
(dp6562
g4737
L4L
sg3342
V
sg22
g23
(S'\x07\xdc\x05\x0f'
tRp6563
sg31
Nsg26
(g7
(lp6564
VUser
p6565
aVwind29121982@gmail.com
p6566
atp6567
sg4743
L10L
ssg32
(lp6568
VUser
p6569
aVwind29121982@gmail.com
p6570
asa(dp6571
g5
Vwind29121982_20120516
p6572
sg7
(lp6573
VUser
p6574
aVwind29121982@gmail.com
p6575
aVUserTrend
p6576
aVwind29121982_20120516
p6577
asg13
(dp6578
g4737
L32L
sg3342
V
sg22
g23
(S'\x07\xdc\x05\x10'
tRp6579
sg31
Nsg26
(g7
(lp6580
VUser
p6581
aVwind29121982@gmail.com
p6582
atp6583
sg4743
L2L
ssg32
(lp6584
VUser
p6585
aVwind29121982@gmail.com
p6586
asa(dp6587
g5
Vwind29121982_20120517
p6588
sg7
(lp6589
VUser
p6590
aVwind29121982@gmail.com
p6591
aVUserTrend
p6592
aVwind29121982_20120517
p6593
asg13
(dp6594
g4737
L38L
sg3342
V
sg22
g23
(S'\x07\xdc\x05\x11'
tRp6595
sg31
Nsg26
(g7
(lp6596
VUser
p6597
aVwind29121982@gmail.com
p6598
atp6599
sg4743
L1L
ssg32
(lp6600
VUser
p6601
aVwind29121982@gmail.com
p6602
asa(dp6603
g5
Vwind29121982_20120518
p6604
sg7
(lp6605
VUser
p6606
aVwind29121982@gmail.com
p6607
aVUserTrend
p6608
aVwind29121982_20120518
p6609
asg13
(dp6610
g4737
L55L
sg3342
V
sg22
g23
(S'\x07\xdc\x05\x12'
tRp6611
sg31
Nsg26
(g7
(lp6612
VUser
p6613
aVwind29121982@gmail.com
p6614
atp6615
sg4743
L1L
ssg32
(lp6616
VUser
p6617
aVwind29121982@gmail.com
p6618
asa(dp6619
g5
Vwind29121982_20120519
p6620
sg7
(lp6621
VUser
p6622
aVwind29121982@gmail.com
p6623
aVUserTrend
p6624
aVwind29121982_20120519
p6625
asg13
(dp6626
g4737
L52L
sg3342
V
sg22
g23
(S'\x07\xdc\x05\x13'
tRp6627
sg31
Nsg26
(g7
(lp6628
VUser
p6629
aVwind29121982@gmail.com
p6630
atp6631
sg4743
L3L
ssg32
(lp6632
VUser
p6633
aVwind29121982@gmail.com
p6634
asa(dp6635
g5
Vwind29121982_20120521
p6636
sg7
(lp6637
VUser
p6638
aVwind29121982@gmail.com
p6639
aVUserTrend
p6640
aVwind29121982_20120521
p6641
asg13
(dp6642
g4737
L39L
sg3342
V
sg22
g23
(S'\x07\xdc\x05\x15'
tRp6643
sg31
Nsg26
(g7
(lp6644
VUser
p6645
aVwind29121982@gmail.com
p6646
atp6647
sg4743
L3L
ssg32
(lp6648
VUser
p6649
aVwind29121982@gmail.com
p6650
asa(dp6651
g5
Vwind29121982_20120523
p6652
sg7
(lp6653
VUser
p6654
aVwind29121982@gmail.com
p6655
aVUserTrend
p6656
aVwind29121982_20120523
p6657
asg13
(dp6658
g4737
L60L
sg3342
V
sg22
g23
(S'\x07\xdc\x05\x17'
tRp6659
sg31
Nsg26
(g7
(lp6660
VUser
p6661
aVwind29121982@gmail.com
p6662
atp6663
sg4743
L2L
ssg32
(lp6664
VUser
p6665
aVwind29121982@gmail.com
p6666
asa(dp6667
g5
Vwind29121982_20120524
p6668
sg7
(lp6669
VUser
p6670
aVwind29121982@gmail.com
p6671
aVUserTrend
p6672
aVwind29121982_20120524
p6673
asg13
(dp6674
g4737
L56L
sg3342
V
sg22
g23
(S'\x07\xdc\x05\x18'
tRp6675
sg31
Nsg26
(g7
(lp6676
VUser
p6677
aVwind29121982@gmail.com
p6678
atp6679
sg4743
L2L
ssg32
(lp6680
VUser
p6681
aVwind29121982@gmail.com
p6682
asa(dp6683
g5
Vwind29121982_20120525
p6684
sg7
(lp6685
VUser
p6686
aVwind29121982@gmail.com
p6687
aVUserTrend
p6688
aVwind29121982_20120525
p6689
asg13
(dp6690
g4737
L1L
sg3342
V
sg22
g23
(S'\x07\xdc\x05\x19'
tRp6691
sg31
Nsg26
(g7
(lp6692
VUser
p6693
aVwind29121982@gmail.com
p6694
atp6695
sg4743
L10L
ssg32
(lp6696
VUser
p6697
aVwind29121982@gmail.com
p6698
asa(dp6699
g5
Vwind29121982_20120528
p6700
sg7
(lp6701
VUser
p6702
aVwind29121982@gmail.com
p6703
aVUserTrend
p6704
aVwind29121982_20120528
p6705
asg13
(dp6706
g4737
L34L
sg3342
V
sg22
g23
(S'\x07\xdc\x05\x1c'
tRp6707
sg31
Nsg26
(g7
(lp6708
VUser
p6709
aVwind29121982@gmail.com
p6710
atp6711
sg4743
L6L
ssg32
(lp6712
VUser
p6713
aVwind29121982@gmail.com
p6714
asa(dp6715
g5
Vwind29121982_20120529
p6716
sg7
(lp6717
VUser
p6718
aVwind29121982@gmail.com
p6719
aVUserTrend
p6720
aVwind29121982_20120529
p6721
asg13
(dp6722
g4737
L40L
sg3342
V
sg22
g23
(S'\x07\xdc\x05\x1d'
tRp6723
sg31
Nsg26
(g7
(lp6724
VUser
p6725
aVwind29121982@gmail.com
p6726
atp6727
sg4743
L1L
ssg32
(lp6728
VUser
p6729
aVwind29121982@gmail.com
p6730
asa(dp6731
g5
Vwind29121982_20120530
p6732
sg7
(lp6733
VUser
p6734
aVwind29121982@gmail.com
p6735
aVUserTrend
p6736
aVwind29121982_20120530
p6737
asg13
(dp6738
g4737
L42L
sg3342
V
sg22
g23
(S'\x07\xdc\x05\x1e'
tRp6739
sg31
Nsg26
(g7
(lp6740
VUser
p6741
aVwind29121982@gmail.com
p6742
atp6743
sg4743
L3L
ssg32
(lp6744
VUser
p6745
aVwind29121982@gmail.com
p6746
asa(dp6747
g5
Vwind29121982_20120531
p6748
sg7
(lp6749
VUser
p6750
aVwind29121982@gmail.com
p6751
aVUserTrend
p6752
aVwind29121982_20120531
p6753
asg13
(dp6754
g4737
L37L
sg3342
V
sg22
g23
(S'\x07\xdc\x05\x1f'
tRp6755
sg31
Nsg26
(g7
(lp6756
VUser
p6757
aVwind29121982@gmail.com
p6758
atp6759
sg4743
L6L
ssg32
(lp6760
VUser
p6761
aVwind29121982@gmail.com
p6762
asa(dp6763
g5
Vwind29121982_20120601
p6764
sg7
(lp6765
VUser
p6766
aVwind29121982@gmail.com
p6767
aVUserTrend
p6768
aVwind29121982_20120601
p6769
asg13
(dp6770
g4737
L18L
sg3342
V
sg22
g23
(S'\x07\xdc\x06\x01'
tRp6771
sg31
Nsg26
(g7
(lp6772
VUser
p6773
aVwind29121982@gmail.com
p6774
atp6775
sg4743
L1L
ssg32
(lp6776
VUser
p6777
aVwind29121982@gmail.com
p6778
asa(dp6779
g5
Vwind29121982_20120603
p6780
sg7
(lp6781
VUser
p6782
aVwind29121982@gmail.com
p6783
aVUserTrend
p6784
aVwind29121982_20120603
p6785
asg13
(dp6786
g4737
L37L
sg3342
V
sg22
g23
(S'\x07\xdc\x06\x03'
tRp6787
sg31
Nsg26
(g7
(lp6788
VUser
p6789
aVwind29121982@gmail.com
p6790
atp6791
sg4743
L6L
ssg32
(lp6792
VUser
p6793
aVwind29121982@gmail.com
p6794
asa(dp6795
g5
Vwind29121982_20120604
p6796
sg7
(lp6797
VUser
p6798
aVwind29121982@gmail.com
p6799
aVUserTrend
p6800
aVwind29121982_20120604
p6801
asg13
(dp6802
g4737
L49L
sg3342
V
sg22
g23
(S'\x07\xdc\x06\x04'
tRp6803
sg31
Nsg26
(g7
(lp6804
VUser
p6805
aVwind29121982@gmail.com
p6806
atp6807
sg4743
L1L
ssg32
(lp6808
VUser
p6809
aVwind29121982@gmail.com
p6810
asa(dp6811
g5
Vwind29121982_20120605
p6812
sg7
(lp6813
VUser
p6814
aVwind29121982@gmail.com
p6815
aVUserTrend
p6816
aVwind29121982_20120605
p6817
asg13
(dp6818
g4737
L31L
sg3342
V
sg22
g23
(S'\x07\xdc\x06\x05'
tRp6819
sg31
Nsg26
(g7
(lp6820
VUser
p6821
aVwind29121982@gmail.com
p6822
atp6823
sg4743
L1L
ssg32
(lp6824
VUser
p6825
aVwind29121982@gmail.com
p6826
asa(dp6827
g5
Vwind29121982_20120607
p6828
sg7
(lp6829
VUser
p6830
aVwind29121982@gmail.com
p6831
aVUserTrend
p6832
aVwind29121982_20120607
p6833
asg13
(dp6834
g4737
L57L
sg3342
V
sg22
g23
(S'\x07\xdc\x06\x07'
tRp6835
sg31
Nsg26
(g7
(lp6836
VUser
p6837
aVwind29121982@gmail.com
p6838
atp6839
sg4743
L1L
ssg32
(lp6840
VUser
p6841
aVwind29121982@gmail.com
p6842
asa(dp6843
g5
Vwind29121982_20120609
p6844
sg7
(lp6845
VUser
p6846
aVwind29121982@gmail.com
p6847
aVUserTrend
p6848
aVwind29121982_20120609
p6849
asg13
(dp6850
g4737
L42L
sg3342
V
sg22
g23
(S'\x07\xdc\x06\t'
tRp6851
sg31
Nsg26
(g7
(lp6852
VUser
p6853
aVwind29121982@gmail.com
p6854
atp6855
sg4743
L6L
ssg32
(lp6856
VUser
p6857
aVwind29121982@gmail.com
p6858
asa(dp6859
g5
Vwind29121982_20120610
p6860
sg7
(lp6861
VUser
p6862
aVwind29121982@gmail.com
p6863
aVUserTrend
p6864
aVwind29121982_20120610
p6865
asg13
(dp6866
g4737
L46L
sg3342
V
sg22
g23
(S'\x07\xdc\x06\n'
tRp6867
sg31
Nsg26
(g7
(lp6868
VUser
p6869
aVwind29121982@gmail.com
p6870
atp6871
sg4743
L1L
ssg32
(lp6872
VUser
p6873
aVwind29121982@gmail.com
p6874
asa(dp6875
g5
Vwind29121982_20120613
p6876
sg7
(lp6877
VUser
p6878
aVwind29121982@gmail.com
p6879
aVUserTrend
p6880
aVwind29121982_20120613
p6881
asg13
(dp6882
g4737
L38L
sg3342
V
sg22
g23
(S'\x07\xdc\x06\r'
tRp6883
sg31
Nsg26
(g7
(lp6884
VUser
p6885
aVwind29121982@gmail.com
p6886
atp6887
sg4743
L3L
ssg32
(lp6888
VUser
p6889
aVwind29121982@gmail.com
p6890
asa(dp6891
g5
Vwind29121982_20120619
p6892
sg7
(lp6893
VUser
p6894
aVwind29121982@gmail.com
p6895
aVUserTrend
p6896
aVwind29121982_20120619
p6897
asg13
(dp6898
g4737
L8L
sg3342
V
sg22
g23
(S'\x07\xdc\x06\x13'
tRp6899
sg31
Nsg26
(g7
(lp6900
VUser
p6901
aVwind29121982@gmail.com
p6902
atp6903
sg4743
L5L
ssg32
(lp6904
VUser
p6905
aVwind29121982@gmail.com
p6906
asa(dp6907
g5
Vwind29121982_20120620
p6908
sg7
(lp6909
VUser
p6910
aVwind29121982@gmail.com
p6911
aVUserTrend
p6912
aVwind29121982_20120620
p6913
asg13
(dp6914
g4737
L38L
sg3342
V
sg22
g23
(S'\x07\xdc\x06\x14'
tRp6915
sg31
Nsg26
(g7
(lp6916
VUser
p6917
aVwind29121982@gmail.com
p6918
atp6919
sg4743
L2L
ssg32
(lp6920
VUser
p6921
aVwind29121982@gmail.com
p6922
asa(dp6923
g5
Vwind29121982_20120622
p6924
sg7
(lp6925
VUser
p6926
aVwind29121982@gmail.com
p6927
aVUserTrend
p6928
aVwind29121982_20120622
p6929
asg13
(dp6930
g4737
L48L
sg3342
V
sg22
g23
(S'\x07\xdc\x06\x16'
tRp6931
sg31
Nsg26
(g7
(lp6932
VUser
p6933
aVwind29121982@gmail.com
p6934
atp6935
sg4743
L6L
ssg32
(lp6936
VUser
p6937
aVwind29121982@gmail.com
p6938
asa(dp6939
g5
Vwind29121982_20120623
p6940
sg7
(lp6941
VUser
p6942
aVwind29121982@gmail.com
p6943
aVUserTrend
p6944
aVwind29121982_20120623
p6945
asg13
(dp6946
g4737
L43L
sg3342
V
sg22
g23
(S'\x07\xdc\x06\x17'
tRp6947
sg31
Nsg26
(g7
(lp6948
VUser
p6949
aVwind29121982@gmail.com
p6950
atp6951
sg4743
L2L
ssg32
(lp6952
VUser
p6953
aVwind29121982@gmail.com
p6954
asa(dp6955
g5
Vwind29121982_20120624
p6956
sg7
(lp6957
VUser
p6958
aVwind29121982@gmail.com
p6959
aVUserTrend
p6960
aVwind29121982_20120624
p6961
asg13
(dp6962
g4737
L54L
sg3342
V
sg22
g23
(S'\x07\xdc\x06\x18'
tRp6963
sg31
Nsg26
(g7
(lp6964
VUser
p6965
aVwind29121982@gmail.com
p6966
atp6967
sg4743
L1L
ssg32
(lp6968
VUser
p6969
aVwind29121982@gmail.com
p6970
asa(dp6971
g5
Vwind29121982_20120627
p6972
sg7
(lp6973
VUser
p6974
aVwind29121982@gmail.com
p6975
aVUserTrend
p6976
aVwind29121982_20120627
p6977
asg13
(dp6978
g4737
L53L
sg3342
V
sg22
g23
(S'\x07\xdc\x06\x1b'
tRp6979
sg31
Nsg26
(g7
(lp6980
VUser
p6981
aVwind29121982@gmail.com
p6982
atp6983
sg4743
L2L
ssg32
(lp6984
VUser
p6985
aVwind29121982@gmail.com
p6986
asa(dp6987
g5
Vwind29121982_20120629
p6988
sg7
(lp6989
VUser
p6990
aVwind29121982@gmail.com
p6991
aVUserTrend
p6992
aVwind29121982_20120629
p6993
asg13
(dp6994
g4737
L35L
sg3342
V
sg22
g23
(S'\x07\xdc\x06\x1d'
tRp6995
sg31
Nsg26
(g7
(lp6996
VUser
p6997
aVwind29121982@gmail.com
p6998
atp6999
sg4743
L4L
ssg32
(lp7000
VUser
p7001
aVwind29121982@gmail.com
p7002
asa(dp7003
g5
Vwind29121982_20120704
p7004
sg7
(lp7005
VUser
p7006
aVwind29121982@gmail.com
p7007
aVUserTrend
p7008
aVwind29121982_20120704
p7009
asg13
(dp7010
g4737
L40L
sg3342
V
sg22
g23
(S'\x07\xdc\x07\x04'
tRp7011
sg31
Nsg26
(g7
(lp7012
VUser
p7013
aVwind29121982@gmail.com
p7014
atp7015
sg4743
L1L
ssg32
(lp7016
VUser
p7017
aVwind29121982@gmail.com
p7018
asa(dp7019
g5
Vwind29121982_20120707
p7020
sg7
(lp7021
VUser
p7022
aVwind29121982@gmail.com
p7023
aVUserTrend
p7024
aVwind29121982_20120707
p7025
asg13
(dp7026
g4737
L62L
sg3342
V
sg22
g23
(S'\x07\xdc\x07\x07'
tRp7027
sg31
Nsg26
(g7
(lp7028
VUser
p7029
aVwind29121982@gmail.com
p7030
atp7031
sg4743
L1L
ssg32
(lp7032
VUser
p7033
aVwind29121982@gmail.com
p7034
asa(dp7035
g5
Vwind29121982_20120710
p7036
sg7
(lp7037
VUser
p7038
aVwind29121982@gmail.com
p7039
aVUserTrend
p7040
aVwind29121982_20120710
p7041
asg13
(dp7042
g4737
L20L
sg3342
V
sg22
g23
(S'\x07\xdc\x07\n'
tRp7043
sg31
Nsg26
(g7
(lp7044
VUser
p7045
aVwind29121982@gmail.com
p7046
atp7047
sg4743
L1L
ssg32
(lp7048
VUser
p7049
aVwind29121982@gmail.com
p7050
asa(dp7051
g5
Vwind29121982_20120712
p7052
sg7
(lp7053
VUser
p7054
aVwind29121982@gmail.com
p7055
aVUserTrend
p7056
aVwind29121982_20120712
p7057
asg13
(dp7058
g4737
L39L
sg3342
V
sg22
g23
(S'\x07\xdc\x07\x0c'
tRp7059
sg31
Nsg26
(g7
(lp7060
VUser
p7061
aVwind29121982@gmail.com
p7062
atp7063
sg4743
L1L
ssg32
(lp7064
VUser
p7065
aVwind29121982@gmail.com
p7066
asa(dp7067
g5
Vwind29121982_20120714
p7068
sg7
(lp7069
VUser
p7070
aVwind29121982@gmail.com
p7071
aVUserTrend
p7072
aVwind29121982_20120714
p7073
asg13
(dp7074
g4737
L27L
sg3342
V
sg22
g23
(S'\x07\xdc\x07\x0e'
tRp7075
sg31
Nsg26
(g7
(lp7076
VUser
p7077
aVwind29121982@gmail.com
p7078
atp7079
sg4743
L7L
ssg32
(lp7080
VUser
p7081
aVwind29121982@gmail.com
p7082
asa(dp7083
g5
Vwind29121982_20120716
p7084
sg7
(lp7085
VUser
p7086
aVwind29121982@gmail.com
p7087
aVUserTrend
p7088
aVwind29121982_20120716
p7089
asg13
(dp7090
g4737
L63L
sg3342
V
sg22
g23
(S'\x07\xdc\x07\x10'
tRp7091
sg31
Nsg26
(g7
(lp7092
VUser
p7093
aVwind29121982@gmail.com
p7094
atp7095
sg4743
L1L
ssg32
(lp7096
VUser
p7097
aVwind29121982@gmail.com
p7098
asa(dp7099
g5
Vwind29121982_20120717
p7100
sg7
(lp7101
VUser
p7102
aVwind29121982@gmail.com
p7103
aVUserTrend
p7104
aVwind29121982_20120717
p7105
asg13
(dp7106
g4737
L52L
sg3342
V
sg22
g23
(S'\x07\xdc\x07\x11'
tRp7107
sg31
Nsg26
(g7
(lp7108
VUser
p7109
aVwind29121982@gmail.com
p7110
atp7111
sg4743
L1L
ssg32
(lp7112
VUser
p7113
aVwind29121982@gmail.com
p7114
asa(dp7115
g5
Vwind29121982_20120719
p7116
sg7
(lp7117
VUser
p7118
aVwind29121982@gmail.com
p7119
aVUserTrend
p7120
aVwind29121982_20120719
p7121
asg13
(dp7122
g4737
L52L
sg3342
V
sg22
g23
(S'\x07\xdc\x07\x13'
tRp7123
sg31
Nsg26
(g7
(lp7124
VUser
p7125
aVwind29121982@gmail.com
p7126
atp7127
sg4743
L3L
ssg32
(lp7128
VUser
p7129
aVwind29121982@gmail.com
p7130
asa(dp7131
g5
Vwind29121982_20120720
p7132
sg7
(lp7133
VUser
p7134
aVwind29121982@gmail.com
p7135
aVUserTrend
p7136
aVwind29121982_20120720
p7137
asg13
(dp7138
g4737
L54L
sg3342
V
sg22
g23
(S'\x07\xdc\x07\x14'
tRp7139
sg31
Nsg26
(g7
(lp7140
VUser
p7141
aVwind29121982@gmail.com
p7142
atp7143
sg4743
L4L
ssg32
(lp7144
VUser
p7145
aVwind29121982@gmail.com
p7146
asa(dp7147
g5
Vwind29121982_20120723
p7148
sg7
(lp7149
VUser
p7150
aVwind29121982@gmail.com
p7151
aVUserTrend
p7152
aVwind29121982_20120723
p7153
asg13
(dp7154
g4737
L36L
sg3342
V
sg22
g23
(S'\x07\xdc\x07\x17'
tRp7155
sg31
Nsg26
(g7
(lp7156
VUser
p7157
aVwind29121982@gmail.com
p7158
atp7159
sg4743
L4L
ssg32
(lp7160
VUser
p7161
aVwind29121982@gmail.com
p7162
asa(dp7163
g5
Vwind29121982_20120724
p7164
sg7
(lp7165
VUser
p7166
aVwind29121982@gmail.com
p7167
aVUserTrend
p7168
aVwind29121982_20120724
p7169
asg13
(dp7170
g4737
L40L
sg3342
V
sg22
g23
(S'\x07\xdc\x07\x18'
tRp7171
sg31
Nsg26
(g7
(lp7172
VUser
p7173
aVwind29121982@gmail.com
p7174
atp7175
sg4743
L1L
ssg32
(lp7176
VUser
p7177
aVwind29121982@gmail.com
p7178
asa(dp7179
g5
Vwind29121982_20120725
p7180
sg7
(lp7181
VUser
p7182
aVwind29121982@gmail.com
p7183
aVUserTrend
p7184
aVwind29121982_20120725
p7185
asg13
(dp7186
g4737
L55L
sg3342
V
sg22
g23
(S'\x07\xdc\x07\x19'
tRp7187
sg31
Nsg26
(g7
(lp7188
VUser
p7189
aVwind29121982@gmail.com
p7190
atp7191
sg4743
L4L
ssg32
(lp7192
VUser
p7193
aVwind29121982@gmail.com
p7194
asa(dp7195
g5
Vwind29121982_20120726
p7196
sg7
(lp7197
VUser
p7198
aVwind29121982@gmail.com
p7199
aVUserTrend
p7200
aVwind29121982_20120726
p7201
asg13
(dp7202
g4737
L57L
sg3342
V
sg22
g23
(S'\x07\xdc\x07\x1a'
tRp7203
sg31
Nsg26
(g7
(lp7204
VUser
p7205
aVwind29121982@gmail.com
p7206
atp7207
sg4743
L2L
ssg32
(lp7208
VUser
p7209
aVwind29121982@gmail.com
p7210
asa(dp7211
g5
Vwind29121982_20120727
p7212
sg7
(lp7213
VUser
p7214
aVwind29121982@gmail.com
p7215
aVUserTrend
p7216
aVwind29121982_20120727
p7217
asg13
(dp7218
g4737
L55L
sg3342
V
sg22
g23
(S'\x07\xdc\x07\x1b'
tRp7219
sg31
Nsg26
(g7
(lp7220
VUser
p7221
aVwind29121982@gmail.com
p7222
atp7223
sg4743
L2L
ssg32
(lp7224
VUser
p7225
aVwind29121982@gmail.com
p7226
asa(dp7227
g5
Vwind29121982_20120728
p7228
sg7
(lp7229
VUser
p7230
aVwind29121982@gmail.com
p7231
aVUserTrend
p7232
aVwind29121982_20120728
p7233
asg13
(dp7234
g4737
L46L
sg3342
V
sg22
g23
(S'\x07\xdc\x07\x1c'
tRp7235
sg31
Nsg26
(g7
(lp7236
VUser
p7237
aVwind29121982@gmail.com
p7238
atp7239
sg4743
L6L
ssg32
(lp7240
VUser
p7241
aVwind29121982@gmail.com
p7242
asa(dp7243
g5
Vwind29121982_20120730
p7244
sg7
(lp7245
VUser
p7246
aVwind29121982@gmail.com
p7247
aVUserTrend
p7248
aVwind29121982_20120730
p7249
asg13
(dp7250
g4737
L60L
sg3342
V
sg22
g23
(S'\x07\xdc\x07\x1e'
tRp7251
sg31
Nsg26
(g7
(lp7252
VUser
p7253
aVwind29121982@gmail.com
p7254
atp7255
sg4743
L2L
ssg32
(lp7256
VUser
p7257
aVwind29121982@gmail.com
p7258
asa(dp7259
g5
Vwind29121982_20120801
p7260
sg7
(lp7261
VUser
p7262
aVwind29121982@gmail.com
p7263
aVUserTrend
p7264
aVwind29121982_20120801
p7265
asg13
(dp7266
g4737
L28L
sg3342
V
sg22
g23
(S'\x07\xdc\x08\x01'
tRp7267
sg31
Nsg26
(g7
(lp7268
VUser
p7269
aVwind29121982@gmail.com
p7270
atp7271
sg4743
L6L
ssg32
(lp7272
VUser
p7273
aVwind29121982@gmail.com
p7274
asa(dp7275
g5
Vwind29121982_20120802
p7276
sg7
(lp7277
VUser
p7278
aVwind29121982@gmail.com
p7279
aVUserTrend
p7280
aVwind29121982_20120802
p7281
asg13
(dp7282
g4737
L44L
sg3342
V
sg22
g23
(S'\x07\xdc\x08\x02'
tRp7283
sg31
Nsg26
(g7
(lp7284
VUser
p7285
aVwind29121982@gmail.com
p7286
atp7287
sg4743
L5L
ssg32
(lp7288
VUser
p7289
aVwind29121982@gmail.com
p7290
asa(dp7291
g5
Vwind29121982_20120803
p7292
sg7
(lp7293
VUser
p7294
aVwind29121982@gmail.com
p7295
aVUserTrend
p7296
aVwind29121982_20120803
p7297
asg13
(dp7298
g4737
L37L
sg3342
V
sg22
g23
(S'\x07\xdc\x08\x03'
tRp7299
sg31
Nsg26
(g7
(lp7300
VUser
p7301
aVwind29121982@gmail.com
p7302
atp7303
sg4743
L4L
ssg32
(lp7304
VUser
p7305
aVwind29121982@gmail.com
p7306
asa(dp7307
g5
Vwind29121982_20120804
p7308
sg7
(lp7309
VUser
p7310
aVwind29121982@gmail.com
p7311
aVUserTrend
p7312
aVwind29121982_20120804
p7313
asg13
(dp7314
g4737
L18L
sg3342
V
sg22
g23
(S'\x07\xdc\x08\x04'
tRp7315
sg31
Nsg26
(g7
(lp7316
VUser
p7317
aVwind29121982@gmail.com
p7318
atp7319
sg4743
L7L
ssg32
(lp7320
VUser
p7321
aVwind29121982@gmail.com
p7322
asa(dp7323
g5
Vwind29121982_20120807
p7324
sg7
(lp7325
VUser
p7326
aVwind29121982@gmail.com
p7327
aVUserTrend
p7328
aVwind29121982_20120807
p7329
asg13
(dp7330
g4737
L53L
sg3342
V93
p7331
sg22
g23
(S'\x07\xdc\x08\x07'
tRp7332
sg31
Nsg26
(g7
(lp7333
VUser
p7334
aVwind29121982@gmail.com
p7335
atp7336
sg4743
L3L
ssg32
(lp7337
VUser
p7338
aVwind29121982@gmail.com
p7339
asa(dp7340
g5
Vwind29121982_20120808
p7341
sg7
(lp7342
VUser
p7343
aVwind29121982@gmail.com
p7344
aVUserTrend
p7345
aVwind29121982_20120808
p7346
asg13
(dp7347
g4737
L31L
sg3342
V93
p7348
sg22
g23
(S'\x07\xdc\x08\x08'
tRp7349
sg31
Nsg26
(g7
(lp7350
VUser
p7351
aVwind29121982@gmail.com
p7352
atp7353
sg4743
L3L
ssg32
(lp7354
VUser
p7355
aVwind29121982@gmail.com
p7356
asa(dp7357
g5
Vwind29121982_20120809
p7358
sg7
(lp7359
VUser
p7360
aVwind29121982@gmail.com
p7361
aVUserTrend
p7362
aVwind29121982_20120809
p7363
asg13
(dp7364
g4737
L30L
sg3342
Vhydromet
p7365
sg22
g23
(S'\x07\xdc\x08\t'
tRp7366
sg31
Nsg26
(g7
(lp7367
VUser
p7368
aVwind29121982@gmail.com
p7369
atp7370
sg4743
L5L
ssg32
(lp7371
VUser
p7372
aVwind29121982@gmail.com
p7373
asa(dp7374
g5
Vwind29121982_20120810
p7375
sg7
(lp7376
VUser
p7377
aVwind29121982@gmail.com
p7378
aVUserTrend
p7379
aVwind29121982_20120810
p7380
asg13
(dp7381
g4737
L44L
sg3342
V93
p7382
sg4743
L1L
sg26
(g7
(lp7383
VUser
p7384
aVwind29121982@gmail.com
p7385
atp7386
sg22
g23
(S'\x07\xdc\x08\n'
tRp7387
sg20
F0.95099999999999996
sg31
Nssg32
(lp7388
VUser
p7389
aVwind29121982@gmail.com
p7390
asa(dp7391
g5
Vwind29121982_20120811
p7392
sg7
(lp7393
VUser
p7394
aVwind29121982@gmail.com
p7395
aVUserTrend
p7396
aVwind29121982_20120811
p7397
asg13
(dp7398
g4737
L7L
sg3342
Vecgeo
p7399
sg4743
L6L
sg26
(g7
(lp7400
VUser
p7401
aVwind29121982@gmail.com
p7402
atp7403
sg22
g23
(S'\x07\xdc\x08\x0b'
tRp7404
sg20
F0.95099999999999996
sg31
Nssg32
(lp7405
VUser
p7406
aVwind29121982@gmail.com
p7407
asa(dp7408
g5
Vwind29121982_20120813
p7409
sg7
(lp7410
VUser
p7411
aVwind29121982@gmail.com
p7412
aVUserTrend
p7413
aVwind29121982_20120813
p7414
asg13
(dp7415
g4737
L20L
sg3342
Vhydromet
p7416
sg4743
L6L
sg26
(g7
(lp7417
VUser
p7418
aVwind29121982@gmail.com
p7419
atp7420
sg22
g23
(S'\x07\xdc\x08\r'
tRp7421
sg20
F0.95099999999999996
sg31
Nssg32
(lp7422
VUser
p7423
aVwind29121982@gmail.com
p7424
asa(dp7425
g5
Vwind29121982_20120814
p7426
sg7
(lp7427
VUser
p7428
aVwind29121982@gmail.com
p7429
aVUserTrend
p7430
aVwind29121982_20120814
p7431
asg13
(dp7432
g4737
L16L
sg3342
Vecgeo
p7433
sg4743
L1L
sg26
(g7
(lp7434
VUser
p7435
aVwind29121982@gmail.com
p7436
atp7437
sg22
g23
(S'\x07\xdc\x08\x0e'
tRp7438
sg20
F0.95099999999999996
sg31
Nssg32
(lp7439
VUser
p7440
aVwind29121982@gmail.com
p7441
asa(dp7442
g5
Vwind29121982_20130521
p7443
sg7
(lp7444
VUser
p7445
aVwind29121982@gmail.com
p7446
aVUserTrend
p7447
aVwind29121982_20130521
p7448
asg13
(dp7449
g4737
L68L
sg3342
Vviki
p7450
sg4743
L2L
sg26
(g7
(lp7451
VUser
p7452
aVwind29121982@gmail.com
p7453
atp7454
sg22
g23
(S'\x07\xdd\x05\x15'
tRp7455
sg20
F0.94999999999999996
sg31
Nssg32
(lp7456
VUser
p7457
aVwind29121982@gmail.com
p7458
asa(dp7459
g5
Vwind29121982_20130522
p7460
sg7
(lp7461
VUser
p7462
aVwind29121982@gmail.com
p7463
aVUserTrend
p7464
aVwind29121982_20130522
p7465
asg13
(dp7466
g4737
L52L
sg3342
Vecgeo
p7467
sg4743
L3L
sg26
(g7
(lp7468
VUser
p7469
aVwind29121982@gmail.com
p7470
atp7471
sg22
g23
(S'\x07\xdd\x05\x16'
tRp7472
sg20
F0.94999999999999996
sg31
Nssg32
(lp7473
VUser
p7474
aVwind29121982@gmail.com
p7475
asa(dp7476
g5
Vwind29121982_20130524
p7477
sg7
(lp7478
VUser
p7479
aVwind29121982@gmail.com
p7480
aVUserTrend
p7481
aVwind29121982_20130524
p7482
asg13
(dp7483
g4737
L60L
sg3342
Vhydromet
p7484
sg4743
L1L
sg26
(g7
(lp7485
VUser
p7486
aVwind29121982@gmail.com
p7487
atp7488
sg22
g23
(S'\x07\xdd\x05\x18'
tRp7489
sg20
F0.94999999999999996
sg31
Nssg32
(lp7490
VUser
p7491
aVwind29121982@gmail.com
p7492
asasS'model'
p7493
VUserTrend
p7494
s.
