(dp1
S'entities'
p2
(lp3
(dp4
S'key'
p5
(lp6
VUser
p7
aVTestData@gmail.com
p8
asS'fields'
p9
(dp10
S'name'
p11
V
sS'nickname'
p12
VTestData
p13
sS'residence'
p14
(g5
(lp15
VResidence
p16
aVid_7285
p17
atp18
sS'birthdate'
p19
NsS'user_obj'
p20
ccopy_reg
_reconstructor
p21
(cgoogle.appengine.api.users
User
p22
c__builtin__
object
p23
NtRp24
(dp25
S'_User__federated_provider'
p26
NsS'_User__user_id'
p27
V119325084972171092288
p28
sS'_User__email'
p29
VTestData@gmail.com
p30
sS'_User__auth_domain'
p31
Vgmail.com
p32
sS'_User__federated_identity'
p33
NsbsS'common_props'
p34
(lp35
VAstroData.sun_asc
p36
aVAstroData.sun_dec
p37
aVAstroData.sun_dis
p38
aVAstroData.moon_asc
p39
aVAstroData.moon_dec
p40
aVAstroData.moon_dis
p41
aVAstroData.mercury_asc
p42
aVAstroData.mercury_dec
p43
aVAstroData.mercury_dis
p44
aVAstroData.venus_asc
p45
aVAstroData.venus_dec
p46
aVAstroData.venus_dis
p47
aVAstroData.mars_asc
p48
aVAstroData.mars_dec
p49
aVAstroData.mars_dis
p50
aVAstroData.jupiter_asc
p51
aVAstroData.jupiter_dec
p52
aVAstroData.jupiter_dis
p53
aVAstroData.saturn_asc
p54
aVAstroData.saturn_dec
p55
aVAstroData.saturn_dis
p56
aVAstroData.uranus_asc
p57
aVAstroData.uranus_dec
p58
aVAstroData.uranus_dis
p59
aVAstroData.neptune_asc
p60
aVAstroData.neptune_dec
p61
aVAstroData.neptune_dis
p62
aVAstroData.pluto_asc
p63
aVAstroData.pluto_dec
p64
aVAstroData.pluto_dis
p65
aVCommonData.solar_radio_flux
p66
aVCommonData.mean_planetary_A_index
p67
aVCommonData.mean_planetary_Kp_index
p68
aVCommonCityData.temperature
p69
aVCommonCityData.cloud_cover
p70
aVCommonCityData.precipitation
p71
aVCommonCityData.pressure
p72
aVCommonCityData.humidity
p73
aVCommonCityData.wind_velocity
p74
aVCommonCityData.wind_direction
p75
aVCommonCityData.day_duration
p76
aVCommonCityData.moon_phase
p77
aVCommonCityData.moon_illuminated
p78
asS'gender'
p79
NsS'surname'
p80
V
sS'patronymic'
p81
V
ssS'keyname'
p82
VTestData@gmail.com
p83
sS'parent'
p84
Nsa(dp85
g5
(lp86
VUser
p87
aVTopchyAlexey@gmail.com
p88
asg9
(dp89
g11
V\u0410\u043b\u0435\u043a\u0441\u0435\u0439
p90
sg12
VTopchyAlexey
p91
sg14
(g5
(lp92
VResidence
p93
aVid_8717
p94
atp95
sg19
cdatetime
date
p96
(S'\x07\xb9\n\x02'
tRp97
sg20
g21
(g22
g23
NtRp98
(dp99
g26
Nsg27
V120906492006021017965
p100
sg29
VTopchyAlexey@gmail.com
p101
sg31
Vgmail.com
p102
sg33
Nsbsg34
(lp103
sg79
VM
sg80
V\u0422\u043e\u043f\u0447\u0438\u0439
p104
sg81
V\u0412\u043b\u0430\u0434\u0438\u043c\u0438\u0440\u043e\u0432\u0438\u0447
p105
ssg82
VTopchyAlexey@gmail.com
p106
sg84
Nsa(dp107
g5
(lp108
VUser
p109
aVVPKulesh@gmail.com
p110
asg9
(dp111
g11
V\u0412\u0430\u043b\u0435\u0440\u0438\u0439
p112
sg12
VVPKulesh
p113
sg14
(g5
(lp114
VResidence
p115
aVid_7285
p116
atp117
sg19
g96
(S'\x07\xb6\x01\x04'
tRp118
sg20
g21
(g22
g23
NtRp119
(dp120
g26
Nsg27
V112518421969174125251
p121
sg29
VVPKulesh@gmail.com
p122
sg31
Vgmail.com
p123
sg33
Nsbsg34
(lp124
VCommonData.solar_radio_flux
p125
aVCommonData.mean_planetary_A_index
p126
aVCommonData.mean_planetary_Kp_index
p127
aVCommonCityData.temperature
p128
aVCommonCityData.cloud_cover
p129
aVCommonCityData.precipitation
p130
aVCommonCityData.pressure
p131
aVCommonCityData.humidity
p132
aVCommonCityData.wind_velocity
p133
aVCommonCityData.wind_direction
p134
aVCommonCityData.day_duration
p135
aVCommonCityData.moon_phase
p136
aVCommonCityData.moon_illuminated
p137
asg79
VM
sg80
V\u041a\u0443\u043b\u0435\u0448
p138
sg81
V\u041f\u0435\u0442\u0440\u043e\u0432\u0438\u0447
p139
ssg82
VVPKulesh@gmail.com
p140
sg84
Nsa(dp141
g5
(lp142
VUser
p143
aVadmin.denisov@gmail.com
p144
asg9
(dp145
g11
V\u0414\u0435\u043d\u0438\u0441
p146
sg12
Vadmin.denisov
p147
sg14
(g5
(lp148
VResidence
p149
aVid_7285
p150
atp151
sg19
g96
(S'\x07\xb7\x08\x14'
tRp152
sg20
g21
(g22
g23
NtRp153
(dp154
g26
Nsg27
V119766231762221813068
p155
sg29
Vadmin.denisov@gmail.com
p156
sg31
Vgmail.com
p157
sg33
Nsbsg34
(lp158
sg79
VM
sg80
V\u0414\u0435\u043d\u0438\u0441\u043e\u0432
p159
sg81
V\u0410\u043b\u0435\u043a\u0441\u0430\u043d\u0434\u0440\u043e\u0432\u0438\u0447
p160
ssg82
Vadmin.denisov@gmail.com
p161
sg84
Nsa(dp162
g5
(lp163
VUser
p164
aVaikido.netsui@gmail.com
p165
asg9
(dp166
g11
Nsg12
Vaikido.netsui
p167
sg14
(g5
(lp168
VResidence
p169
aVid_7285
p170
atp171
sg19
Nsg20
g21
(g22
g23
NtRp172
(dp173
g26
Nsg27
V118758191111245839212
p174
sg29
Vaikido.netsui@gmail.com
p175
sg31
Vgmail.com
p176
sg33
Nsbsg34
(lp177
sg79
VM
sg80
Nsg81
Nssg82
Vaikido.netsui@gmail.com
p178
sg84
Nsa(dp179
g5
(lp180
VUser
p181
aVdavid.tsogoev@gmail.com
p182
asg9
(dp183
g11
V\u0414\u0430\u0432\u0438\u0434
p184
sg12
Vdavid.tsogoev
p185
sg14
(g5
(lp186
VResidence
p187
aVid_7285
p188
atp189
sg19
g96
(S'\x07\xbc\x07\x0f'
tRp190
sg20
g21
(g22
g23
NtRp191
(dp192
g26
Nsg27
V122769240152512371562
p193
sg29
Vdavid.tsogoev@gmail.com
p194
sg31
Vgmail.com
p195
sg33
Nsbsg34
(lp196
sg79
VM
sg80
V\u0426\u043e\u0433\u043e\u0435\u0432
p197
sg81
V\u0412\u0430\u043b\u0435\u0440\u044c\u0435\u0432\u0438\u0447
p198
ssg82
Vdavid.tsogoev@gmail.com
p199
sg84
Nsa(dp200
g5
(lp201
VUser
p202
aVddmitriev@gmail.com
p203
asg9
(dp204
g11
V\u0414\u043c\u0438\u0442\u0440\u0438\u0439
p205
sg12
Vddmitriev
p206
sg14
(g5
(lp207
VResidence
p208
aVid_7285
p209
atp210
sg19
g96
(S'\x07\xb7\x07\x04'
tRp211
sg20
g21
(g22
g23
NtRp212
(dp213
g26
Nsg27
V117224417223063245302
p214
sg29
Vddmitriev@gmail.com
p215
sg31
Vgmail.com
p216
sg33
Nsbsg34
(lp217
sg79
VM
sg80
V
sg81
V
ssg82
Vddmitriev@gmail.com
p218
sg84
Nsa(dp219
g5
(lp220
VUser
p221
aVm.belorukov@gmail.com
p222
asg9
(dp223
g11
Vm
sg12
Vm.belorukov
p224
sg14
(g5
(lp225
VResidence
p226
aVid_9485
p227
atp228
sg19
g96
(S'\x07x\x07\x10'
tRp229
sg20
g21
(g22
g23
NtRp230
(dp231
g26
Nsg27
V115323736222342321461
p232
sg29
Vm.belorukov@gmail.com
p233
sg31
Vgmail.com
p234
sg33
Nsbsg34
(lp235
VCommonCityData.temperature
p236
aVCommonCityData.cloud_cover
p237
aVCommonCityData.precipitation
p238
aVCommonCityData.pressure
p239
aVCommonCityData.wind_velocity
p240
aVCommonCityData.wind_direction
p241
aVCommonCityData.day_duration
p242
asg79
VM
sg80
Vb
sg81
Vv
ssg82
Vm.belorukov@gmail.com
p243
sg84
Nsa(dp244
g5
(lp245
VUser
p246
aVpokrovskiy.a@gmail.com
p247
asg9
(dp248
g11
VAlexey
p249
sg12
Vpokrovskiy.a
p250
sg14
(g5
(lp251
VResidence
p252
aVid_3328
p253
atp254
sg19
g96
(S'\x07\xb2\x08\x11'
tRp255
sg20
g21
(g22
g23
NtRp256
(dp257
g26
Nsg27
V114517524718801117127
p258
sg29
Vpokrovskiy.a@gmail.com
p259
sg31
Vgmail.com
p260
sg33
Nsbsg34
(lp261
VCommonData.solar_radio_flux
p262
aVCommonData.mean_planetary_A_index
p263
aVCommonData.mean_planetary_Kp_index
p264
aVCommonCityData.temperature
p265
aVCommonCityData.cloud_cover
p266
aVCommonCityData.precipitation
p267
aVCommonCityData.pressure
p268
aVCommonCityData.humidity
p269
aVCommonCityData.wind_velocity
p270
aVCommonCityData.wind_direction
p271
aVCommonCityData.day_duration
p272
aVCommonCityData.moon_phase
p273
aVCommonCityData.moon_illuminated
p274
asg79
VM
sg80
VPokrovskiy
p275
sg81
VValerievich
p276
ssg82
Vpokrovskiy.a@gmail.com
p277
sg84
Nsa(dp278
g5
(lp279
VUser
p280
aVsolution@boomst.ru
p281
asg9
(dp282
g11
VDenis
p283
sg12
Vsolution@boomst.ru
p284
sg14
(g5
(lp285
VResidence
p286
aVid_7285
p287
atp288
sg19
g96
(S'\x07\xc0\x01\x1c'
tRp289
sg20
g21
(g22
g23
NtRp290
(dp291
g26
Nsg27
V110131901561004612642
p292
sg29
Vsolution@boomst.ru
p293
sg31
Vgmail.com
p294
sg33
Nsbsg34
(lp295
sg79
VM
sg80
VMaximov
p296
sg81
VVladimorovich
p297
ssg82
Vsolution@boomst.ru
p298
sg84
Nsa(dp299
g5
(lp300
VUser
p301
aVwind29121982@gmail.com
p302
asg9
(dp303
g11
V\u0410\u043d\u0434\u0440\u0435\u0439
p304
sg12
Vwind29121982
p305
sg14
(g5
(lp306
VResidence
p307
aVid_7285
p308
atp309
sg19
g96
(S'\x07\xbe\x0c\x1d'
tRp310
sg20
g21
(g22
g23
NtRp311
(dp312
g26
Nsg27
V129179511592481340460
p313
sg29
Vwind29121982@gmail.com
p314
sg31
Vgmail.com
p315
sg33
Nsbsg34
(lp316
VCommonData.solar_radio_flux
p317
aVCommonData.mean_planetary_A_index
p318
aVCommonData.mean_planetary_Kp_index
p319
aVCommonCityData.temperature
p320
aVCommonCityData.cloud_cover
p321
aVCommonCityData.precipitation
p322
aVCommonCityData.pressure
p323
aVCommonCityData.humidity
p324
aVCommonCityData.wind_velocity
p325
aVCommonCityData.wind_direction
p326
aVCommonCityData.day_duration
p327
aVCommonCityData.moon_phase
p328
aVCommonCityData.moon_illuminated
p329
asg79
VM
sg80
V\u0411\u0430\u0440\u0442\u0430\u0448\u0435\u0432\u0438\u0447
p330
sg81
V\u0412\u0438\u043a\u0442\u043e\u0440\u043e\u0432\u0438\u0447
p331
ssg82
Vwind29121982@gmail.com
p332
sg84
NsasS'model'
p333
VUser
p334
s.